(lp0
F0.6649131869585858
aF0.7185028804984199
aF0.5668724714146833
aF0.5262632888139365
aF0.4025654345046519
aF0.47677101760433516
aF0.5149562780375732
aF0.532915111902696
aF0.5006448582522012
aF0.55
aF0.41000000000000003
aF0.42
aF0.53
aF0.53
aF0.52
aF0.5299999999999998
aF0.63
aF0.58
aF0.6000000000000001
aF0.5599999999999999
aF0.51
aF0.55
aF0.49
aF0.6399999999999999
aF0.7
aF0.7
aF0.71
aF0.55
aF0.6400000000000001
aF0.61
aF0.63
aF0.5299999999999999
aF0.57
aF0.74
aF0.59
aF0.6000000000000001
aF0.5800000000000001
aF0.62
aF0.58
aF0.62
aF0.56
aF0.58
aF0.5499999999999999
aF0.54
aF0.5599999999999999
aF0.41
aF0.48
aF0.43
aF0.48
aF0.41
aF0.48
aF0.43
aF0.48
a.