(iexpclass
expclasses
p0
(dp1
S'data'
p2
(lp3
(iexpclass
expclass
p4
(dp5
S'category'
p6
S'Zeolite'
p7
sS'cattype'
p8
S'MFI'
p9
sS'rxntype'
p10
S'gas'
p11
sS'conv'
p12
F0.6165950018614822
sS'author'
p13
S'Wood'
p14
sS'DOI'
p15
S'10.1016/j.jcat.2004.04.010'
p16
sS'log_conv'
p17
F-0.21
sS'single_site'
p18
S'yes'
p19
sS'cat'
p20
S'Fe'
p21
sS'tag'
p22
S'None'
p23
sS'T'
p24
I673
sS'oxidant'
p25
S'N2O'
p26
sS'dEa'
p27
NsS'catalysis'
p28
S'heterogeneous'
p29
sS'sel'
p30
F2.0
sba(iexpclass
expclass
p31
(dp32
g6
S'Sodalite'
p33
sg8
S'sodalite'
p34
sg10
S'gas'
p35
sg12
F0.038018939632056124
sg13
S'Durante'
p36
sg15
S'US4918249'
p37
sg17
F-1.42
sg18
S'yes'
p38
sg20
S'Fe'
p39
sg22
S'None'
p40
sg24
I670
sg25
S'O2'
p41
sg27
Nsg28
S'heterogeneous'
p42
sg30
F59.0
sba(iexpclass
expclass
p43
(dp44
g6
S'Sodalite'
p45
sg8
S'sodalite'
p46
sg10
S'gas'
p47
sg12
F0.04265795188015926
sg13
S'Durante'
p48
sg15
S'US4918249'
p49
sg17
F-1.37
sg18
S'yes'
p50
sg20
S'Fe'
p51
sg22
S'None'
p52
sg24
I675
sg25
S'O2'
p53
sg27
Nsg28
S'heterogeneous'
p54
sg30
F63.0
sba(iexpclass
expclass
p55
(dp56
g6
S'Sodalite'
p57
sg8
S'sodalite'
p58
sg10
S'gas'
p59
sg12
F0.04570881896148749
sg13
S'Durante'
p60
sg15
S'US4918249'
p61
sg17
F-1.34
sg18
S'yes'
p62
sg20
S'Fe'
p63
sg22
S'None'
p64
sg24
I680
sg25
S'O2'
p65
sg27
Nsg28
S'heterogeneous'
p66
sg30
F64.0
sba(iexpclass
expclass
p67
(dp68
g6
S'Sodalite'
p69
sg8
S'sodalite'
p70
sg10
S'gas'
p71
sg12
F0.054954087385762455
sg13
S'Durante'
p72
sg15
S'US4918249'
p73
sg17
F-1.26
sg18
S'yes'
p74
sg20
S'Fe'
p75
sg22
S'None'
p76
sg24
I686
sg25
S'O2'
p77
sg27
Nsg28
S'heterogeneous'
p78
sg30
F66.0
sba(iexpclass
expclass
p79
(dp80
g6
S'Sodalite'
p81
sg8
S'sodalite'
p82
sg10
S'gas'
p83
sg12
F0.05248074602497726
sg13
S'Durante'
p84
sg15
S'US4918249'
p85
sg17
F-1.28
sg18
S'yes'
p86
sg20
S'Fe'
p87
sg22
S'None'
p88
sg24
I687
sg25
S'O2'
p89
sg27
Nsg28
S'heterogeneous'
p90
sg30
F70.0
sba(iexpclass
expclass
p91
(dp92
g6
S'Sodalite'
p93
sg8
S'sodalite'
p94
sg10
S'gas'
p95
sg12
F0.057543993733715694
sg13
S'Durante'
p96
sg15
S'US4918249'
p97
sg17
F-1.24
sg18
S'yes'
p98
sg20
S'Fe'
p99
sg22
S'None'
p100
sg24
I689
sg25
S'O2'
p101
sg27
Nsg28
S'heterogeneous'
p102
sg30
F70.0
sba(iexpclass
expclass
p103
(dp104
g6
S'Sodalite'
p105
sg8
S'sodalite'
p106
sg10
S'gas'
p107
sg12
F0.05370317963702527
sg13
S'Durante'
p108
sg15
S'US4918249'
p109
sg17
F-1.27
sg18
S'yes'
p110
sg20
S'Fe'
p111
sg22
S'None'
p112
sg24
I691
sg25
S'O2'
p113
sg27
Nsg28
S'heterogeneous'
p114
sg30
F68.0
sba(iexpclass
expclass
p115
(dp116
g6
S'Sodalite'
p117
sg8
S'sodalite'
p118
sg10
S'gas'
p119
sg12
F0.05370317963702527
sg13
S'Durante'
p120
sg15
S'US4918249'
p121
sg17
F-1.27
sg18
S'yes'
p122
sg20
S'Fe'
p123
sg22
S'None'
p124
sg24
I695
sg25
S'O2'
p125
sg27
Nsg28
S'heterogeneous'
p126
sg30
F65.0
sba(iexpclass
expclass
p127
(dp128
g6
S'Sodalite'
p129
sg8
S'sodalite'
p130
sg10
S'gas'
p131
sg12
F0.05128613839913648
sg13
S'Durante'
p132
sg15
S'US4918249'
p133
sg17
F-1.29
sg18
S'yes'
p134
sg20
S'Fe'
p135
sg22
S'None'
p136
sg24
I700
sg25
S'O2'
p137
sg27
Nsg28
S'heterogeneous'
p138
sg30
F66.0
sba(iexpclass
expclass
p139
(dp140
g6
S'Sodalite'
p141
sg8
S'sodalite'
p142
sg10
S'gas'
p143
sg12
F0.054954087385762455
sg13
S'Durante'
p144
sg15
S'US4918249'
p145
sg17
F-1.26
sg18
S'yes'
p146
sg20
S'Fe'
p147
sg22
S'None'
p148
sg24
I705
sg25
S'O2'
p149
sg27
Nsg28
S'heterogeneous'
p150
sg30
F63.0
sba(iexpclass
expclass
p151
(dp152
g6
S'Sodalite'
p153
sg8
S'sodalite'
p154
sg10
S'gas'
p155
sg12
F0.06165950018614822
sg13
S'Durante'
p156
sg15
S'US4918249'
p157
sg17
F-1.21
sg18
S'yes'
p158
sg20
S'Fe'
p159
sg22
S'None'
p160
sg24
I715
sg25
S'O2'
p161
sg27
Nsg28
S'heterogeneous'
p162
sg30
F64.0
sba(iexpclass
expclass
p163
(dp164
g6
S'Sodalite'
p165
sg8
S'sodalite'
p166
sg10
S'gas'
p167
sg12
F0.05623413251903491
sg13
S'Durante'
p168
sg15
S'US4918249'
p169
sg17
F-1.25
sg18
S'yes'
p170
sg20
S'Fe'
p171
sg22
S'None'
p172
sg24
I725
sg25
S'O2'
p173
sg27
Nsg28
S'heterogeneous'
p174
sg30
F59.0
sba(iexpclass
expclass
p175
(dp176
g6
S'Sodalite'
p177
sg8
S'sodalite'
p178
sg10
S'gas'
p179
sg12
F0.057543993733715694
sg13
S'Durante'
p180
sg15
S'US4918249'
p181
sg17
F-1.24
sg18
S'yes'
p182
sg20
S'Fe'
p183
sg22
S'None'
p184
sg24
I735
sg25
S'O2'
p185
sg27
Nsg28
S'heterogeneous'
p186
sg30
F58.0
sba(iexpclass
expclass
p187
(dp188
g6
S'Sodalite'
p189
sg8
S'sodalite'
p190
sg10
S'gas'
p191
sg12
F0.0446683592150963
sg13
S'Durante'
p192
sg15
S'US4918249'
p193
sg17
F-1.35
sg18
S'yes'
p194
sg20
S'Fe'
p195
sg22
S'None'
p196
sg24
I692
sg25
S'O2'
p197
sg27
Nsg28
S'heterogeneous'
p198
sg30
F59.0
sba(iexpclass
expclass
p199
(dp200
g6
S'Sodalite'
p201
sg8
S'sodalite'
p202
sg10
S'gas'
p203
sg12
F0.05370317963702527
sg13
S'Durante'
p204
sg15
S'US4918249'
p205
sg17
F-1.27
sg18
S'yes'
p206
sg20
S'Fe'
p207
sg22
S'None'
p208
sg24
I698
sg25
S'O2'
p209
sg27
Nsg28
S'heterogeneous'
p210
sg30
F63.0
sba(iexpclass
expclass
p211
(dp212
g6
S'Sodalite'
p213
sg8
S'sodalite'
p214
sg10
S'gas'
p215
sg12
F0.057543993733715694
sg13
S'Durante'
p216
sg15
S'US4918249'
p217
sg17
F-1.24
sg18
S'yes'
p218
sg20
S'Fe'
p219
sg22
S'None'
p220
sg24
I703
sg25
S'O2'
p221
sg27
Nsg28
S'heterogeneous'
p222
sg30
F62.0
sba(iexpclass
expclass
p223
(dp224
g6
S'Sodalite'
p225
sg8
S'sodalite'
p226
sg10
S'gas'
p227
sg12
F0.05248074602497726
sg13
S'Durante'
p228
sg15
S'US4918249'
p229
sg17
F-1.28
sg18
S'yes'
p230
sg20
S'Fe'
p231
sg22
S'None'
p232
sg24
I713
sg25
S'O2'
p233
sg27
Nsg28
S'heterogeneous'
p234
sg30
F59.0
sba(iexpclass
expclass
p235
(dp236
g6
S'Sodalite'
p237
sg8
S'sodalite'
p238
sg10
S'gas'
p239
sg12
F0.039810717055349734
sg13
S'Durante'
p240
sg15
S'US4918249'
p241
sg17
F-1.4
sg18
S'yes'
p242
sg20
S'Fe'
p243
sg22
S'None'
p244
sg24
I703
sg25
S'O2'
p245
sg27
Nsg28
S'heterogeneous'
p246
sg30
F52.0
sba(iexpclass
expclass
p247
(dp248
g6
S'Sodalite'
p249
sg8
S'sodalite'
p250
sg10
S'gas'
p251
sg12
F0.04570881896148749
sg13
S'Durante'
p252
sg15
S'US4918249'
p253
sg17
F-1.34
sg18
S'yes'
p254
sg20
S'Fe'
p255
sg22
S'None'
p256
sg24
I711
sg25
S'O2'
p257
sg27
Nsg28
S'heterogeneous'
p258
sg30
F55.0
sba(iexpclass
expclass
p259
(dp260
g6
S'Sodalite'
p261
sg8
S'sodalite'
p262
sg10
S'gas'
p263
sg12
F0.04897788193684462
sg13
S'Durante'
p264
sg15
S'US4918249'
p265
sg17
F-1.31
sg18
S'yes'
p266
sg20
S'Fe'
p267
sg22
S'None'
p268
sg24
I717
sg25
S'O2'
p269
sg27
Nsg28
S'heterogeneous'
p270
sg30
F54.0
sba(iexpclass
expclass
p271
(dp272
g6
S'Sodalite'
p273
sg8
S'sodalite'
p274
sg10
S'gas'
p275
sg12
F0.023988329190194897
sg13
S'Durante'
p276
sg15
S'US4918249'
p277
sg17
F-1.62
sg18
S'yes'
p278
sg20
S'Fe'
p279
sg22
S'None'
p280
sg24
I710
sg25
S'O2'
p281
sg27
Nsg28
S'heterogeneous'
p282
sg30
F43.0
sba(iexpclass
expclass
p283
(dp284
g6
S'Sodalite'
p285
sg8
S'sodalite'
p286
sg10
S'gas'
p287
sg12
F0.030902954325135904
sg13
S'Durante'
p288
sg15
S'US4918249'
p289
sg17
F-1.51
sg18
S'yes'
p290
sg20
S'Fe'
p291
sg22
S'None'
p292
sg24
I722
sg25
S'O2'
p293
sg27
Nsg28
S'heterogeneous'
p294
sg30
F45.0
sba(iexpclass
expclass
p295
(dp296
g6
S'Sodalite'
p297
sg8
S'sodalite'
p298
sg10
S'gas'
p299
sg12
F0.034673685045253165
sg13
S'Durante'
p300
sg15
S'US4918249'
p301
sg17
F-1.46
sg18
S'yes'
p302
sg20
S'Fe'
p303
sg22
S'None'
p304
sg24
I724
sg25
S'O2'
p305
sg27
Nsg28
S'heterogeneous'
p306
sg30
F46.0
sba(iexpclass
expclass
p307
(dp308
g6
S'Sodalite'
p309
sg8
S'sodalite'
p310
sg10
S'gas'
p311
sg12
F0.03715352290971726
sg13
S'Durante'
p312
sg15
S'US4918249'
p313
sg17
F-1.43
sg18
S'yes'
p314
sg20
S'Fe'
p315
sg22
S'None'
p316
sg24
I728
sg25
S'O2'
p317
sg27
Nsg28
S'heterogeneous'
p318
sg30
F45.0
sba(iexpclass
expclass
p319
(dp320
g6
S'Sodalite'
p321
sg8
S'sodalite'
p322
sg10
S'gas'
p323
sg12
F0.03890451449942807
sg13
S'Durante'
p324
sg15
S'US4918249'
p325
sg17
F-1.41
sg18
S'yes'
p326
sg20
S'Fe'
p327
sg22
S'None'
p328
sg24
I732
sg25
S'O2'
p329
sg27
Nsg28
S'heterogeneous'
p330
sg30
F44.0
sba(iexpclass
expclass
p331
(dp332
g6
S'Sodalite'
p333
sg8
S'sodalite'
p334
sg10
S'gas'
p335
sg12
F0.015848931924611134
sg13
S'Durante'
p336
sg15
S'US4918249'
p337
sg17
F-1.8
sg18
S'yes'
p338
sg20
S'Fe'
p339
sg22
S'None'
p340
sg24
I726
sg25
S'O2'
p341
sg27
Nsg28
S'heterogeneous'
p342
sg30
F38.0
sba(iexpclass
expclass
p343
(dp344
g6
S'Sodalite'
p345
sg8
S'sodalite'
p346
sg10
S'gas'
p347
sg12
F0.025703957827688632
sg13
S'Durante'
p348
sg15
S'US4918249'
p349
sg17
F-1.59
sg18
S'yes'
p350
sg20
S'Fe'
p351
sg22
S'None'
p352
sg24
I739
sg25
S'O2'
p353
sg27
Nsg28
S'heterogeneous'
p354
sg30
F40.0
sba(iexpclass
expclass
p355
(dp356
g6
S'Sodalite'
p357
sg8
S'sodalite'
p358
sg10
S'gas'
p359
sg12
F0.057543993733715694
sg13
S'Durante'
p360
sg15
S'US4918249'
p361
sg17
F-1.24
sg18
S'yes'
p362
sg20
S'Fe'
p363
sg22
S'None'
p364
sg24
I701
sg25
S'O2'
p365
sg27
Nsg28
S'heterogeneous'
p366
sg30
F24.0
sba(iexpclass
expclass
p367
(dp368
g6
S'Sodalite'
p369
sg8
S'sodalite'
p370
sg10
S'gas'
p371
sg12
F0.057543993733715694
sg13
S'Durante'
p372
sg15
S'US4918249'
p373
sg17
F-1.24
sg18
S'yes'
p374
sg20
S'Fe'
p375
sg22
S'None'
p376
sg24
I707
sg25
S'O2'
p377
sg27
Nsg28
S'heterogeneous'
p378
sg30
F25.0
sba(iexpclass
expclass
p379
(dp380
g6
S'Sodalite'
p381
sg8
S'sodalite'
p382
sg10
S'gas'
p383
sg12
F0.05623413251903491
sg13
S'Durante'
p384
sg15
S'US4918249'
p385
sg17
F-1.25
sg18
S'yes'
p386
sg20
S'Fe'
p387
sg22
S'None'
p388
sg24
I712
sg25
S'O2'
p389
sg27
Nsg28
S'heterogeneous'
p390
sg30
F21.0
sba(iexpclass
expclass
p391
(dp392
g6
S'Oxide'
p393
sg8
S'SiO2'
p394
sg10
S'gas'
p395
sg12
F0.022908676527677734
sg13
S'Durante'
p396
sg15
S'US4918249'
p397
sg17
F-1.64
sg18
S'no'
p398
sg20
S'Fe'
p399
sg22
S'None'
p400
sg24
I712
sg25
S'O2'
p401
sg27
Nsg28
S'heterogeneous'
p402
sg30
F25.0
sba(iexpclass
expclass
p403
(dp404
g6
g7
sg8
S'ZSM-5'
p405
sg10
S'gas'
p406
sg12
F0.05128613839913648
sg13
S'Durante'
p407
sg15
S'US4918249'
p408
sg17
F-1.29
sg18
S'yes'
p409
sg20
S'Fe'
p410
sg22
S'None'
p411
sg24
I709
sg25
S'O2'
p412
sg27
Nsg28
S'heterogeneous'
p413
sg30
F18.0
sba(iexpclass
expclass
p414
(dp415
g6
S'Sodalite'
p416
sg8
S'sodalite'
p417
sg10
S'gas'
p418
sg12
F0.057543993733715694
sg13
S'Durante'
p419
sg15
S'US4918249'
p420
sg17
F-1.24
sg18
S'yes'
p421
sg20
S'Fe'
p422
sg22
S'None'
p423
sg24
I708
sg25
S'O2'
p424
sg27
Nsg28
S'heterogeneous'
p425
sg30
F25.0
sba(iexpclass
expclass
p426
(dp427
g6
S'Oxide'
p428
sg8
S'MO3/SiO2/Al2O3'
p429
sg10
S'gas'
p430
sg12
F0.022908676527677734
sg13
S'Durante'
p431
sg15
S'US4918249'
p432
sg17
F-1.64
sg18
S'no'
p433
sg20
S'Fe'
p434
sg22
S'None'
p435
sg24
I723
sg25
S'O2'
p436
sg27
Nsg28
S'heterogeneous'
p437
sg30
F47.0
sba(iexpclass
expclass
p438
(dp439
g6
S'Sodalite'
p440
sg8
S'Sodalite'
p441
sg10
S'gas'
p442
sg12
F0.04897788193684462
sg13
S'Durante'
p443
sg15
S'US4918249'
p444
sg17
F-1.31
sg18
S'yes'
p445
sg20
S'Fe'
p446
sg22
S'None'
p447
sg24
I717
sg25
S'O2'
p448
sg27
Nsg28
S'heterogeneous'
p449
sg30
F54.0
sba(iexpclass
expclass
p450
(dp451
g6
S'Oxide'
p452
sg8
S'glass-beads'
p453
sg10
S'gas'
p454
sg12
F0.001995262314968879
sg13
S'Durante'
p455
sg15
S'US4918249'
p456
sg17
F-2.7
sg18
S'no'
p457
sg20
S'Fe'
p458
sg22
S'None'
p459
sg24
I680
sg25
S'O2'
p460
sg27
Nsg28
S'heterogeneous'
p461
sg30
F47.0
sba(iexpclass
expclass
p462
(dp463
g6
S'Oxide'
p464
sg8
S'glass-beads'
p465
sg10
S'gas'
p466
sg12
F0.01412537544622754
sg13
S'Durante'
p467
sg15
S'US4918249'
p468
sg17
F-1.85
sg18
S'no'
p469
sg20
S'Fe'
p470
sg22
S'None'
p471
sg24
I691
sg25
S'O2'
p472
sg27
Nsg28
S'heterogeneous'
p473
sg30
F44.0
sba(iexpclass
expclass
p474
(dp475
g6
S'Oxide'
p476
sg8
S'glass-beads'
p477
sg10
S'gas'
p478
sg12
F0.025118864315095794
sg13
S'Durante'
p479
sg15
S'US4918249'
p480
sg17
F-1.6
sg18
S'no'
p481
sg20
S'Fe'
p482
sg22
S'None'
p483
sg24
I695
sg25
S'O2'
p484
sg27
Nsg28
S'heterogeneous'
p485
sg30
F56.0
sba(iexpclass
expclass
p486
(dp487
g6
S'Oxide'
p488
sg8
S'glass-beads'
p489
sg10
S'gas'
p490
sg12
F0.04265795188015926
sg13
S'Durante'
p491
sg15
S'US4918249'
p492
sg17
F-1.37
sg18
S'no'
p493
sg20
S'Fe'
p494
sg22
S'None'
p495
sg24
I703
sg25
S'O2'
p496
sg27
Nsg28
S'heterogeneous'
p497
sg30
F56.0
sba(iexpclass
expclass
p498
(dp499
g6
S'Sodalite'
p500
sg8
S'hydroxysodalite'
p501
sg10
S'gas'
p502
sg12
F0.003019951720402016
sg13
S'Durante'
p503
sg15
S'US4918249'
p504
sg17
F-2.52
sg18
S'yes'
p505
sg20
S'Fe'
p506
sg22
S'None'
p507
sg24
I708
sg25
S'O2'
p508
sg27
Nsg28
S'heterogeneous'
p509
sg30
F59.0
sba(iexpclass
expclass
p510
(dp511
g6
S'Sodalite'
p512
sg8
S'hydroxysodalite'
p513
sg10
S'gas'
p514
sg12
F0.05128613839913648
sg13
S'Durante'
p515
sg15
S'US4918249'
p516
sg17
F-1.29
sg18
S'yes'
p517
sg20
S'Fe'
p518
sg22
S'None'
p519
sg24
I718
sg25
S'O2'
p520
sg27
Nsg28
S'heterogeneous'
p521
sg30
F24.0
sba(iexpclass
expclass
p522
(dp523
g6
S'Sodalite'
p524
sg8
S'hydroxysodalite'
p525
sg10
S'gas'
p526
sg12
F0.05248074602497726
sg13
S'Durante'
p527
sg15
S'US4918249'
p528
sg17
F-1.28
sg18
S'yes'
p529
sg20
S'Fe'
p530
sg22
S'None'
p531
sg24
I707
sg25
S'O2'
p532
sg27
Nsg28
S'heterogeneous'
p533
sg30
F18.0
sba(iexpclass
expclass
p534
(dp535
g6
g7
sg8
S'ZSM-5'
p536
sg10
S'gas'
p537
sg12
F0.003890451449942805
sg13
S'Wang'
p538
sg15
S'10.1039/c39940002209'
p539
sg17
F-2.41
sg18
S'yes'
p540
sg20
S'Fe'
p541
sg22
S'None'
p542
sg24
I700
sg25
S'O2'
p543
sg27
Nsg28
S'heterogeneous'
p544
sg30
F0.0
sba(iexpclass
expclass
p545
(dp546
g6
g7
sg8
S'ZSM-5'
p547
sg10
S'gas'
p548
sg12
F0.009120108393559097
sg13
S'Wang'
p549
sg15
S'10.1039/c39940002209'
p550
sg17
F-2.04
sg18
S'yes'
p551
sg20
S'Fe'
p552
sg22
S'None'
p553
sg24
I700
sg25
S'O2'
p554
sg27
Nsg28
S'heterogeneous'
p555
sg30
F0.0
sba(iexpclass
expclass
p556
(dp557
g6
g7
sg8
S'ferrisilicate'
p558
sg10
S'gas'
p559
sg12
F0.003019951720402016
sg13
S'Wang'
p560
sg15
S'10.1039/c39940002209'
p561
sg17
F-2.52
sg18
S'yes'
p562
sg20
S'Fe'
p563
sg22
S'None'
p564
sg24
I700
sg25
S'O2'
p565
sg27
Nsg28
S'heterogeneous'
p566
sg30
F0.0
sba(iexpclass
expclass
p567
(dp568
g6
g7
sg8
S'ferrisilicate'
p569
sg10
S'gas'
p570
sg12
F0.01513561248436208
sg13
S'Wang'
p571
sg15
S'10.1039/c39940002209'
p572
sg17
F-1.82
sg18
S'yes'
p573
sg20
S'Fe'
p574
sg22
S'None'
p575
sg24
I700
sg25
S'O2'
p576
sg27
Nsg28
S'heterogeneous'
p577
sg30
F0.0
sba(iexpclass
expclass
p578
(dp579
g6
g7
sg8
S'FAPO-5'
p580
sg10
S'gas'
p581
sg12
F0.007943282347242814
sg13
S'Wang'
p582
sg15
S'10.1039/c39940002209'
p583
sg17
F-2.1
sg18
S'yes'
p584
sg20
S'Fe'
p585
sg22
S'None'
p586
sg24
I700
sg25
S'O2'
p587
sg27
Nsg28
S'heterogeneous'
p588
sg30
F0.0
sba(iexpclass
expclass
p589
(dp590
g6
g7
sg8
S'FAPO-5'
p591
sg10
S'gas'
p592
sg12
F0.014791083881682071
sg13
S'Wang'
p593
sg15
S'10.1039/c39940002209'
p594
sg17
F-1.83
sg18
S'yes'
p595
sg20
S'Fe'
p596
sg22
S'None'
p597
sg24
I700
sg25
S'O2'
p598
sg27
Nsg28
S'heterogeneous'
p599
sg30
F1.9
sba(iexpclass
expclass
p600
(dp601
g6
S'Phosphate'
p602
sg8
S'phosphate'
p603
sg10
S'gas'
p604
sg12
F0.0007943282347242813
sg13
S'Wang'
p605
sg15
S'10.1039/c39940002209'
p606
sg17
F-3.1
sg18
S'no'
p607
sg20
S'Fe'
p608
sg22
S'None'
p609
sg24
I700
sg25
S'O2'
p610
sg27
Nsg28
S'heterogeneous'
p611
sg30
F1.6
sba(iexpclass
expclass
p612
(dp613
g6
S'Phosphate'
p614
sg8
S'phosphate'
p615
sg10
S'gas'
p616
sg12
F0.0019054607179632462
sg13
S'Wang'
p617
sg15
S'10.1039/c39940002209'
p618
sg17
F-2.72
sg18
S'no'
p619
sg20
S'Fe'
p620
sg22
S'None'
p621
sg24
I700
sg25
S'O2'
p622
sg27
Nsg28
S'heterogeneous'
p623
sg30
F20.3
sba(iexpclass
expclass
p624
(dp625
g6
S'Phosphate'
p626
sg8
S'phosphate'
p627
sg10
S'gas'
p628
sg12
F0.005128613839913648
sg13
S'Wang'
p629
sg15
S'10.1039/c39940002209'
p630
sg17
F-2.29
sg18
S'no'
p631
sg20
S'Fe'
p632
sg22
S'None'
p633
sg24
I700
sg25
S'O2'
p634
sg27
Nsg28
S'heterogeneous'
p635
sg30
F25.7
sba(iexpclass
expclass
p636
(dp637
g6
S'Phosphate'
p638
sg8
S'FePO4/MCM-41/PO4'
p639
sg10
S'gas'
p640
sg12
F0.0005011872336272725
sg13
S'Wang'
p641
sg15
S'10.1016/S0021-9517(03)00077-0'
p642
sg17
F-3.3
sg18
S'yes'
p643
sg20
S'Fe'
p644
sg22
S'None'
p645
sg24
I673
sg25
S'N2O'
p646
sg27
Nsg28
S'heterogeneous'
p647
sg30
F0.0
sba(iexpclass
expclass
p648
(dp649
g6
S'Phosphate'
p650
sg8
S'FePO4/MCM-41/PO5'
p651
sg10
S'gas'
p652
sg12
F0.0010964781961431851
sg13
S'Wang'
p653
sg15
S'10.1016/S0021-9517(03)00077-0'
p654
sg17
F-2.96
sg18
S'yes'
p655
sg20
S'Fe'
p656
sg22
S'None'
p657
sg24
I723
sg25
S'N2O'
p658
sg27
Nsg28
S'heterogeneous'
p659
sg30
F0.0
sba(iexpclass
expclass
p660
(dp661
g6
S'Phosphate'
p662
sg8
S'FePO4/MCM-41/PO6'
p663
sg10
S'gas'
p664
sg12
F0.003019951720402016
sg13
S'Wang'
p665
sg15
S'10.1016/S0021-9517(03)00077-0'
p666
sg17
F-2.52
sg18
S'yes'
p667
sg20
S'Fe'
p668
sg22
S'None'
p669
sg24
I673
sg25
S'N2O'
p670
sg27
Nsg28
S'heterogeneous'
p671
sg30
F15.0
sba(iexpclass
expclass
p672
(dp673
g6
S'Phosphate'
p674
sg8
S'FePO4/MCM-41/PO7'
p675
sg10
S'gas'
p676
sg12
F0.01148153621496883
sg13
S'Wang'
p677
sg15
S'10.1016/S0021-9517(03)00077-0'
p678
sg17
F-1.94
sg18
S'yes'
p679
sg20
S'Fe'
p680
sg22
S'None'
p681
sg24
I723
sg25
S'N2O'
p682
sg27
Nsg28
S'heterogeneous'
p683
sg30
F15.1
sba(iexpclass
expclass
p684
(dp685
g6
S'Phosphate'
p686
sg8
S'FePO4/MCM-41/PO8'
p687
sg10
S'gas'
p688
sg12
F0.008317637711026709
sg13
S'Wang'
p689
sg15
S'10.1016/S0021-9517(03)00077-0'
p690
sg17
F-2.08
sg18
S'yes'
p691
sg20
S'Fe'
p692
sg22
S'None'
p693
sg24
I673
sg25
S'N2O'
p694
sg27
Nsg28
S'heterogeneous'
p695
sg30
F23.6
sba(iexpclass
expclass
p696
(dp697
g6
S'Phosphate'
p698
sg8
S'FePO4/MCM-41/PO9'
p699
sg10
S'gas'
p700
sg12
F0.023988329190194897
sg13
S'Wang'
p701
sg15
S'10.1016/S0021-9517(03)00077-0'
p702
sg17
F-1.62
sg18
S'yes'
p703
sg20
S'Fe'
p704
sg22
S'None'
p705
sg24
I723
sg25
S'N2O'
p706
sg27
Nsg28
S'heterogeneous'
p707
sg30
F20.5
sba(iexpclass
expclass
p708
(dp709
g6
S'Phosphate'
p710
sg8
S'FePO4/MCM-41/PO10'
p711
sg10
S'gas'
p712
sg12
F0.009772372209558112
sg13
S'Wang'
p713
sg15
S'10.1016/S0021-9517(03)00077-0'
p714
sg17
F-2.01
sg18
S'yes'
p715
sg20
S'Fe'
p716
sg22
S'None'
p717
sg24
I673
sg25
S'N2O'
p718
sg27
Nsg28
S'heterogeneous'
p719
sg30
F23.7
sba(iexpclass
expclass
p720
(dp721
g6
S'Phosphate'
p722
sg8
S'FePO4/MCM-41/PO11'
p723
sg10
S'gas'
p724
sg12
F0.03019951720402016
sg13
S'Wang'
p725
sg15
S'10.1016/S0021-9517(03)00077-0'
p726
sg17
F-1.52
sg18
S'yes'
p727
sg20
S'Fe'
p728
sg22
S'None'
p729
sg24
I723
sg25
S'N2O'
p730
sg27
Nsg28
S'heterogeneous'
p731
sg30
F17.3
sba(iexpclass
expclass
p732
(dp733
g6
S'Phosphate'
p734
sg8
S'FePO4/MCM-41/PO12'
p735
sg10
S'gas'
p736
sg12
F0.008709635899560805
sg13
S'Wang'
p737
sg15
S'10.1016/S0021-9517(03)00077-0'
p738
sg17
F-2.06
sg18
S'yes'
p739
sg20
S'Fe'
p740
sg22
S'None'
p741
sg24
I673
sg25
S'N2O'
p742
sg27
Nsg28
S'heterogeneous'
p743
sg30
F20.2
sba(iexpclass
expclass
p744
(dp745
g6
S'Phosphate'
p746
sg8
S'FePO4/MCM-41/PO13'
p747
sg10
S'gas'
p748
sg12
F0.033884415613920256
sg13
S'Wang'
p749
sg15
S'10.1016/S0021-9517(03)00077-0'
p750
sg17
F-1.47
sg18
S'yes'
p751
sg20
S'Fe'
p752
sg22
S'None'
p753
sg24
I723
sg25
S'N2O'
p754
sg27
Nsg28
S'heterogeneous'
p755
sg30
F15.8
sba(iexpclass
expclass
p756
(dp757
g6
S'Phosphate'
p758
sg8
S'FePO4/MCM-41/PO14'
p759
sg10
S'gas'
p760
sg12
F0.008709635899560805
sg13
S'Wang'
p761
sg15
S'10.1016/S0021-9517(03)00077-0'
p762
sg17
F-2.06
sg18
S'yes'
p763
sg20
S'Fe'
p764
sg22
S'None'
p765
sg24
I673
sg25
S'N2O'
p766
sg27
Nsg28
S'heterogeneous'
p767
sg30
F35.3
sba(iexpclass
expclass
p768
(dp769
g6
S'Phosphate'
p770
sg8
S'FePO4/MCM-41/PO15'
p771
sg10
S'gas'
p772
sg12
F0.0199526231496888
sg13
S'Wang'
p773
sg15
S'10.1016/S0021-9517(03)00077-0'
p774
sg17
F-1.7
sg18
S'yes'
p775
sg20
S'Fe'
p776
sg22
S'None'
p777
sg24
I723
sg25
S'N2O'
p778
sg27
Nsg28
S'heterogeneous'
p779
sg30
F32.9
sba(iexpclass
expclass
p780
(dp781
g6
S'Oxide'
p782
sg8
S'V2O5/silicate'
p783
sg10
S'gas'
p784
sg12
F0.0005011872336272725
sg13
S'Chen'
p785
sg15
S'10.1021/ie00016a002'
p786
sg17
F-3.3
sg18
S'no'
p787
sg20
S'V'
p788
sg22
S'None'
p789
sg24
I713
sg25
S'N2O'
p790
sg27
Nsg28
S'heterogeneous'
p791
sg30
F13.3
sba(iexpclass
expclass
p792
(dp793
g6
S'Oxide'
p794
sg8
S'V2O5/silicate'
p795
sg10
S'gas'
p796
sg12
F0.0012882495516931337
sg13
S'Chen'
p797
sg15
S'10.1021/ie00016a002'
p798
sg17
F-2.89
sg18
S'no'
p799
sg20
g788
sg22
S'None'
p800
sg24
I733
sg25
S'N2O'
p801
sg27
Nsg28
S'heterogeneous'
p802
sg30
F27.7
sba(iexpclass
expclass
p803
(dp804
g6
S'Oxide'
p805
sg8
S'V2O5/silicate'
p806
sg10
S'gas'
p807
sg12
F0.01148153621496883
sg13
S'Chen'
p808
sg15
S'10.1021/ie00016a002'
p809
sg17
F-1.94
sg18
S'no'
p810
sg20
g788
sg22
S'None'
p811
sg24
I763
sg25
S'N2O'
p812
sg27
Nsg28
S'heterogeneous'
p813
sg30
F10.1
sba(iexpclass
expclass
p814
(dp815
g6
S'Oxide'
p816
sg8
S'V2O5/silicate'
p817
sg10
S'gas'
p818
sg12
F0.000707945784384138
sg13
S'Chen'
p819
sg15
S'10.1021/ie00016a002'
p820
sg17
F-3.15
sg18
S'no'
p821
sg20
g788
sg22
S'None'
p822
sg24
I713
sg25
S'N2O'
p823
sg27
Nsg28
S'heterogeneous'
p824
sg30
F56.7
sba(iexpclass
expclass
p825
(dp826
g6
S'Oxide'
p827
sg8
S'V2O5/silicate'
p828
sg10
S'gas'
p829
sg12
F0.0028840315031266055
sg13
S'Chen'
p830
sg15
S'10.1021/ie00016a002'
p831
sg17
F-2.54
sg18
S'no'
p832
sg20
g788
sg22
S'None'
p833
sg24
I733
sg25
S'N2O'
p834
sg27
Nsg28
S'heterogeneous'
p835
sg30
F31.3
sba(iexpclass
expclass
p836
(dp837
g6
S'Oxide'
p838
sg8
S'V2O5/silicate'
p839
sg10
S'gas'
p840
sg12
F0.016982436524617443
sg13
S'Chen'
p841
sg15
S'10.1021/ie00016a002'
p842
sg17
F-1.77
sg18
S'no'
p843
sg20
g788
sg22
S'None'
p844
sg24
I763
sg25
S'N2O'
p845
sg27
Nsg28
S'heterogeneous'
p846
sg30
F10.2
sba(iexpclass
expclass
p847
(dp848
g6
S'Oxide'
p849
sg8
S'V2O5/silicate'
p850
sg10
S'gas'
p851
sg12
F0.002818382931264455
sg13
S'Chen'
p852
sg15
S'10.1021/ie00016a002'
p853
sg17
F-2.55
sg18
S'no'
p854
sg20
g788
sg22
S'None'
p855
sg24
I713
sg25
S'N2O'
p856
sg27
Nsg28
S'heterogeneous'
p857
sg30
F18.4
sba(iexpclass
expclass
p858
(dp859
g6
S'Oxide'
p860
sg8
S'V2O5/silicate'
p861
sg10
S'gas'
p862
sg12
F0.009120108393559097
sg13
S'Chen'
p863
sg15
S'10.1021/ie00016a002'
p864
sg17
F-2.04
sg18
S'no'
p865
sg20
g788
sg22
S'None'
p866
sg24
I733
sg25
S'N2O'
p867
sg27
Nsg28
S'heterogeneous'
p868
sg30
F8.7
sba(iexpclass
expclass
p869
(dp870
g6
S'Oxide'
p871
sg8
S'V2O5/silicate'
p872
sg10
S'gas'
p873
sg12
F0.046773514128719815
sg13
S'Chen'
p874
sg15
S'10.1021/ie00016a002'
p875
sg17
F-1.33
sg18
S'no'
p876
sg20
g788
sg22
S'None'
p877
sg24
I763
sg25
S'N2O'
p878
sg27
Nsg28
S'heterogeneous'
p879
sg30
F2.7
sba(iexpclass
expclass
p880
(dp881
g6
S'Oxide'
p882
sg8
S'V2O5/silicate'
p883
sg10
S'gas'
p884
sg12
F0.004897788193684461
sg13
S'Chen'
p885
sg15
S'10.1021/ie00016a002'
p886
sg17
F-2.31
sg18
S'no'
p887
sg20
g788
sg22
S'None'
p888
sg24
I713
sg25
S'N2O'
p889
sg27
Nsg28
S'heterogeneous'
p890
sg30
F6.8
sba(iexpclass
expclass
p891
(dp892
g6
S'Oxide'
p893
sg8
S'V2O5/silicate'
p894
sg10
S'gas'
p895
sg12
F0.01778279410038923
sg13
S'Chen'
p896
sg15
S'10.1021/ie00016a002'
p897
sg17
F-1.75
sg18
S'no'
p898
sg20
g788
sg22
S'None'
p899
sg24
I733
sg25
S'N2O'
p900
sg27
Nsg28
S'heterogeneous'
p901
sg30
F3.1
sba(iexpclass
expclass
p902
(dp903
g6
S'Oxide'
p904
sg8
S'V2O5/silicate'
p905
sg10
S'gas'
p906
sg12
F0.08709635899560805
sg13
S'Chen'
p907
sg15
S'10.1021/ie00016a002'
p908
sg17
F-1.06
sg18
S'no'
p909
sg20
g788
sg22
S'None'
p910
sg24
I763
sg25
S'N2O'
p911
sg27
Nsg28
S'heterogeneous'
p912
sg30
F0.2
sba(iexpclass
expclass
p913
(dp914
g6
g7
sg8
S'ZSM-5'
p915
sg10
S'gas'
p916
sg12
F0.11220184543019636
sg13
S'Michalkiewicz'
p917
sg15
S'10.1016/j.apcata.2004.09.005'
p918
sg17
F-0.95
sg18
S'yes'
p919
sg20
S'Fe'
p920
sg22
S'None'
p921
sg24
I903
sg25
S'O2'
p922
sg27
Nsg28
S'heterogeneous'
p923
sg30
F16.51
sba(iexpclass
expclass
p924
(dp925
g6
g7
sg8
S'ZSM-5'
p926
sg10
S'gas'
p927
sg12
F0.19054607179632474
sg13
S'Michalkiewicz'
p928
sg15
S'10.1016/j.apcata.2004.09.005'
p929
sg17
F-0.72
sg18
S'yes'
p930
sg20
S'Fe'
p931
sg22
S'None'
p932
sg24
I903
sg25
S'O2'
p933
sg27
Nsg28
S'heterogeneous'
p934
sg30
F14.17
sba(iexpclass
expclass
p935
(dp936
g6
g7
sg8
S'ZSM-5'
p937
sg10
S'gas'
p938
sg12
F0.31622776601683794
sg13
S'Michalkiewicz'
p939
sg15
S'10.1016/j.apcata.2004.09.005'
p940
sg17
F-0.5
sg18
S'yes'
p941
sg20
S'Fe'
p942
sg22
S'None'
p943
sg24
I903
sg25
S'O2'
p944
sg27
Nsg28
S'heterogeneous'
p945
sg30
F10.79
sba(iexpclass
expclass
p946
(dp947
g6
g7
sg8
S'ZSM-5'
p948
sg10
S'gas'
p949
sg12
F0.0006025595860743575
sg13
S'Michalkiewicz'
p950
sg15
S'10.1016/j.apcata.2004.09.005'
p951
sg17
F-3.22
sg18
S'yes'
p952
sg20
S'Fe'
p953
sg22
S'None'
p954
sg24
I623
sg25
S'O2'
p955
sg27
Nsg28
S'heterogeneous'
p956
sg30
F74.37
sba(iexpclass
expclass
p957
(dp958
g6
g7
sg8
S'ZSM-5'
p959
sg10
S'gas'
p960
sg12
F0.000707945784384138
sg13
S'Michalkiewicz'
p961
sg15
S'10.1016/j.apcata.2004.09.005'
p962
sg17
F-3.15
sg18
S'yes'
p963
sg20
S'Fe'
p964
sg22
S'None'
p965
sg24
I623
sg25
S'O2'
p966
sg27
Nsg28
S'heterogeneous'
p967
sg30
F69.13
sba(iexpclass
expclass
p968
(dp969
g6
g7
sg8
S'ZSM-5'
p970
sg10
S'gas'
p971
sg12
F0.001
sg13
S'Michalkiewicz'
p972
sg15
S'10.1016/j.apcata.2004.09.005'
p973
sg17
F-3.0
sg18
S'yes'
p974
sg20
S'Fe'
p975
sg22
S'None'
p976
sg24
I623
sg25
S'O2'
p977
sg27
Nsg28
S'heterogeneous'
p978
sg30
F63.47
sba(iexpclass
expclass
p979
(dp980
g6
S'Phosphate'
p981
sg8
S'pyrophosphate'
p982
sg10
S'gas'
p983
sg12
F0.030902954325135904
sg13
S'Polniser'
p984
sg15
S'10.1016/j.apcata.2011.04.022'
p985
sg17
F-1.51
sg18
S'no'
p986
sg20
S'Cu-Fe'
p987
sg22
S'None'
p988
sg24
I903
sg25
S'N2O'
p989
sg27
Nsg28
S'heterogeneous'
p990
sg30
F2.1
sba(iexpclass
expclass
p991
(dp992
g6
S'Phosphate'
p993
sg8
S'pyrophosphate'
p994
sg10
S'gas'
p995
sg12
F0.043651583224016584
sg13
S'Polniser'
p996
sg15
S'10.1016/j.apcata.2011.04.022'
p997
sg17
F-1.36
sg18
S'no'
p998
sg20
S'Cu-Fe'
p999
sg22
S'None'
p1000
sg24
I903
sg25
S'N2O'
p1001
sg27
Nsg28
S'heterogeneous'
p1002
sg30
F1.9
sba(iexpclass
expclass
p1003
(dp1004
g6
S'Phosphate'
p1005
sg8
S'pyrophosphate'
p1006
sg10
S'gas'
p1007
sg12
F0.0446683592150963
sg13
S'Polniser'
p1008
sg15
S'10.1016/j.apcata.2011.04.022'
p1009
sg17
F-1.35
sg18
S'no'
p1010
sg20
S'Cu-Fe'
p1011
sg22
S'None'
p1012
sg24
I903
sg25
S'N2O'
p1013
sg27
Nsg28
S'heterogeneous'
p1014
sg30
F2.5
sba(iexpclass
expclass
p1015
(dp1016
g6
S'Phosphate'
p1017
sg8
S'pyrophosphate'
p1018
sg10
S'gas'
p1019
sg12
F0.06456542290346556
sg13
S'Polniser'
p1020
sg15
S'10.1016/j.apcata.2011.04.022'
p1021
sg17
F-1.19
sg18
S'no'
p1022
sg20
S'Cu-Fe'
p1023
sg22
S'None'
p1024
sg24
I903
sg25
S'N2O'
p1025
sg27
Nsg28
S'heterogeneous'
p1026
sg30
F1.8
sba(iexpclass
expclass
p1027
(dp1028
g6
S'Phosphate'
p1029
sg8
S'pyrophosphate'
p1030
sg10
S'gas'
p1031
sg12
F0.06918309709189366
sg13
S'Polniser'
p1032
sg15
S'10.1016/j.apcata.2011.04.022'
p1033
sg17
F-1.16
sg18
S'no'
p1034
sg20
S'Cu-Fe'
p1035
sg22
S'None'
p1036
sg24
I903
sg25
S'N2O'
p1037
sg27
Nsg28
S'heterogeneous'
p1038
sg30
F1.2
sba(iexpclass
expclass
p1039
(dp1040
g6
S'Phosphate'
p1041
sg8
S'pyrophosphate'
p1042
sg10
S'gas'
p1043
sg12
F0.0446683592150963
sg13
S'Polniser'
p1044
sg15
S'10.1016/j.apcata.2011.04.022'
p1045
sg17
F-1.35
sg18
S'no'
p1046
sg20
S'Cu-Fe'
p1047
sg22
S'None'
p1048
sg24
I903
sg25
S'N2O'
p1049
sg27
Nsg28
S'heterogeneous'
p1050
sg30
F1.9
sba(iexpclass
expclass
p1051
(dp1052
g6
S'Phosphate'
p1053
sg8
S'pyrophosphate'
p1054
sg10
S'gas'
p1055
sg12
F0.047863009232263824
sg13
S'Polniser'
p1056
sg15
S'10.1016/j.apcata.2011.04.022'
p1057
sg17
F-1.32
sg18
S'no'
p1058
sg20
S'Cu-Fe'
p1059
sg22
S'None'
p1060
sg24
I903
sg25
S'N2O'
p1061
sg27
Nsg28
S'heterogeneous'
p1062
sg30
F2.6
sba(iexpclass
expclass
p1063
(dp1064
g6
S'Phosphate'
p1065
sg8
S'pyrophosphate'
p1066
sg10
S'gas'
p1067
sg12
F0.05128613839913648
sg13
S'Polniser'
p1068
sg15
S'10.1016/j.apcata.2011.04.022'
p1069
sg17
F-1.29
sg18
S'no'
p1070
sg20
S'Cu-Fe'
p1071
sg22
S'None'
p1072
sg24
I903
sg25
S'N2O'
p1073
sg27
Nsg28
S'heterogeneous'
p1074
sg30
F2.5
sba(iexpclass
expclass
p1075
(dp1076
g6
S'Phosphate'
p1077
sg8
S'pyrophosphate'
p1078
sg10
S'gas'
p1079
sg12
F0.05370317963702527
sg13
S'Polniser'
p1080
sg15
S'10.1016/j.apcata.2011.04.022'
p1081
sg17
F-1.27
sg18
S'no'
p1082
sg20
S'Cu-Fe'
p1083
sg22
S'None'
p1084
sg24
I903
sg25
S'N2O'
p1085
sg27
Nsg28
S'heterogeneous'
p1086
sg30
F2.3
sba(iexpclass
expclass
p1087
(dp1088
g6
S'Phosphate'
p1089
sg8
S'pyrophosphate'
p1090
sg10
S'gas'
p1091
sg12
F0.01513561248436208
sg13
S'Polniser'
p1092
sg15
S'10.1016/j.apcata.2011.04.022'
p1093
sg17
F-1.82
sg18
S'no'
p1094
sg20
S'Cu-Fe'
p1095
sg22
S'None'
p1096
sg24
I903
sg25
S'N2O'
p1097
sg27
Nsg28
S'heterogeneous'
p1098
sg30
F9.1
sba(iexpclass
expclass
p1099
(dp1100
g6
S'Phosphate'
p1101
sg8
S'pyrophosphate'
p1102
sg10
S'gas'
p1103
sg12
F0.012882495516931342
sg13
S'Polniser'
p1104
sg15
S'10.1016/j.apcata.2011.04.022'
p1105
sg17
F-1.89
sg18
S'no'
p1106
sg20
S'Cu-Fe'
p1107
sg22
S'None'
p1108
sg24
I903
sg25
S'N2O'
p1109
sg27
Nsg28
S'heterogeneous'
p1110
sg30
F10.1
sba(iexpclass
expclass
p1111
(dp1112
g6
S'Oxide'
p1113
sg8
S'MoO3'
p1114
sg10
S'gas'
p1115
sg12
F0.003019951720402016
sg13
S'Taylor'
p1116
sg15
S'10.1016/S0920-5861(98)00095-9'
p1117
sg17
F-2.52
sg18
S'no'
p1118
sg20
S'Mo'
p1119
sg22
S'None'
p1120
sg24
I723
sg25
S'O2'
p1121
sg27
Nsg28
S'heterogeneous'
p1122
sg30
F11.0
sba(iexpclass
expclass
p1123
(dp1124
g6
S'Oxide'
p1125
sg8
S'MoO3'
p1126
sg10
S'gas'
p1127
sg12
F0.012022644346174132
sg13
S'Taylor'
p1128
sg15
S'10.1016/S0920-5861(98)00095-9'
p1129
sg17
F-1.92
sg18
S'no'
p1130
sg20
S'Mo'
p1131
sg22
S'None'
p1132
sg24
I773
sg25
S'O2'
p1133
sg27
Nsg28
S'heterogeneous'
p1134
sg30
F0.0
sba(iexpclass
expclass
p1135
(dp1136
g6
S'Oxide'
p1137
sg8
S'MoO3'
p1138
sg10
S'gas'
p1139
sg12
F0.006025595860743574
sg13
S'Taylor'
p1140
sg15
S'10.1016/S0920-5861(98)00095-9'
p1141
sg17
F-2.22
sg18
S'no'
p1142
sg20
S'Cu'
p1143
sg22
S'None'
p1144
sg24
I723
sg25
S'O2'
p1145
sg27
Nsg28
S'heterogeneous'
p1146
sg30
F19.0
sba(iexpclass
expclass
p1147
(dp1148
g6
S'Oxide'
p1149
sg8
S'MoO3'
p1150
sg10
S'gas'
p1151
sg12
F0.04168693834703355
sg13
S'Taylor'
p1152
sg15
S'10.1016/S0920-5861(98)00095-9'
p1153
sg17
F-1.38
sg18
S'no'
p1154
sg20
S'Cu'
p1155
sg22
S'None'
p1156
sg24
I773
sg25
S'O2'
p1157
sg27
Nsg28
S'heterogeneous'
p1158
sg30
F0.0
sba(iexpclass
expclass
p1159
(dp1160
g6
S'Oxide'
p1161
sg8
S'MoO3'
p1162
sg10
S'gas'
p1163
sg12
F0.005011872336272725
sg13
S'Taylor'
p1164
sg15
S'10.1016/S0920-5861(98)00095-9'
p1165
sg17
F-2.3
sg18
S'no'
p1166
sg20
S'Co'
p1167
sg22
S'None'
p1168
sg24
I723
sg25
S'O2'
p1169
sg27
Nsg28
S'heterogeneous'
p1170
sg30
F14.0
sba(iexpclass
expclass
p1171
(dp1172
g6
S'Oxide'
p1173
sg8
S'MoO3'
p1174
sg10
S'gas'
p1175
sg12
F0.028840315031266057
sg13
S'Taylor'
p1176
sg15
S'10.1016/S0920-5861(98)00095-9'
p1177
sg17
F-1.54
sg18
S'no'
p1178
sg20
S'Co'
p1179
sg22
S'None'
p1180
sg24
I773
sg25
S'O2'
p1181
sg27
Nsg28
S'heterogeneous'
p1182
sg30
F0.0
sba(iexpclass
expclass
p1183
(dp1184
g6
S'Oxide'
p1185
sg8
S'MoO3'
p1186
sg10
S'gas'
p1187
sg12
F0.005011872336272725
sg13
S'Taylor'
p1188
sg15
S'10.1016/S0920-5861(98)00095-9'
p1189
sg17
F-2.3
sg18
S'no'
p1190
sg20
S'Fe'
p1191
sg22
S'None'
p1192
sg24
I723
sg25
S'O2'
p1193
sg27
Nsg28
S'heterogeneous'
p1194
sg30
F14.0
sba(iexpclass
expclass
p1195
(dp1196
g6
S'Oxide'
p1197
sg8
S'MoO3'
p1198
sg10
S'gas'
p1199
sg12
F0.03890451449942807
sg13
S'Taylor'
p1200
sg15
S'10.1016/S0920-5861(98)00095-9'
p1201
sg17
F-1.41
sg18
S'no'
p1202
sg20
S'Fe'
p1203
sg22
S'None'
p1204
sg24
I773
sg25
S'O2'
p1205
sg27
Nsg28
S'heterogeneous'
p1206
sg30
F0.0
sba(iexpclass
expclass
p1207
(dp1208
g6
S'Oxide'
p1209
sg8
S'MoO3'
p1210
sg10
S'gas'
p1211
sg12
F0.006025595860743574
sg13
S'Taylor'
p1212
sg15
S'10.1016/S0920-5861(98)00095-9'
p1213
sg17
F-2.22
sg18
S'no'
p1214
sg20
g788
sg22
S'None'
p1215
sg24
I723
sg25
S'O2'
p1216
sg27
Nsg28
S'heterogeneous'
p1217
sg30
F0.0
sba(iexpclass
expclass
p1218
(dp1219
g6
S'Oxide'
p1220
sg8
S'MoO3'
p1221
sg10
S'gas'
p1222
sg12
F0.006025595860743574
sg13
S'Taylor'
p1223
sg15
S'10.1016/S0920-5861(98)00095-9'
p1224
sg17
F-2.22
sg18
S'no'
p1225
sg20
g788
sg22
S'None'
p1226
sg24
I773
sg25
S'O2'
p1227
sg27
Nsg28
S'heterogeneous'
p1228
sg30
F0.0
sba(iexpclass
expclass
p1229
(dp1230
g6
S'Oxide'
p1231
sg8
S'MoO3'
p1232
sg10
S'gas'
p1233
sg12
F0.012882495516931342
sg13
S'Taylor'
p1234
sg15
S'10.1016/S0920-5861(98)00095-9'
p1235
sg17
F-1.89
sg18
S'no'
p1236
sg20
S'Ga'
p1237
sg22
S'None'
p1238
sg24
I723
sg25
S'O2'
p1239
sg27
Nsg28
S'heterogeneous'
p1240
sg30
F10.0
sba(iexpclass
expclass
p1241
(dp1242
g6
S'Oxide'
p1243
sg8
S'MoO3'
p1244
sg10
S'gas'
p1245
sg12
F0.03235936569296283
sg13
S'Taylor'
p1246
sg15
S'10.1016/S0920-5861(98)00095-9'
p1247
sg17
F-1.49
sg18
S'no'
p1248
sg20
S'Ga'
p1249
sg22
S'None'
p1250
sg24
I773
sg25
S'O2'
p1251
sg27
Nsg28
S'heterogeneous'
p1252
sg30
F0.0
sba(iexpclass
expclass
p1253
(dp1254
g6
S'Oxide'
p1255
sg8
S'WO3'
p1256
sg10
S'gas'
p1257
sg12
F0.005011872336272725
sg13
S'Taylor'
p1258
sg15
S'10.1016/S0920-5861(98)00095-9'
p1259
sg17
F-2.3
sg18
S'no'
p1260
sg20
S'W'
p1261
sg22
S'None'
p1262
sg24
I723
sg25
S'O2'
p1263
sg27
Nsg28
S'heterogeneous'
p1264
sg30
F6.0
sba(iexpclass
expclass
p1265
(dp1266
g6
S'Oxide'
p1267
sg8
S'WO3'
p1268
sg10
S'gas'
p1269
sg12
F0.003981071705534973
sg13
S'Taylor'
p1270
sg15
S'10.1016/S0920-5861(98)00095-9'
p1271
sg17
F-2.4
sg18
S'no'
p1272
sg20
g1261
sg22
S'None'
p1273
sg24
I773
sg25
S'O2'
p1274
sg27
Nsg28
S'heterogeneous'
p1275
sg30
F0.0
sba(iexpclass
expclass
p1276
(dp1277
g6
S'Oxide'
p1278
sg8
S'WO3'
p1279
sg10
S'gas'
p1280
sg12
F0.003019951720402016
sg13
S'Taylor'
p1281
sg15
S'10.1016/S0920-5861(98)00095-9'
p1282
sg17
F-2.52
sg18
S'no'
p1283
sg20
S'Cu'
p1284
sg22
S'None'
p1285
sg24
I723
sg25
S'O2'
p1286
sg27
Nsg28
S'heterogeneous'
p1287
sg30
F0.0
sba(iexpclass
expclass
p1288
(dp1289
g6
S'Oxide'
p1290
sg8
S'WO3'
p1291
sg10
S'gas'
p1292
sg12
F0.003981071705534973
sg13
S'Taylor'
p1293
sg15
S'10.1016/S0920-5861(98)00095-9'
p1294
sg17
F-2.4
sg18
S'no'
p1295
sg20
S'Cu'
p1296
sg22
S'None'
p1297
sg24
I773
sg25
S'O2'
p1298
sg27
Nsg28
S'heterogeneous'
p1299
sg30
F0.0
sba(iexpclass
expclass
p1300
(dp1301
g6
S'Oxide'
p1302
sg8
S'WO3'
p1303
sg10
S'gas'
p1304
sg12
F0.012022644346174132
sg13
S'Taylor'
p1305
sg15
S'10.1016/S0920-5861(98)00095-9'
p1306
sg17
F-1.92
sg18
S'no'
p1307
sg20
S'Co'
p1308
sg22
S'None'
p1309
sg24
I723
sg25
S'O2'
p1310
sg27
Nsg28
S'heterogeneous'
p1311
sg30
F0.0
sba(iexpclass
expclass
p1312
(dp1313
g6
S'Oxide'
p1314
sg8
S'WO3'
p1315
sg10
S'gas'
p1316
sg12
F0.003981071705534973
sg13
S'Taylor'
p1317
sg15
S'10.1016/S0920-5861(98)00095-9'
p1318
sg17
F-2.4
sg18
S'no'
p1319
sg20
S'Co'
p1320
sg22
S'None'
p1321
sg24
I773
sg25
S'O2'
p1322
sg27
Nsg28
S'heterogeneous'
p1323
sg30
F0.0
sba(iexpclass
expclass
p1324
(dp1325
g6
S'Oxide'
p1326
sg8
S'WO3'
p1327
sg10
S'gas'
p1328
sg12
F0.001995262314968879
sg13
S'Taylor'
p1329
sg15
S'10.1016/S0920-5861(98)00095-9'
p1330
sg17
F-2.7
sg18
S'no'
p1331
sg20
S'Fe'
p1332
sg22
S'None'
p1333
sg24
I723
sg25
S'O2'
p1334
sg27
Nsg28
S'heterogeneous'
p1335
sg30
F0.0
sba(iexpclass
expclass
p1336
(dp1337
g6
S'Oxide'
p1338
sg8
S'WO3'
p1339
sg10
S'gas'
p1340
sg12
F0.006025595860743574
sg13
S'Taylor'
p1341
sg15
S'10.1016/S0920-5861(98)00095-9'
p1342
sg17
F-2.22
sg18
S'no'
p1343
sg20
S'Fe'
p1344
sg22
S'None'
p1345
sg24
I773
sg25
S'O2'
p1346
sg27
Nsg28
S'heterogeneous'
p1347
sg30
F0.0
sba(iexpclass
expclass
p1348
(dp1349
g6
S'Oxide'
p1350
sg8
S'WO3'
p1351
sg10
S'gas'
p1352
sg12
F0.007943282347242814
sg13
S'Taylor'
p1353
sg15
S'10.1016/S0920-5861(98)00095-9'
p1354
sg17
F-2.1
sg18
S'no'
p1355
sg20
g788
sg22
S'None'
p1356
sg24
I723
sg25
S'O2'
p1357
sg27
Nsg28
S'heterogeneous'
p1358
sg30
F16.0
sba(iexpclass
expclass
p1359
(dp1360
g6
S'Oxide'
p1361
sg8
S'WO3'
p1362
sg10
S'gas'
p1363
sg12
F0.012022644346174132
sg13
S'Taylor'
p1364
sg15
S'10.1016/S0920-5861(98)00095-9'
p1365
sg17
F-1.92
sg18
S'no'
p1366
sg20
g788
sg22
S'None'
p1367
sg24
I773
sg25
S'O2'
p1368
sg27
Nsg28
S'heterogeneous'
p1369
sg30
F0.0
sba(iexpclass
expclass
p1370
(dp1371
g6
S'Oxide'
p1372
sg8
S'WO3'
p1373
sg10
S'gas'
p1374
sg12
F0.003981071705534973
sg13
S'Taylor'
p1375
sg15
S'10.1016/S0920-5861(98)00095-9'
p1376
sg17
F-2.4
sg18
S'no'
p1377
sg20
S'Ga'
p1378
sg22
S'None'
p1379
sg24
I723
sg25
S'O2'
p1380
sg27
Nsg28
S'heterogeneous'
p1381
sg30
F11.0
sba(iexpclass
expclass
p1382
(dp1383
g6
S'Oxide'
p1384
sg8
S'WO3'
p1385
sg10
S'gas'
p1386
sg12
F0.018197008586099836
sg13
S'Taylor'
p1387
sg15
S'10.1016/S0920-5861(98)00095-9'
p1388
sg17
F-1.74
sg18
S'no'
p1389
sg20
S'Ga'
p1390
sg22
S'None'
p1391
sg24
I773
sg25
S'O2'
p1392
sg27
Nsg28
S'heterogeneous'
p1393
sg30
F0.0
sba(iexpclass
expclass
p1394
(dp1395
g6
S'Oxide'
p1396
sg8
S'Ga2O3/MoO3'
p1397
sg10
S'gas'
p1398
sg12
F0.03019951720402016
sg13
S'Taylor'
p1399
sg15
S'10.1016/S0920-5861(98)00095-9'
p1400
sg17
F-1.52
sg18
S'no'
p1401
sg20
S'Ga'
p1402
sg22
S'None'
p1403
sg24
I723
sg25
S'O2'
p1404
sg27
Nsg28
S'heterogeneous'
p1405
sg30
F22.0
sba(iexpclass
expclass
p1406
(dp1407
g6
S'Oxide'
p1408
sg8
S'Ga2O3/MoO4'
p1409
sg10
S'gas'
p1410
sg12
F0.030902954325135904
sg13
S'Taylor'
p1411
sg15
S'10.1016/S0920-5861(98)00095-9'
p1412
sg17
F-1.51
sg18
S'no'
p1413
sg20
S'Ga'
p1414
sg22
S'None'
p1415
sg24
I773
sg25
S'O2'
p1416
sg27
Nsg28
S'heterogeneous'
p1417
sg30
F0.0
sba(iexpclass
expclass
p1418
(dp1419
g6
S'Oxide'
p1420
sg8
S'ZnO/MoO3'
p1421
sg10
S'gas'
p1422
sg12
F0.003981071705534973
sg13
S'Taylor'
p1423
sg15
S'10.1016/S0920-5861(98)00095-9'
p1424
sg17
F-2.4
sg18
S'no'
p1425
sg20
S'Zn'
p1426
sg22
S'None'
p1427
sg24
I728
sg25
S'O2'
p1428
sg27
Nsg28
S'heterogeneous'
p1429
sg30
F0.0
sba(iexpclass
expclass
p1430
(dp1431
g6
S'Oxide'
p1432
sg8
S'ZnO/MoO4'
p1433
sg10
S'gas'
p1434
sg12
F0.03630780547701014
sg13
S'Taylor'
p1435
sg15
S'10.1016/S0920-5861(98)00095-9'
p1436
sg17
F-1.44
sg18
S'no'
p1437
sg20
S'Zn'
p1438
sg22
S'None'
p1439
sg24
I773
sg25
S'O2'
p1440
sg27
Nsg28
S'heterogeneous'
p1441
sg30
F0.0
sba(iexpclass
expclass
p1442
(dp1443
g6
S'Oxide'
p1444
sg8
S'Ga2O3'
p1445
sg10
S'gas'
p1446
sg12
F0.01513561248436208
sg13
S'Taylor'
p1447
sg15
S'10.1016/S0920-5861(98)00095-9'
p1448
sg17
F-1.82
sg18
S'no'
p1449
sg20
S'Ga'
p1450
sg22
S'None'
p1451
sg24
I723
sg25
S'O2'
p1452
sg27
Nsg28
S'heterogeneous'
p1453
sg30
F3.0
sba(iexpclass
expclass
p1454
(dp1455
g6
S'Oxide'
p1456
sg8
S'Ga2O3'
p1457
sg10
S'gas'
p1458
sg12
F0.030902954325135904
sg13
S'Taylor'
p1459
sg15
S'10.1016/S0920-5861(98)00095-9'
p1460
sg17
F-1.51
sg18
S'no'
p1461
sg20
S'Ga'
p1462
sg22
S'None'
p1463
sg24
I773
sg25
S'O2'
p1464
sg27
Nsg28
S'heterogeneous'
p1465
sg30
F0.0
sba(iexpclass
expclass
p1466
(dp1467
g6
S'Gas-phase'
p1468
sg8
S'quartz-packing'
p1469
sg10
S'gas'
p1470
sg12
F0.003981071705534973
sg13
S'Taylor'
p1471
sg15
S'10.1016/S0920-5861(98)00095-9'
p1472
sg17
F-2.4
sg18
S'yes'
p1473
sg20
S'Gas-Phase(Radical)'
p1474
sg22
S'None'
p1475
sg24
I723
sg25
S'O2'
p1476
sg27
Nsg28
S'heterogeneous'
p1477
sg30
F0.0
sba(iexpclass
expclass
p1478
(dp1479
g6
S'Gas-phase'
p1480
sg8
S'quartz-packing'
p1481
sg10
S'gas'
p1482
sg12
F0.034673685045253165
sg13
S'Taylor'
p1483
sg15
S'10.1016/S0920-5861(98)00095-9'
p1484
sg17
F-1.46
sg18
S'yes'
p1485
sg20
g1474
sg22
S'None'
p1486
sg24
I748
sg25
S'O2'
p1487
sg27
Nsg28
S'heterogeneous'
p1488
sg30
F15.0
sba(iexpclass
expclass
p1489
(dp1490
g6
S'Gas-phase'
p1491
sg8
S'quartz-packing'
p1492
sg10
S'gas'
p1493
sg12
F0.034673685045253165
sg13
S'Taylor'
p1494
sg15
S'10.1016/S0920-5861(98)00095-9'
p1495
sg17
F-1.46
sg18
S'yes'
p1496
sg20
g1474
sg22
S'None'
p1497
sg24
I773
sg25
S'O2'
p1498
sg27
Nsg28
S'heterogeneous'
p1499
sg30
F15.0
sba(iexpclass
expclass
p1500
(dp1501
g6
S'Gas-phase'
p1502
sg8
S'quartz-packing'
p1503
sg10
S'gas'
p1504
sg12
F0.0812830516164099
sg13
S'Taylor'
p1505
sg15
S'10.1016/S0920-5861(98)00095-9'
p1506
sg17
F-1.09
sg18
S'yes'
p1507
sg20
g1474
sg22
S'None'
p1508
sg24
I723
sg25
S'O2'
p1509
sg27
Nsg28
S'heterogeneous'
p1510
sg30
F29.0
sba(iexpclass
expclass
p1511
(dp1512
g6
S'Gas-phase'
p1513
sg8
S'empty-tube'
p1514
sg10
S'gas'
p1515
sg12
F0.07943282347242814
sg13
S'Taylor'
p1516
sg15
S'10.1016/S0920-5861(98)00095-9'
p1517
sg17
F-1.1
sg18
S'yes'
p1518
sg20
g1474
sg22
S'None'
p1519
sg24
I773
sg25
S'O2'
p1520
sg27
Nsg28
S'heterogeneous'
p1521
sg30
F19.0
sba(iexpclass
expclass
p1522
(dp1523
g6
S'Phosphate'
p1524
sg8
S'FePO4/SiO2'
p1525
sg10
S'gas'
p1526
sg12
F0.015848931924611134
sg13
S'McCormick'
p1527
sg15
S'10.1016/S0920-5861(99)00243-6'
p1528
sg17
F-1.8
sg18
S'no'
p1529
sg20
S'Fe'
p1530
sg22
S'None'
p1531
sg24
I873
sg25
S'O2'
p1532
sg27
Nsg28
S'heterogeneous'
p1533
sg30
F2.0
sba(iexpclass
expclass
p1534
(dp1535
g6
S'Phosphate'
p1536
sg8
S'FePO4/SiO2'
p1537
sg10
S'gas'
p1538
sg12
F0.016982436524617443
sg13
S'McCormick'
p1539
sg15
S'10.1016/S0920-5861(99)00243-6'
p1540
sg17
F-1.77
sg18
S'no'
p1541
sg20
S'Fe'
p1542
sg22
S'None'
p1543
sg24
I873
sg25
S'O2'
p1544
sg27
Nsg28
S'heterogeneous'
p1545
sg30
F1.0
sba(iexpclass
expclass
p1546
(dp1547
g6
S'Phosphate'
p1548
sg8
S'FePO4/SiO2'
p1549
sg10
S'gas'
p1550
sg12
F0.00707945784384138
sg13
S'McCormick'
p1551
sg15
S'10.1016/S0920-5861(99)00243-6'
p1552
sg17
F-2.15
sg18
S'no'
p1553
sg20
S'Fe'
p1554
sg22
S'None'
p1555
sg24
I873
sg25
S'O2'
p1556
sg27
Nsg28
S'heterogeneous'
p1557
sg30
F5.75
sba(iexpclass
expclass
p1558
(dp1559
g6
S'Phosphate'
p1560
sg8
S'FePO4/SiO2'
p1561
sg10
S'gas'
p1562
sg12
F0.011220184543019636
sg13
S'McCormick'
p1563
sg15
S'10.1016/S0920-5861(99)00243-6'
p1564
sg17
F-1.95
sg18
S'no'
p1565
sg20
S'Fe'
p1566
sg22
S'None'
p1567
sg24
I873
sg25
S'O2'
p1568
sg27
Nsg28
S'heterogeneous'
p1569
sg30
F4.37
sba(iexpclass
expclass
p1570
(dp1571
g6
S'Phosphate'
p1572
sg8
S'FePO4/SiO2'
p1573
sg10
S'gas'
p1574
sg12
F0.018197008586099836
sg13
S'McCormick'
p1575
sg15
S'10.1016/S0920-5861(99)00243-6'
p1576
sg17
F-1.74
sg18
S'no'
p1577
sg20
S'Fe'
p1578
sg22
S'None'
p1579
sg24
I873
sg25
S'O2'
p1580
sg27
Nsg28
S'heterogeneous'
p1581
sg30
F1.78
sba(iexpclass
expclass
p1582
(dp1583
g6
S'Phosphate'
p1584
sg8
S'FePO4/SiO2'
p1585
sg10
S'gas'
p1586
sg12
F0.024547089156850298
sg13
S'McCormick'
p1587
sg15
S'10.1016/S0920-5861(99)00243-6'
p1588
sg17
F-1.61
sg18
S'no'
p1589
sg20
S'Fe'
p1590
sg22
S'None'
p1591
sg24
I873
sg25
S'O2'
p1592
sg27
Nsg28
S'heterogeneous'
p1593
sg30
F1.62
sba(iexpclass
expclass
p1594
(dp1595
g6
S'Phosphate'
p1596
sg8
S'FePO4/SiO2'
p1597
sg10
S'gas'
p1598
sg12
F0.030902954325135904
sg13
S'McCormick'
p1599
sg15
S'10.1016/S0920-5861(99)00243-6'
p1600
sg17
F-1.51
sg18
S'no'
p1601
sg20
S'Fe'
p1602
sg22
S'None'
p1603
sg24
I873
sg25
S'O2'
p1604
sg27
Nsg28
S'heterogeneous'
p1605
sg30
F1.29
sba(iexpclass
expclass
p1606
(dp1607
g6
S'Phosphate'
p1608
sg8
S'FePO4/SiO2'
p1609
sg10
S'gas'
p1610
sg12
F0.03311311214825911
sg13
S'McCormick'
p1611
sg15
S'10.1016/S0920-5861(99)00243-6'
p1612
sg17
F-1.48
sg18
S'no'
p1613
sg20
S'Fe'
p1614
sg22
S'None'
p1615
sg24
I873
sg25
S'O2'
p1616
sg27
Nsg28
S'heterogeneous'
p1617
sg30
F1.12
sba(iexpclass
expclass
p1618
(dp1619
g6
S'Oxide'
p1620
sg8
S'V2O5/silicate'
p1621
sg10
S'gas'
p1622
sg12
F0.03019951720402016
sg13
S'Berndt'
p1623
sg15
S'10.1006/jcat.1999.2786'
p1624
sg17
F-1.52
sg18
S'no'
p1625
sg20
g788
sg22
S'None'
p1626
sg24
I868
sg25
S'O2'
p1627
sg27
Nsg28
S'heterogeneous'
p1628
sg30
F0.7
sba(iexpclass
expclass
p1629
(dp1630
g6
S'Oxide'
p1631
sg8
S'V2O5/silicate'
p1632
sg10
S'gas'
p1633
sg12
F0.06606934480075961
sg13
S'Berndt'
p1634
sg15
S'10.1006/jcat.1999.2786'
p1635
sg17
F-1.18
sg18
S'no'
p1636
sg20
g788
sg22
S'None'
p1637
sg24
I897
sg25
S'O2'
p1638
sg27
Nsg28
S'heterogeneous'
p1639
sg30
F0.4
sba(iexpclass
expclass
p1640
(dp1641
g6
S'Oxide'
p1642
sg8
S'V2O5/silicate'
p1643
sg10
S'gas'
p1644
sg12
F0.0933254300796991
sg13
S'Berndt'
p1645
sg15
S'10.1006/jcat.1999.2786'
p1646
sg17
F-1.03
sg18
S'no'
p1647
sg20
g788
sg22
S'None'
p1648
sg24
I924
sg25
S'O2'
p1649
sg27
Nsg28
S'heterogeneous'
p1650
sg30
F0.3
sba(iexpclass
expclass
p1651
(dp1652
g6
S'Oxide'
p1653
sg8
S'V2O5/silicate'
p1654
sg10
S'gas'
p1655
sg12
F0.03235936569296283
sg13
S'Berndt'
p1656
sg15
S'10.1006/jcat.1999.2786'
p1657
sg17
F-1.49
sg18
S'no'
p1658
sg20
g788
sg22
S'None'
p1659
sg24
I868
sg25
S'O2'
p1660
sg27
Nsg28
S'heterogeneous'
p1661
sg30
F0.6
sba(iexpclass
expclass
p1662
(dp1663
g6
S'Oxide'
p1664
sg8
S'V2O5/silicate'
p1665
sg10
S'gas'
p1666
sg12
F0.05370317963702527
sg13
S'Berndt'
p1667
sg15
S'10.1006/jcat.1999.2786'
p1668
sg17
F-1.27
sg18
S'no'
p1669
sg20
g788
sg22
S'None'
p1670
sg24
I899
sg25
S'O2'
p1671
sg27
Nsg28
S'heterogeneous'
p1672
sg30
F0.2
sba(iexpclass
expclass
p1673
(dp1674
g6
S'Oxide'
p1675
sg8
S'V2O5/silicate'
p1676
sg10
S'gas'
p1677
sg12
F0.1
sg13
S'Berndt'
p1678
sg15
S'10.1006/jcat.1999.2786'
p1679
sg17
F-1.0
sg18
S'no'
p1680
sg20
g788
sg22
S'None'
p1681
sg24
I906
sg25
S'O2'
p1682
sg27
Nsg28
S'heterogeneous'
p1683
sg30
F2.0
sba(iexpclass
expclass
p1684
(dp1685
g6
S'Oxide'
p1686
sg8
S'V2O5/silicate'
p1687
sg10
S'gas'
p1688
sg12
F0.1096478196143185
sg13
S'Berndt'
p1689
sg15
S'10.1006/jcat.1999.2786'
p1690
sg17
F-0.96
sg18
S'no'
p1691
sg20
g788
sg22
S'None'
p1692
sg24
I929
sg25
S'O2'
p1693
sg27
Nsg28
S'heterogeneous'
p1694
sg30
F0.2
sba(iexpclass
expclass
p1695
(dp1696
g6
S'Oxide'
p1697
sg8
S'V2O5/silicate'
p1698
sg10
S'gas'
p1699
sg12
F0.03162277660168379
sg13
S'Fornes'
p1700
sg15
S'10.1016/S0926-860X(03)00226-6'
p1701
sg17
F-1.5
sg18
S'no'
p1702
sg20
g788
sg22
S'None'
p1703
sg24
I873
sg25
S'O2'
p1704
sg27
Nsg28
S'heterogeneous'
p1705
sg30
F0.2
sba(iexpclass
expclass
p1706
(dp1707
g6
S'Oxide'
p1708
sg8
S'V2O5/silicate'
p1709
sg10
S'gas'
p1710
sg12
F0.01412537544622754
sg13
S'Fornes'
p1711
sg15
S'10.1016/S0926-860X(03)00226-6'
p1712
sg17
F-1.85
sg18
S'no'
p1713
sg20
g788
sg22
S'None'
p1714
sg24
I873
sg25
S'O2'
p1715
sg27
Nsg28
S'heterogeneous'
p1716
sg30
F0.2
sba(iexpclass
expclass
p1717
(dp1718
g6
S'Oxide'
p1719
sg8
S'V2O5/silicate'
p1720
sg10
S'gas'
p1721
sg12
F0.009120108393559097
sg13
S'Fornes'
p1722
sg15
S'10.1016/S0926-860X(03)00226-6'
p1723
sg17
F-2.04
sg18
S'no'
p1724
sg20
g788
sg22
S'None'
p1725
sg24
I873
sg25
S'O2'
p1726
sg27
Nsg28
S'heterogeneous'
p1727
sg30
F0.4
sba(iexpclass
expclass
p1728
(dp1729
g6
S'Oxide'
p1730
sg8
S'V2O5/silicate'
p1731
sg10
S'gas'
p1732
sg12
F0.018197008586099836
sg13
S'Fornes'
p1733
sg15
S'10.1016/S0926-860X(03)00226-6'
p1734
sg17
F-1.74
sg18
S'no'
p1735
sg20
g788
sg22
S'None'
p1736
sg24
I873
sg25
S'O2'
p1737
sg27
Nsg28
S'heterogeneous'
p1738
sg30
F0.4
sba(iexpclass
expclass
p1739
(dp1740
g6
S'Oxide'
p1741
sg8
S'V2O5/silicate'
p1742
sg10
S'gas'
p1743
sg12
F0.011748975549395297
sg13
S'Fornes'
p1744
sg15
S'10.1016/S0926-860X(03)00226-6'
p1745
sg17
F-1.93
sg18
S'no'
p1746
sg20
g788
sg22
S'None'
p1747
sg24
I873
sg25
S'O2'
p1748
sg27
Nsg28
S'heterogeneous'
p1749
sg30
F0.5
sba(iexpclass
expclass
p1750
(dp1751
g6
S'Oxide'
p1752
sg8
S'V2O5/silicate'
p1753
sg10
S'gas'
p1754
sg12
F0.005754399373371567
sg13
S'Fornes'
p1755
sg15
S'10.1016/S0926-860X(03)00226-6'
p1756
sg17
F-2.24
sg18
S'no'
p1757
sg20
g788
sg22
S'None'
p1758
sg24
I873
sg25
S'O2'
p1759
sg27
Nsg28
S'heterogeneous'
p1760
sg30
F0.8
sba(iexpclass
expclass
p1761
(dp1762
g6
S'Oxide'
p1763
sg8
S'MoO3/silica'
p1764
sg10
S'gas'
p1765
sg12
F0.005754399373371567
sg13
S'Sugino'
p1766
sg15
S'10.1006/jcat.1999.2732'
p1767
sg17
F-2.24
sg18
S'no'
p1768
sg20
S'Mo'
p1769
sg22
S'None'
p1770
sg24
I773
sg25
S'O2'
p1771
sg27
Nsg28
S'heterogeneous'
p1772
sg30
F2.0
sba(iexpclass
expclass
p1773
(dp1774
g6
S'Oxide'
p1775
sg8
S'MoO3/silica'
p1776
sg10
S'gas'
p1777
sg12
F0.012022644346174132
sg13
S'Sugino'
p1778
sg15
S'10.1006/jcat.1999.2732'
p1779
sg17
F-1.92
sg18
S'no'
p1780
sg20
S'Mo'
p1781
sg22
S'None'
p1782
sg24
I823
sg25
S'O2'
p1783
sg27
Nsg28
S'heterogeneous'
p1784
sg30
F1.0
sba(iexpclass
expclass
p1785
(dp1786
g6
S'Oxide'
p1787
sg8
S'MoO3/silica'
p1788
sg10
S'gas'
p1789
sg12
F0.039810717055349734
sg13
S'Sugino'
p1790
sg15
S'10.1006/jcat.1999.2732'
p1791
sg17
F-1.4
sg18
S'no'
p1792
sg20
S'Mo'
p1793
sg22
S'None'
p1794
sg24
I873
sg25
S'O2'
p1795
sg27
Nsg28
S'heterogeneous'
p1796
sg30
F1.0
sba(iexpclass
expclass
p1797
(dp1798
g6
S'Oxide'
p1799
sg8
S'MoO3/silica'
p1800
sg10
S'gas'
p1801
sg12
F0.06606934480075961
sg13
S'Sugino'
p1802
sg15
S'10.1006/jcat.1999.2732'
p1803
sg17
F-1.18
sg18
S'no'
p1804
sg20
S'Mo'
p1805
sg22
S'None'
p1806
sg24
I923
sg25
S'O2'
p1807
sg27
Nsg28
S'heterogeneous'
p1808
sg30
F0.0
sba(iexpclass
expclass
p1809
(dp1810
g6
S'Oxide'
p1811
sg8
S'MoO3/silica'
p1812
sg10
S'gas'
p1813
sg12
F0.01
sg13
S'Sugino'
p1814
sg15
S'10.1006/jcat.1999.2732'
p1815
sg17
F-2.0
sg18
S'no'
p1816
sg20
S'Mo'
p1817
sg22
S'None'
p1818
sg24
I773
sg25
S'O2'
p1819
sg27
Nsg28
S'heterogeneous'
p1820
sg30
F13.0
sba(iexpclass
expclass
p1821
(dp1822
g6
S'Oxide'
p1823
sg8
S'MoO3/silica'
p1824
sg10
S'gas'
p1825
sg12
F0.028840315031266057
sg13
S'Sugino'
p1826
sg15
S'10.1006/jcat.1999.2732'
p1827
sg17
F-1.54
sg18
S'no'
p1828
sg20
S'Mo'
p1829
sg22
S'None'
p1830
sg24
I823
sg25
S'O2'
p1831
sg27
Nsg28
S'heterogeneous'
p1832
sg30
F8.0
sba(iexpclass
expclass
p1833
(dp1834
g6
S'Oxide'
p1835
sg8
S'MoO3/silica'
p1836
sg10
S'gas'
p1837
sg12
F0.0812830516164099
sg13
S'Sugino'
p1838
sg15
S'10.1006/jcat.1999.2732'
p1839
sg17
F-1.09
sg18
S'no'
p1840
sg20
S'Mo'
p1841
sg22
S'None'
p1842
sg24
I873
sg25
S'O2'
p1843
sg27
Nsg28
S'heterogeneous'
p1844
sg30
F11.0
sba(iexpclass
expclass
p1845
(dp1846
g6
S'Oxide'
p1847
sg8
S'MoO3/silica'
p1848
sg10
S'gas'
p1849
sg12
F0.12022644346174129
sg13
S'Sugino'
p1850
sg15
S'10.1006/jcat.1999.2732'
p1851
sg17
F-0.92
sg18
S'no'
p1852
sg20
S'Mo'
p1853
sg22
S'None'
p1854
sg24
I923
sg25
S'O2'
p1855
sg27
Nsg28
S'heterogeneous'
p1856
sg30
F4.0
sba(iexpclass
expclass
p1857
(dp1858
g6
S'Oxide'
p1859
sg8
S'MoO3-ZnO/alumina-silicate'
p1860
sg10
S'gas'
p1861
sg12
F0.022908676527677734
sg13
S'dowden'
p1862
sg15
S'GB1244001A'
p1863
sg17
F-1.64
sg18
S'no'
p1864
sg20
S'Mo'
p1865
sg22
S'None'
p1866
sg24
I766
sg25
S'O2'
p1867
sg27
Nsg28
S'heterogeneous'
p1868
sg30
F51.0
sba(iexpclass
expclass
p1869
(dp1870
g6
S'Oxide'
p1871
sg8
S'(MoO3)3-Fe2O3/alumina-silica'
p1872
sg10
S'gas'
p1873
sg12
F0.020892961308540396
sg13
S'dowden'
p1874
sg15
S'GB1244001A'
p1875
sg17
F-1.68
sg18
S'no'
p1876
sg20
S'Mo'
p1877
sg22
S'None'
p1878
sg24
I712
sg25
S'O2'
p1879
sg27
Nsg28
S'heterogeneous'
p1880
sg30
F65.0
sba(iexpclass
expclass
p1881
(dp1882
g6
S'Oxide'
p1883
sg8
S'MoO3-UO2/alumina-silica'
p1884
sg10
S'gas'
p1885
sg12
F0.034673685045253165
sg13
S'dowden'
p1886
sg15
S'GB1244001A'
p1887
sg17
F-1.46
sg18
S'no'
p1888
sg20
S'Mo'
p1889
sg22
S'None'
p1890
sg24
I743
sg25
S'O2'
p1891
sg27
Nsg28
S'heterogeneous'
p1892
sg30
F75.0
sba(iexpclass
expclass
p1893
(dp1894
g6
S'Oxide'
p1895
sg8
S'MoO3-VO2/alumina-silica'
p1896
sg10
S'gas'
p1897
sg12
F0.025703957827688632
sg13
S'dowden'
p1898
sg15
S'GB1244001A'
p1899
sg17
F-1.59
sg18
S'no'
p1900
sg20
S'Mo'
p1901
sg22
S'None'
p1902
sg24
I766
sg25
S'O2'
p1903
sg27
Nsg28
S'heterogeneous'
p1904
sg30
F49.0
sba(iexpclass
expclass
p1905
(dp1906
g6
S'Oxide'
p1907
sg8
S'MoO3/alumina-silica'
p1908
sg10
S'gas'
p1909
sg12
F0.022908676527677734
sg13
S'dowden'
p1910
sg15
S'GB1244001A'
p1911
sg17
F-1.64
sg18
S'no'
p1912
sg20
S'Mo'
p1913
sg22
S'None'
p1914
sg24
I733
sg25
S'O2'
p1915
sg27
Nsg28
S'heterogeneous'
p1916
sg30
F19.0
sba(iexpclass
expclass
p1917
(dp1918
g6
S'Oxide'
p1919
sg8
S'MoOx/La-Co-O'
p1920
sg10
S'gas'
p1921
sg12
F0.08912509381337455
sg13
S'Zhang'
p1922
sg15
S'10.1007/s11244-005-2894-5'
p1923
sg17
F-1.05
sg18
S'no'
p1924
sg20
S'Mo'
p1925
sg22
S'None'
p1926
sg24
I693
sg25
S'O2'
p1927
sg27
Nsg28
S'heterogeneous'
p1928
sg30
F28.8
sba(iexpclass
expclass
p1929
(dp1930
g6
S'Oxide'
p1931
sg8
S'MoOx/La-Co-O'
p1932
sg10
S'gas'
p1933
sg12
F0.11220184543019636
sg13
S'Zhang'
p1934
sg15
S'10.1007/s11244-005-2894-6'
p1935
sg17
F-0.95
sg18
S'no'
p1936
sg20
S'Mo'
p1937
sg22
S'None'
p1938
sg24
I693
sg25
S'O2'
p1939
sg27
Nsg28
S'heterogeneous'
p1940
sg30
F60.0
sba(iexpclass
expclass
p1941
(dp1942
g6
S'Oxide'
p1943
sg8
S'MoOx/La-Co-O'
p1944
sg10
S'gas'
p1945
sg12
F0.1148153621496883
sg13
S'Zhang'
p1946
sg15
S'10.1007/s11244-005-2894-7'
p1947
sg17
F-0.94
sg18
S'no'
p1948
sg20
S'Mo'
p1949
sg22
S'None'
p1950
sg24
I693
sg25
S'O2'
p1951
sg27
Nsg28
S'heterogeneous'
p1952
sg30
F33.2
sba(iexpclass
expclass
p1953
(dp1954
g6
S'Oxide'
p1955
sg8
S'Mo-V-Cr-Bi'
p1956
sg10
S'gas'
p1957
sg12
F0.1
sg13
S'Zhang'
p1958
sg15
S'10.1016/S1003-9953(08)60021-3'
p1959
sg17
F-1.0
sg18
S'no'
p1960
sg20
S'Mo'
p1961
sg22
S'None'
p1962
sg24
I753
sg25
S'O2'
p1963
sg27
Nsg28
S'heterogeneous'
p1964
sg30
F41.0
sba(iexpclass
expclass
p1965
(dp1966
g6
g7
sg8
S'SSZ-13'
p1967
sg10
S'gas'
p1968
sg12
F0.00015848931924611142
sg13
S'Lobo'
p1969
sg15
S'10.1039/C6CC07893A'
p1970
sg17
F-3.8
sg18
S'yes'
p1971
sg20
S'Cu'
p1972
sg22
S'None'
p1973
sg24
I523
sg25
S'N2O'
p1974
sg27
Nsg28
S'heterogeneous'
p1975
sg30
F24.0
sba(iexpclass
expclass
p1976
(dp1977
g6
g7
sg8
S'SSZ-13'
p1978
sg10
S'gas'
p1979
sg12
F0.00021877616239495518
sg13
S'Lobo'
p1980
sg15
S'10.1039/C6CC07893A'
p1981
sg17
F-3.66
sg18
S'yes'
p1982
sg20
S'Cu'
p1983
sg22
S'None'
p1984
sg24
I533
sg25
S'N2O'
p1985
sg27
Nsg28
S'heterogeneous'
p1986
sg30
F27.0
sba(iexpclass
expclass
p1987
(dp1988
g6
g7
sg8
S'SSZ-13'
p1989
sg10
S'gas'
p1990
sg12
F0.0003235936569296281
sg13
S'Lobo'
p1991
sg15
S'10.1039/C6CC07893A'
p1992
sg17
F-3.49
sg18
S'yes'
p1993
sg20
S'Cu'
p1994
sg22
S'None'
p1995
sg24
I538
sg25
S'N2O'
p1996
sg27
Nsg28
S'heterogeneous'
p1997
sg30
F20.7
sba(iexpclass
expclass
p1998
(dp1999
g6
g7
sg8
S'SSZ-13'
p2000
sg10
S'gas'
p2001
sg12
F0.0005495408738576248
sg13
S'Lobo'
p2002
sg15
S'10.1039/C6CC07893A'
p2003
sg17
F-3.26
sg18
S'yes'
p2004
sg20
S'Cu'
p2005
sg22
S'None'
p2006
sg24
I543
sg25
S'N2O'
p2007
sg27
Nsg28
S'heterogeneous'
p2008
sg30
F15.8
sba(iexpclass
expclass
p2009
(dp2010
g6
g7
sg8
S'SSZ-13'
p2011
sg10
S'gas'
p2012
sg12
F0.0009332543007969915
sg13
S'Lobo'
p2013
sg15
S'10.1039/C6CC07893A'
p2014
sg17
F-3.03
sg18
S'yes'
p2015
sg20
S'Cu'
p2016
sg22
S'None'
p2017
sg24
I548
sg25
S'N2O'
p2018
sg27
Nsg28
S'heterogeneous'
p2019
sg30
F11.4
sba(iexpclass
expclass
p2020
(dp2021
g6
g7
sg8
S'SSZ-13'
p2022
sg10
S'gas'
p2023
sg12
F0.007585775750291836
sg13
S'Lobo'
p2024
sg15
S'10.1039/C6CC07893A'
p2025
sg17
F-2.12
sg18
S'yes'
p2026
sg20
S'Cu'
p2027
sg22
S'None'
p2028
sg24
I573
sg25
S'N2O'
p2029
sg27
Nsg28
S'heterogeneous'
p2030
sg30
F2.3
sba(iexpclass
expclass
p2031
(dp2032
g6
g7
sg8
S'SSZ-13'
p2033
sg10
S'gas'
p2034
sg12
F0.001202264434617413
sg13
S'Lobo'
p2035
sg15
S'10.1039/C6CC07893A'
p2036
sg17
F-2.92
sg18
S'yes'
p2037
sg20
S'Cu'
p2038
sg22
S'None'
p2039
sg24
I573
sg25
S'N2O'
p2040
sg27
Nsg28
S'heterogeneous'
p2041
sg30
F12.5
sba(iexpclass
expclass
p2042
(dp2043
g6
g7
sg8
S'SSZ-13'
p2044
sg10
S'gas'
p2045
sg12
F0.0012882495516931337
sg13
S'Lobo'
p2046
sg15
S'10.1039/C6CC07893A'
p2047
sg17
F-2.89
sg18
S'yes'
p2048
sg20
S'Cu'
p2049
sg22
S'None'
p2050
sg24
I543
sg25
S'N2O'
p2051
sg27
Nsg28
S'heterogeneous'
p2052
sg30
F3.0
sba(iexpclass
expclass
p2053
(dp2054
g6
g7
sg8
S'SSZ-13'
p2055
sg10
S'gas'
p2056
sg12
F0.001202264434617413
sg13
S'Lobo'
p2057
sg15
S'10.1039/C6CC07893A'
p2058
sg17
F-2.92
sg18
S'yes'
p2059
sg20
S'Cu'
p2060
sg22
S'None'
p2061
sg24
I573
sg25
S'N2O'
p2062
sg27
Nsg28
S'heterogeneous'
p2063
sg30
F2.0
sba(iexpclass
expclass
p2064
(dp2065
g6
g7
sg8
S'SSZ-13'
p2066
sg10
S'gas'
p2067
sg12
F0.00021877616239495518
sg13
S'Lobo'
p2068
sg15
S'10.1039/C6CC07893A'
p2069
sg17
F-3.66
sg18
S'yes'
p2070
sg20
S'Cu'
p2071
sg22
S'None'
p2072
sg24
I543
sg25
S'N2O'
p2073
sg27
Nsg28
S'heterogeneous'
p2074
sg30
F39.7
sba(iexpclass
expclass
p2075
(dp2076
g6
g7
sg8
S'MOR'
p2077
sg10
S'gas'
p2078
sg12
F0.00012882495516931337
sg13
S'Lobo'
p2079
sg15
S'10.1039/C6CC07893A'
p2080
sg17
F-3.89
sg18
S'yes'
p2081
sg20
S'Cu'
p2082
sg22
S'None'
p2083
sg24
I543
sg25
S'N2O'
p2084
sg27
Nsg28
S'heterogeneous'
p2085
sg30
F24.0
sba(iexpclass
expclass
p2086
(dp2087
g6
g7
sg8
S'MOR'
p2088
sg10
S'gas'
p2089
sg12
F0.000630957344480193
sg13
S'Lobo'
p2090
sg15
S'10.1039/C6CC07893A'
p2091
sg17
F-3.2
sg18
S'yes'
p2092
sg20
S'Cu'
p2093
sg22
S'None'
p2094
sg24
I543
sg25
S'N2O'
p2095
sg27
Nsg28
S'heterogeneous'
p2096
sg30
F1.1
sba(iexpclass
expclass
p2097
(dp2098
g6
g7
sg8
S'ZSM-5'
p2099
sg10
S'gas'
p2100
sg12
F0.006760829753919818
sg13
S'Lobo'
p2101
sg15
S'10.1039/C6CC07893A'
p2102
sg17
F-2.17
sg18
S'yes'
p2103
sg20
S'Cu'
p2104
sg22
S'None'
p2105
sg24
I543
sg25
S'N2O'
p2106
sg27
Nsg28
S'heterogeneous'
p2107
sg30
F0.3
sba(iexpclass
expclass
p2108
(dp2109
g6
g7
sg8
S'ZSM-5'
p2110
sg10
S'gas'
p2111
sg12
F1e-05
sg13
S'Leshkov'
p2112
sg15
S'10.1021/acscentsci.6b00139'
p2113
sg17
F-5.0
sg18
S'yes'
p2114
sg20
S'Cu'
p2115
sg22
S'None'
p2116
sg24
I483
sg25
S'O2'
p2117
sg27
Nsg28
S'heterogeneous'
p2118
sg30
F71.0
sba(iexpclass
expclass
p2119
(dp2120
g6
g7
sg8
S'SSZ-13'
p2121
sg10
S'gas'
p2122
sg12
F0.001
sg13
S'Leshkov'
p2123
sg15
S'None'
p2124
sg17
F-3.0
sg18
S'yes'
p2125
sg20
S'Cu'
p2126
sg22
S'thesis'
p2127
sg24
I623
sg25
S'O2'
p2128
sg27
Nsg28
S'heterogeneous'
p2129
sg30
F90.0
sba(iexpclass
expclass
p2130
(dp2131
g6
g7
sg8
S'ZSM-5'
p2132
sg10
S'aqueous'
p2133
sg12
F0.003019951720402016
sg13
S'Hutchings'
p2134
sg15
S'10.1002/anie.201108706'
p2135
sg17
F-2.52
sg18
S'yes'
p2136
sg20
S'Cu'
p2137
sg22
S'None'
p2138
sg24
I323
sg25
S'H2O2'
p2139
sg27
Nsg28
S'heterogeneous'
p2140
sg30
F83.0
sba(iexpclass
expclass
p2141
(dp2142
g6
g7
sg8
S'Cu-Fe/ZSM-5'
p2143
sg10
S'aqueous'
p2144
sg12
F0.00707945784384138
sg13
S'Hutchings'
p2145
sg15
S'10.1002/anie.201108706'
p2146
sg17
F-2.15
sg18
S'yes'
p2147
sg20
S'Fe'
p2148
sg22
S'None'
p2149
sg24
I323
sg25
S'H2O2'
p2150
sg27
Nsg28
S'heterogeneous'
p2151
sg30
F85.0
sba(iexpclass
expclass
p2152
(dp2153
g6
g7
sg8
S'Cu-Fe/ZSM-5'
p2154
sg10
S'aqueous'
p2155
sg12
F0.005011872336272725
sg13
S'Hutchings'
p2156
sg15
S'10.1002/anie.201108706'
p2157
sg17
F-2.3
sg18
S'yes'
p2158
sg20
S'Fe'
p2159
sg22
S'None'
p2160
sg24
I323
sg25
S'H2O2'
p2161
sg27
Nsg28
S'heterogeneous'
p2162
sg30
F88.0
sba(iexpclass
expclass
p2163
(dp2164
g6
S'Silicalite'
p2165
sg8
S'Cu-Fe/silicalite'
p2166
sg10
S'aqueous'
p2167
sg12
F0.1
sg13
S'Hutchings'
p2168
sg15
S'10.1002/anie.201108706'
p2169
sg17
F-1.0
sg18
S'yes'
p2170
sg20
S'Fe'
p2171
sg22
S'None'
p2172
sg24
I323
sg25
S'H2O2'
p2173
sg27
Nsg28
S'heterogeneous'
p2174
sg30
F93.0
sba(iexpclass
expclass
p2175
(dp2176
g6
S'MMO'
p2177
sg8
S'MMO'
p2178
sg10
S'aqueous'
p2179
sg12
F0.01513561248436208
sg13
S'Dalton'
p2180
sg15
S'10.1042/bj1650395'
p2181
sg17
F-1.82
sg18
S'yes'
p2182
sg20
S'Fe'
p2183
sg22
S'enzyme'
p2184
sg24
I300
sg25
S'O2'
p2185
sg27
Nsg28
S'homogeneous'
p2186
sg30
F99.0
sba(iexpclass
expclass
p2187
(dp2188
g6
g7
sg8
S'ZSM-5'
p2189
sg10
S'gas'
p2190
sg12
F0.03630780547701014
sg13
S'Panov'
p2191
sg15
S'10.1016/j.jcat.2014.07.009'
p2192
sg17
F-1.44
sg18
S'yes'
p2193
sg20
S'Fe'
p2194
sg22
S'None'
p2195
sg24
I573
sg25
S'N2O'
p2196
sg27
Nsg28
S'heterogeneous'
p2197
sg30
F1.9
sba(iexpclass
expclass
p2198
(dp2199
g6
g7
sg8
S'ZSM-5'
p2200
sg10
S'gas'
p2201
sg12
F0.019054607179632473
sg13
S'Panov'
p2202
sg15
S'10.1016/j.jcat.2014.07.009'
p2203
sg17
F-1.72
sg18
S'yes'
p2204
sg20
S'Fe'
p2205
sg22
S'None'
p2206
sg24
I573
sg25
S'N2O'
p2207
sg27
Nsg28
S'heterogeneous'
p2208
sg30
F9.3
sba(iexpclass
expclass
p2209
(dp2210
g6
g7
sg8
S'ZSM-5'
p2211
sg10
S'gas'
p2212
sg12
F0.012882495516931342
sg13
S'Panov'
p2213
sg15
S'10.1016/j.jcat.2014.07.009'
p2214
sg17
F-1.89
sg18
S'yes'
p2215
sg20
S'Fe'
p2216
sg22
S'None'
p2217
sg24
I573
sg25
S'N2O'
p2218
sg27
Nsg28
S'heterogeneous'
p2219
sg30
F19.0
sba(iexpclass
expclass
p2220
(dp2221
g6
g7
sg8
S'ZSM-5'
p2222
sg10
S'gas'
p2223
sg12
F0.007585775750291836
sg13
S'Panov'
p2224
sg15
S'10.1016/j.jcat.2014.07.009'
p2225
sg17
F-2.12
sg18
S'yes'
p2226
sg20
S'Fe'
p2227
sg22
S'None'
p2228
sg24
I573
sg25
S'N2O'
p2229
sg27
Nsg28
S'heterogeneous'
p2230
sg30
F42.0
sba(iexpclass
expclass
p2231
(dp2232
g6
g7
sg8
S'ZSM-5'
p2233
sg10
S'gas'
p2234
sg12
F0.02187761623949553
sg13
S'Panov'
p2235
sg15
S'10.1016/j.jcat.2014.07.009'
p2236
sg17
F-1.66
sg18
S'yes'
p2237
sg20
S'Fe'
p2238
sg22
S'None'
p2239
sg24
I548
sg25
S'N2O'
p2240
sg27
Nsg28
S'heterogeneous'
p2241
sg30
F2.7
sba(iexpclass
expclass
p2242
(dp2243
g6
g7
sg8
S'ZSM-5'
p2244
sg10
S'gas'
p2245
sg12
F0.006456542290346556
sg13
S'Panov'
p2246
sg15
S'10.1016/j.jcat.2014.07.009'
p2247
sg17
F-2.19
sg18
S'yes'
p2248
sg20
S'Fe'
p2249
sg22
S'None'
p2250
sg24
I548
sg25
S'N2O'
p2251
sg27
Nsg28
S'heterogeneous'
p2252
sg30
F31.0
sba(iexpclass
expclass
p2253
(dp2254
g6
g7
sg8
S'ZSM-5'
p2255
sg10
S'gas'
p2256
sg12
F0.0026915348039269166
sg13
S'Panov'
p2257
sg15
S'10.1016/j.jcat.2014.07.009'
p2258
sg17
F-2.57
sg18
S'yes'
p2259
sg20
S'Fe'
p2260
sg22
S'None'
p2261
sg24
I548
sg25
S'N2O'
p2262
sg27
Nsg28
S'heterogeneous'
p2263
sg30
F57.0
sba(iexpclass
expclass
p2264
(dp2265
g6
g7
sg8
S'ZSM-5'
p2266
sg10
S'gas'
p2267
sg12
F0.0019054607179632462
sg13
S'Panov'
p2268
sg15
S'10.1016/j.jcat.2014.07.009'
p2269
sg17
F-2.72
sg18
S'yes'
p2270
sg20
S'Fe'
p2271
sg22
S'None'
p2272
sg24
I548
sg25
S'N2O'
p2273
sg27
Nsg28
S'heterogeneous'
p2274
sg30
F62.0
sba(iexpclass
expclass
p2275
(dp2276
g6
S'Phthalocyanine'
p2277
sg8
S'CuCl16Pc'
p2278
sg10
S'aqueous'
p2279
sg12
F0.047863009232263824
sg13
S'Raja'
p2280
sg15
S'10.1016/S0926-860X(97)00105-1'
p2281
sg17
F-1.32
sg18
S'yes'
p2282
sg20
S'Cu'
p2283
sg22
S'None'
p2284
sg24
I273
sg25
S'O2/TBHP'
p2285
sg27
Nsg28
S'homogeneous'
p2286
sg30
F40.2
sba(iexpclass
expclass
p2287
(dp2288
g6
S'Phthalocyanine'
p2289
sg8
S'CoCl16Pc'
p2290
sg10
S'aqueous'
p2291
sg12
F0.030902954325135904
sg13
S'Raja'
p2292
sg15
S'10.1016/S0926-860X(97)00105-2'
p2293
sg17
F-1.51
sg18
S'yes'
p2294
sg20
S'Co'
p2295
sg22
S'None'
p2296
sg24
I273
sg25
S'O2/TBHP'
p2297
sg27
Nsg28
S'homogeneous'
p2298
sg30
F10.2
sba(iexpclass
expclass
p2299
(dp2300
g6
S'Phthalocyanine'
p2301
sg8
S'FeCl16Pc'
p2302
sg10
S'aqueous'
p2303
sg12
F0.05248074602497726
sg13
S'Raja'
p2304
sg15
S'10.1016/S0926-860X(97)00105-3'
p2305
sg17
F-1.28
sg18
S'yes'
p2306
sg20
S'Fe'
p2307
sg22
S'None'
p2308
sg24
I273
sg25
S'O2/TBHP'
p2309
sg27
Nsg28
S'homogeneous'
p2310
sg30
F41.2
sba(iexpclass
expclass
p2311
(dp2312
g6
S'Phthalocyanine'
p2313
sg8
S'CuCl16Pc/FAU-X'
p2314
sg10
S'aqueous'
p2315
sg12
F0.04168693834703355
sg13
S'Raja'
p2316
sg15
S'10.1016/S0926-860X(97)00105-4'
p2317
sg17
F-1.38
sg18
S'yes'
p2318
sg20
S'Cu'
p2319
sg22
S'None'
p2320
sg24
I273
sg25
S'O2/TBHP'
p2321
sg27
Nsg28
S'heterogeneous'
p2322
sg30
F51.5
sba(iexpclass
expclass
p2323
(dp2324
g6
S'Phthalocyanine'
p2325
sg8
S'CuCl16Pc/FAU-Y'
p2326
sg10
S'aqueous'
p2327
sg12
F0.03890451449942807
sg13
S'Raja'
p2328
sg15
S'10.1016/S0926-860X(97)00105-5'
p2329
sg17
F-1.41
sg18
S'yes'
p2330
sg20
S'Cu'
p2331
sg22
S'None'
p2332
sg24
I273
sg25
S'O2/TBHP'
p2333
sg27
Nsg28
S'heterogeneous'
p2334
sg30
F53.5
sba(iexpclass
expclass
p2335
(dp2336
g6
S'Phthalocyanine'
p2337
sg8
S'CuCl16Pc/L'
p2338
sg10
S'aqueous'
p2339
sg12
F0.01096478196143185
sg13
S'Raja'
p2340
sg15
S'10.1016/S0926-860X(97)00105-6'
p2341
sg17
F-1.96
sg18
S'yes'
p2342
sg20
S'Cu'
p2343
sg22
S'None'
p2344
sg24
I273
sg25
S'O2/TBHP'
p2345
sg27
Nsg28
S'heterogeneous'
p2346
sg30
F10.7
sba(iexpclass
expclass
p2347
(dp2348
g6
S'Phthalocyanine'
p2349
sg8
S'CoCl16Pc/FAU-X'
p2350
sg10
S'aqueous'
p2351
sg12
F0.028183829312644536
sg13
S'Raja'
p2352
sg15
S'10.1016/S0926-860X(97)00105-7'
p2353
sg17
F-1.55
sg18
S'yes'
p2354
sg20
S'Co'
p2355
sg22
S'None'
p2356
sg24
I273
sg25
S'O2/TBHP'
p2357
sg27
Nsg28
S'heterogeneous'
p2358
sg30
F12.5
sba(iexpclass
expclass
p2359
(dp2360
g6
S'Phthalocyanine'
p2361
sg8
S'FeCl16Pc/FAU-X'
p2362
sg10
S'aqueous'
p2363
sg12
F0.04897788193684462
sg13
S'Raja'
p2364
sg15
S'10.1016/S0926-860X(97)00105-8'
p2365
sg17
F-1.31
sg18
S'yes'
p2366
sg20
S'Fe'
p2367
sg22
S'None'
p2368
sg24
I273
sg25
S'O2/TBHP'
p2369
sg27
Nsg28
S'heterogeneous'
p2370
sg30
F52.6
sba(iexpclass
expclass
p2371
(dp2372
g6
S'Oxide'
p2373
sg8
S'H4PV1Mo11O40'
p2374
sg10
S'aqueous'
p2375
sg12
F0.046773514128719815
sg13
S'Seki'
p2376
sg15
S'10.1021/jp000406y'
p2377
sg17
F-1.33
sg18
S'yes'
p2378
sg20
S'Mo'
p2379
sg22
S'None'
p2380
sg24
I353
sg25
S'H2O2'
p2381
sg27
Nsg28
S'homogeneous'
p2382
sg30
F1.0
sba(iexpclass
expclass
p2383
(dp2384
g6
S'Oxide'
p2385
sg8
S'H4PV1Mo11O40'
p2386
sg10
S'aqueous'
p2387
sg12
F0.0004365158322401661
sg13
S'Seki'
p2388
sg15
S'10.1021/jp000406y'
p2389
sg17
F-3.36
sg18
S'yes'
p2390
sg20
S'Mo'
p2391
sg22
S'None'
p2392
sg24
I353
sg25
S'H2O2'
p2393
sg27
Nsg28
S'homogeneous'
p2394
sg30
F99.12
sba(iexpclass
expclass
p2395
(dp2396
g6
S'Oxide'
p2397
sg8
S'H4PV1Mo11O40'
p2398
sg10
S'aqueous'
p2399
sg12
F0.009120108393559097
sg13
S'Seki'
p2400
sg15
S'10.1021/jp000406y'
p2401
sg17
F-2.04
sg18
S'yes'
p2402
sg20
S'Mo'
p2403
sg22
S'None'
p2404
sg24
I353
sg25
S'H2O2'
p2405
sg27
Nsg28
S'homogeneous'
p2406
sg30
F44.79
sba(iexpclass
expclass
p2407
(dp2408
g6
S'Oxide'
p2409
sg8
S'H4PV1Mo11O40'
p2410
sg10
S'aqueous'
p2411
sg12
F0.0162181009735893
sg13
S'Seki'
p2412
sg15
S'10.1021/jp000406y'
p2413
sg17
F-1.79
sg18
S'yes'
p2414
sg20
S'Mo'
p2415
sg22
S'None'
p2416
sg24
I353
sg25
S'H2O2'
p2417
sg27
Nsg28
S'homogeneous'
p2418
sg30
F23.2
sba(iexpclass
expclass
p2419
(dp2420
g6
S'Oxide'
p2421
sg8
S'H4PV1Mo11O40'
p2422
sg10
S'aqueous'
p2423
sg12
F0.019054607179632473
sg13
S'Seki'
p2424
sg15
S'10.1021/jp000406y'
p2425
sg17
F-1.72
sg18
S'yes'
p2426
sg20
S'Mo'
p2427
sg22
S'None'
p2428
sg24
I353
sg25
S'H2O2'
p2429
sg27
Nsg28
S'homogeneous'
p2430
sg30
F18.21
sba(iexpclass
expclass
p2431
(dp2432
g6
S'Oxide'
p2433
sg8
S'H4PV1Mo11O40'
p2434
sg10
S'aqueous'
p2435
sg12
F0.02187761623949553
sg13
S'Seki'
p2436
sg15
S'10.1021/jp000406y'
p2437
sg17
F-1.66
sg18
S'yes'
p2438
sg20
S'Mo'
p2439
sg22
S'None'
p2440
sg24
I353
sg25
S'H2O2'
p2441
sg27
Nsg28
S'homogeneous'
p2442
sg30
F14.54
sba(iexpclass
expclass
p2443
(dp2444
g6
S'Oxide'
p2445
sg8
S'H4PV1Mo11O40'
p2446
sg10
S'aqueous'
p2447
sg12
F0.025703957827688632
sg13
S'Seki'
p2448
sg15
S'10.1021/jp000406y'
p2449
sg17
F-1.59
sg18
S'yes'
p2450
sg20
S'Mo'
p2451
sg22
S'None'
p2452
sg24
I353
sg25
S'H2O2'
p2453
sg27
Nsg28
S'homogeneous'
p2454
sg30
F11.89
sba(iexpclass
expclass
p2455
(dp2456
g6
S'Phosphate'
p2457
sg8
S'APO-5'
p2458
sg10
S'gas'
p2459
sg12
F0.01513561248436208
sg13
S'Wang'
p2460
sg15
S'10.1006/jcat.1995.1208'
p2461
sg17
F-1.82
sg18
S'yes'
p2462
sg20
S'Fe'
p2463
sg22
S'None'
p2464
sg24
I673
sg25
S'O2/H2'
p2465
sg27
Nsg28
S'heterogeneous'
p2466
sg30
F2.5
sba(iexpclass
expclass
p2467
(dp2468
g6
S'Phosphate'
p2469
sg8
S'PO4'
p2470
sg10
S'gas'
p2471
sg12
F0.0025118864315095794
sg13
S'Wang'
p2472
sg15
S'10.1006/jcat.1995.1208'
p2473
sg17
F-2.6
sg18
S'yes'
p2474
sg20
S'Fe'
p2475
sg22
S'None'
p2476
sg24
I673
sg25
S'O2/H2'
p2477
sg27
Nsg28
S'heterogeneous'
p2478
sg30
F21.0
sba(iexpclass
expclass
p2479
(dp2480
g6
S'Phosphate'
p2481
sg8
S'PO4'
p2482
sg10
S'gas'
p2483
sg12
F0.006025595860743574
sg13
S'Wang'
p2484
sg15
S'10.1006/jcat.1995.1208'
p2485
sg17
F-2.22
sg18
S'yes'
p2486
sg20
S'Fe'
p2487
sg22
S'None'
p2488
sg24
I673
sg25
S'O2/H2'
p2489
sg27
Nsg28
S'heterogeneous'
p2490
sg30
F24.0
sba(iexpclass
expclass
p2491
(dp2492
g6
S'Phosphate'
p2493
sg8
S'PO4'
p2494
sg10
S'gas'
p2495
sg12
F0.00015848931924611142
sg13
S'Wang'
p2496
sg15
S'10.1006/jcat.1995.1208'
p2497
sg17
F-3.8
sg18
S'yes'
p2498
sg20
S'Fe'
p2499
sg22
S'None'
p2500
sg24
I633
sg25
S'O2/H2'
p2501
sg27
Nsg28
S'heterogeneous'
p2502
sg30
F77.92
sba(iexpclass
expclass
p2503
(dp2504
g6
S'Phosphate'
p2505
sg8
S'PO4'
p2506
sg10
S'gas'
p2507
sg12
F0.0003467368504525317
sg13
S'Wang'
p2508
sg15
S'10.1006/jcat.1995.1208'
p2509
sg17
F-3.46
sg18
S'yes'
p2510
sg20
S'Fe'
p2511
sg22
S'None'
p2512
sg24
I648
sg25
S'O2/H2'
p2513
sg27
Nsg28
S'heterogeneous'
p2514
sg30
F67.16
sba(iexpclass
expclass
p2515
(dp2516
g6
S'Phosphate'
p2517
sg8
S'PO4'
p2518
sg10
S'gas'
p2519
sg12
F0.0020417379446695297
sg13
S'Wang'
p2520
sg15
S'10.1006/jcat.1995.1208'
p2521
sg17
F-2.69
sg18
S'yes'
p2522
sg20
S'Fe'
p2523
sg22
S'None'
p2524
sg24
I690
sg25
S'O2/H2'
p2525
sg27
Nsg28
S'heterogeneous'
p2526
sg30
F34.85
sba(iexpclass
expclass
p2527
(dp2528
g6
S'Phosphate'
p2529
sg8
S'PO4'
p2530
sg10
S'gas'
p2531
sg12
F0.005370317963702527
sg13
S'Wang'
p2532
sg15
S'10.1006/jcat.1995.1208'
p2533
sg17
F-2.27
sg18
S'yes'
p2534
sg20
S'Fe'
p2535
sg22
S'None'
p2536
sg24
I710
sg25
S'O2/H2'
p2537
sg27
Nsg28
S'heterogeneous'
p2538
sg30
F25.54
sba(iexpclass
expclass
p2539
(dp2540
g6
S'Phosphate'
p2541
sg8
S'PO4'
p2542
sg10
S'gas'
p2543
sg12
F0.008709635899560805
sg13
S'Wang'
p2544
sg15
S'10.1006/jcat.1995.1208'
p2545
sg17
F-2.06
sg18
S'yes'
p2546
sg20
S'Fe'
p2547
sg22
S'None'
p2548
sg24
I717
sg25
S'O2/H2'
p2549
sg27
Nsg28
S'heterogeneous'
p2550
sg30
F20.86
sba(iexpclass
expclass
p2551
(dp2552
g6
S'Phosphate'
p2553
sg8
S'PO4'
p2554
sg10
S'gas'
p2555
sg12
F0.01096478196143185
sg13
S'Wang'
p2556
sg15
S'10.1006/jcat.1995.1208'
p2557
sg17
F-1.96
sg18
S'yes'
p2558
sg20
S'Fe'
p2559
sg22
S'None'
p2560
sg24
I723
sg25
S'O2/H2'
p2561
sg27
Nsg28
S'heterogeneous'
p2562
sg30
F18.6
sba(iexpclass
expclass
p2563
(dp2564
g6
S'Phosphate'
p2565
sg8
S'PO4'
p2566
sg10
S'gas'
p2567
sg12
F0.0007585775750291835
sg13
S'Wang'
p2568
sg15
S'10.1006/jcat.1995.1208'
p2569
sg17
F-3.12
sg18
S'yes'
p2570
sg20
S'Fe'
p2571
sg22
S'None'
p2572
sg24
I666
sg25
S'O2/H2'
p2573
sg27
Nsg28
S'heterogeneous'
p2574
sg30
F49.53
sba(iexpclass
expclass
p2575
(dp2576
g6
S'Phosphate'
p2577
sg8
S'PO4'
p2578
sg10
S'gas'
p2579
sg12
F0.0010232929922807535
sg13
S'Wang'
p2580
sg15
S'10.1039/Ft9959103953'
p2581
sg17
F-2.99
sg18
S'no'
p2582
sg20
S'Fe'
p2583
sg22
S'None'
p2584
sg24
I625
sg25
S'N2O'
p2585
sg27
Nsg28
S'heterogeneous'
p2586
sg30
F80.01
sba(iexpclass
expclass
p2587
(dp2588
g6
S'Phosphate'
p2589
sg8
S'PO4'
p2590
sg10
S'gas'
p2591
sg12
F0.002187761623949552
sg13
S'Wang'
p2592
sg15
S'10.1039/Ft9959103953'
p2593
sg17
F-2.66
sg18
S'no'
p2594
sg20
S'Fe'
p2595
sg22
S'None'
p2596
sg24
I650
sg25
S'N2O'
p2597
sg27
Nsg28
S'heterogeneous'
p2598
sg30
F64.5
sba(iexpclass
expclass
p2599
(dp2600
g6
S'Phosphate'
p2601
sg8
S'PO4'
p2602
sg10
S'gas'
p2603
sg12
F0.007585775750291836
sg13
S'Wang'
p2604
sg15
S'10.1039/Ft9959103953'
p2605
sg17
F-2.12
sg18
S'no'
p2606
sg20
S'Fe'
p2607
sg22
S'None'
p2608
sg24
I674
sg25
S'N2O'
p2609
sg27
Nsg28
S'heterogeneous'
p2610
sg30
F40.03
sba(iexpclass
expclass
p2611
(dp2612
g6
S'Phosphate'
p2613
sg8
S'PO4'
p2614
sg10
S'gas'
p2615
sg12
F0.021379620895022326
sg13
S'Wang'
p2616
sg15
S'10.1039/Ft9959103953'
p2617
sg17
F-1.67
sg18
S'no'
p2618
sg20
S'Fe'
p2619
sg22
S'None'
p2620
sg24
I699
sg25
S'N2O'
p2621
sg27
Nsg28
S'heterogeneous'
p2622
sg30
F25.0
sba(iexpclass
expclass
p2623
(dp2624
g6
S'Phosphate'
p2625
sg8
S'PO4'
p2626
sg10
S'gas'
p2627
sg12
F0.06760829753919818
sg13
S'Wang'
p2628
sg15
S'10.1039/Ft9959103953'
p2629
sg17
F-1.17
sg18
S'yes'
p2630
sg20
S'Fe'
p2631
sg22
S'None'
p2632
sg24
I723
sg25
S'N2O'
p2633
sg27
Nsg28
S'heterogeneous'
p2634
sg30
F16.82
sba(iexpclass
expclass
p2635
(dp2636
g6
S'Phosphate'
p2637
sg8
S'PO4'
p2638
sg10
S'gas'
p2639
sg12
F0.0022908676527677724
sg13
S'Wang'
p2640
sg15
S'10.1039/Ft9959103953'
p2641
sg17
F-2.64
sg18
S'yes'
p2642
sg20
S'Fe'
p2643
sg22
S'None'
p2644
sg24
I648
sg25
S'N2O'
p2645
sg27
Nsg28
S'heterogeneous'
p2646
sg30
F52.09
sba(iexpclass
expclass
p2647
(dp2648
g6
S'Phosphate'
p2649
sg8
S'PO4'
p2650
sg10
S'gas'
p2651
sg12
F0.005011872336272725
sg13
S'Wang'
p2652
sg15
S'10.1039/Ft9959103953'
p2653
sg17
F-2.3
sg18
S'yes'
p2654
sg20
S'Fe'
p2655
sg22
S'None'
p2656
sg24
I648
sg25
S'N2O'
p2657
sg27
Nsg28
S'heterogeneous'
p2658
sg30
F48.74
sba(iexpclass
expclass
p2659
(dp2660
g6
S'Phosphate'
p2661
sg8
S'PO4'
p2662
sg10
S'gas'
p2663
sg12
F0.006918309709189363
sg13
S'Wang'
p2664
sg15
S'10.1039/Ft9959103953'
p2665
sg17
F-2.16
sg18
S'yes'
p2666
sg20
S'Fe'
p2667
sg22
S'None'
p2668
sg24
I648
sg25
S'N2O'
p2669
sg27
Nsg28
S'heterogeneous'
p2670
sg30
F45.4
sba(iexpclass
expclass
p2671
(dp2672
g6
S'Phosphate'
p2673
sg8
S'PO4'
p2674
sg10
S'gas'
p2675
sg12
F0.008511380382023767
sg13
S'Wang'
p2676
sg15
S'10.1039/Ft9959103953'
p2677
sg17
F-2.07
sg18
S'yes'
p2678
sg20
S'Fe'
p2679
sg22
S'None'
p2680
sg24
I648
sg25
S'N2O'
p2681
sg27
Nsg28
S'heterogeneous'
p2682
sg30
F46.88
sba(iexpclass
expclass
p2683
(dp2684
g6
S'Phosphate'
p2685
sg8
S'PO4'
p2686
sg10
S'gas'
p2687
sg12
F0.007413102413009177
sg13
S'Wang'
p2688
sg15
S'10.1039/Ft9959103953'
p2689
sg17
F-2.13
sg18
S'yes'
p2690
sg20
S'Fe'
p2691
sg22
S'None'
p2692
sg24
I648
sg25
S'N2O'
p2693
sg27
Nsg28
S'heterogeneous'
p2694
sg30
F44.37
sba(iexpclass
expclass
p2695
(dp2696
g6
S'Phosphate'
p2697
sg8
S'PO4'
p2698
sg10
S'gas'
p2699
sg12
F0.006025595860743574
sg13
S'Wang'
p2700
sg15
S'10.1039/Ft9959103953'
p2701
sg17
F-2.22
sg18
S'yes'
p2702
sg20
S'Fe'
p2703
sg22
S'None'
p2704
sg24
I648
sg25
S'N2O'
p2705
sg27
Nsg28
S'heterogeneous'
p2706
sg30
F42.76
sba(iexpclass
expclass
p2707
(dp2708
g6
S'Oxide'
p2709
sg8
S'K7PW9Fe2NiO37'
p2710
sg10
S'gas'
p2711
sg12
F0.04073802778041128
sg13
S'Lyons'
p2712
sg15
S'10.1016/S0167-2991(08)61930-8'
p2713
sg17
F-1.39
sg18
S'yes'
p2714
sg20
S'Fe'
p2715
sg22
S'None'
p2716
sg24
I683
sg25
S'O2'
p2717
sg27
Nsg28
S'heterogeneous'
p2718
sg30
F42.0
sba(iexpclass
expclass
p2719
(dp2720
g6
S'Sodalite'
p2721
sg8
S'SOD'
p2722
sg10
S'gas'
p2723
sg12
F0.04570881896148749
sg13
S'Lyons'
p2724
sg15
S'10.1016/S0167-2991(08)61930-8'
p2725
sg17
F-1.34
sg18
S'yes'
p2726
sg20
S'Fe'
p2727
sg22
S'None'
p2728
sg24
I680
sg25
S'O2'
p2729
sg27
Nsg28
S'heterogeneous'
p2730
sg30
F64.0
sba(iexpclass
expclass
p2731
(dp2732
g6
S'Sodalite'
p2733
sg8
S'SOD'
p2734
sg10
S'gas'
p2735
sg12
F0.057543993733715694
sg13
S'Lyons'
p2736
sg15
S'10.1016/S0167-2991(08)61930-8'
p2737
sg17
F-1.24
sg18
S'yes'
p2738
sg20
S'Fe'
p2739
sg22
S'None'
p2740
sg24
I689
sg25
S'O2'
p2741
sg27
Nsg28
S'heterogeneous'
p2742
sg30
F70.0
sba(iexpclass
expclass
p2743
(dp2744
g6
S'Sodalite'
p2745
sg8
S'SOD'
p2746
sg10
S'gas'
p2747
sg12
F0.05370317963702527
sg13
S'Lyons'
p2748
sg15
S'10.1016/S0167-2991(08)61930-8'
p2749
sg17
F-1.27
sg18
S'yes'
p2750
sg20
S'Fe'
p2751
sg22
S'None'
p2752
sg24
I691
sg25
S'O2'
p2753
sg27
Nsg28
S'heterogeneous'
p2754
sg30
F68.0
sba(iexpclass
expclass
p2755
(dp2756
g6
S'Sodalite'
p2757
sg8
S'SOD'
p2758
sg10
S'gas'
p2759
sg12
F0.05370317963702527
sg13
S'Lyons'
p2760
sg15
S'10.1016/S0167-2991(08)61930-8'
p2761
sg17
F-1.27
sg18
S'yes'
p2762
sg20
S'Fe'
p2763
sg22
S'None'
p2764
sg24
I695
sg25
S'O2'
p2765
sg27
Nsg28
S'heterogeneous'
p2766
sg30
F65.0
sba(iexpclass
expclass
p2767
(dp2768
g6
S'Sodalite'
p2769
sg8
S'SOD'
p2770
sg10
S'gas'
p2771
sg12
F0.054954087385762455
sg13
S'Lyons'
p2772
sg15
S'10.1016/S0167-2991(08)61930-8'
p2773
sg17
F-1.26
sg18
S'yes'
p2774
sg20
S'Fe'
p2775
sg22
S'None'
p2776
sg24
I705
sg25
S'O2'
p2777
sg27
Nsg28
S'heterogeneous'
p2778
sg30
F63.0
sba(iexpclass
expclass
p2779
(dp2780
g6
S'Sodalite'
p2781
sg8
S'SOD'
p2782
sg10
S'gas'
p2783
sg12
F0.06165950018614822
sg13
S'Lyons'
p2784
sg15
S'10.1016/S0167-2991(08)61930-8'
p2785
sg17
F-1.21
sg18
S'yes'
p2786
sg20
S'Fe'
p2787
sg22
S'None'
p2788
sg24
I715
sg25
S'O2'
p2789
sg27
Nsg28
S'heterogeneous'
p2790
sg30
F64.0
sba(iexpclass
expclass
p2791
(dp2792
g6
S'Sodalite'
p2793
sg8
S'SOD'
p2794
sg10
S'gas'
p2795
sg12
F0.001995262314968879
sg13
S'Lyons'
p2796
sg15
S'10.1016/S0167-2991(08)61930-8'
p2797
sg17
F-2.7
sg18
S'yes'
p2798
sg20
S'Fe'
p2799
sg22
S'None'
p2800
sg24
I693
sg25
S'O2'
p2801
sg27
Nsg28
S'heterogeneous'
p2802
sg30
F27.0
sba(iexpclass
expclass
p2803
(dp2804
g6
S'Sodalite'
p2805
sg8
S'hydroxysodalite'
p2806
sg10
S'gas'
p2807
sg12
F0.003019951720402016
sg13
S'Lyons'
p2808
sg15
S'10.1016/S0167-2991(08)61930-8'
p2809
sg17
F-2.52
sg18
S'yes'
p2810
sg20
S'Fe'
p2811
sg22
S'None'
p2812
sg24
I703
sg25
S'O2'
p2813
sg27
Nsg28
S'heterogeneous'
p2814
sg30
F9.0
sba(iexpclass
expclass
p2815
(dp2816
g6
S'Sodalite'
p2817
sg8
S'hydroxysodalite'
p2818
sg10
S'gas'
p2819
sg12
F0.05128613839913648
sg13
S'Lyons'
p2820
sg15
S'10.1016/S0167-2991(08)61930-8'
p2821
sg17
F-1.29
sg18
S'yes'
p2822
sg20
S'Fe'
p2823
sg22
S'None'
p2824
sg24
I718
sg25
S'O2'
p2825
sg27
Nsg28
S'heterogeneous'
p2826
sg30
F24.0
sba(iexpclass
expclass
p2827
(dp2828
g6
S'Sodalite'
p2829
sg8
S'hydroxysodalite'
p2830
sg10
S'gas'
p2831
sg12
F0.05128613839913648
sg13
S'Lyons'
p2832
sg15
S'10.1016/S0167-2991(08)61930-8'
p2833
sg17
F-1.29
sg18
S'yes'
p2834
sg20
S'Fe'
p2835
sg22
S'None'
p2836
sg24
I704
sg25
S'O2'
p2837
sg27
Nsg28
S'heterogeneous'
p2838
sg30
F26.0
sba(iexpclass
expclass
p2839
(dp2840
g6
S'Oxide'
p2841
sg8
S'SiO2'
p2842
sg10
S'gas'
p2843
sg12
F0.005011872336272725
sg13
S'Lyons'
p2844
sg15
S'10.1016/S0167-2991(08)61930-8'
p2845
sg17
F-2.3
sg18
S'no'
p2846
sg20
S'Fe'
p2847
sg22
S'None'
p2848
sg24
I671
sg25
S'O2'
p2849
sg27
Nsg28
S'heterogeneous'
p2850
sg30
F10.0
sba(iexpclass
expclass
p2851
(dp2852
g6
S'Oxide'
p2853
sg8
S'SiO2'
p2854
sg10
S'gas'
p2855
sg12
F0.012022644346174132
sg13
S'Lyons'
p2856
sg15
S'10.1016/S0167-2991(08)61930-8'
p2857
sg17
F-1.92
sg18
S'no'
p2858
sg20
S'Fe'
p2859
sg22
S'None'
p2860
sg24
I682
sg25
S'O2'
p2861
sg27
Nsg28
S'heterogeneous'
p2862
sg30
F18.0
sba(iexpclass
expclass
p2863
(dp2864
g6
S'Oxide'
p2865
sg8
S'SiO2'
p2866
sg10
S'gas'
p2867
sg12
F0.026915348039269153
sg13
S'Lyons'
p2868
sg15
S'10.1016/S0167-2991(08)61930-8'
p2869
sg17
F-1.57
sg18
S'no'
p2870
sg20
S'Fe'
p2871
sg22
S'None'
p2872
sg24
I693
sg25
S'O2'
p2873
sg27
Nsg28
S'heterogeneous'
p2874
sg30
F20.0
sba(iexpclass
expclass
p2875
(dp2876
g6
S'Oxide'
p2877
sg8
S'SiO2'
p2878
sg10
S'gas'
p2879
sg12
F0.03890451449942807
sg13
S'Lyons'
p2880
sg15
S'10.1016/S0167-2991(08)61930-8'
p2881
sg17
F-1.41
sg18
S'no'
p2882
sg20
S'Fe'
p2883
sg22
S'None'
p2884
sg24
I701
sg25
S'O2'
p2885
sg27
Nsg28
S'heterogeneous'
p2886
sg30
F23.0
sba(iexpclass
expclass
p2887
(dp2888
g6
g7
sg8
S'ZEOL'
p2889
sg10
S'gas'
p2890
sg12
F0.023988329190194897
sg13
S'Lyons'
p2891
sg15
S'10.1016/S0167-2991(08)61930-8'
p2892
sg17
F-1.62
sg18
S'yes'
p2893
sg20
S'Fe'
p2894
sg22
S'None'
p2895
sg24
I673
sg25
S'O2'
p2896
sg27
Nsg28
S'heterogeneous'
p2897
sg30
F33.0
sba(iexpclass
expclass
p2898
(dp2899
g6
g7
sg8
S'ZEOL'
p2900
sg10
S'gas'
p2901
sg12
F0.038018939632056124
sg13
S'Lyons'
p2902
sg15
S'10.1016/S0167-2991(08)61930-8'
p2903
sg17
F-1.42
sg18
S'yes'
p2904
sg20
S'Fe'
p2905
sg22
S'None'
p2906
sg24
I703
sg25
S'O2'
p2907
sg27
Nsg28
S'heterogeneous'
p2908
sg30
F34.0
sba(iexpclass
expclass
p2909
(dp2910
g6
S'Oxide'
p2911
sg8
S'MoO3/SiO2'
p2912
sg10
S'gas'
p2913
sg12
F0.0006025595860743575
sg13
S'Khan'
p2914
sg15
S'10.1016/0021-9517(85)90340-9'
p2915
sg17
F-3.22
sg18
S'no'
p2916
sg20
S'Mo'
p2917
sg22
S'None'
p2918
sg24
I753
sg25
S'N2O'
p2919
sg27
Nsg28
S'heterogeneous'
p2920
sg30
F96.0
sba(iexpclass
expclass
p2921
(dp2922
g6
S'Oxide'
p2923
sg8
S'MoO3/SiO2'
p2924
sg10
S'gas'
p2925
sg12
F0.001
sg13
S'Khan'
p2926
sg15
S'10.1016/0021-9517(85)90340-9'
p2927
sg17
F-3.0
sg18
S'no'
p2928
sg20
S'Mo'
p2929
sg22
S'None'
p2930
sg24
I763
sg25
S'N2O'
p2931
sg27
Nsg28
S'heterogeneous'
p2932
sg30
F96.0
sba(iexpclass
expclass
p2933
(dp2934
g6
S'Oxide'
p2935
sg8
S'MoO3/SiO2'
p2936
sg10
S'gas'
p2937
sg12
F0.0016982436524617442
sg13
S'Khan'
p2938
sg15
S'10.1016/0021-9517(85)90340-9'
p2939
sg17
F-2.77
sg18
S'no'
p2940
sg20
S'Mo'
p2941
sg22
S'None'
p2942
sg24
I773
sg25
S'N2O'
p2943
sg27
Nsg28
S'heterogeneous'
p2944
sg30
F85.0
sba(iexpclass
expclass
p2945
(dp2946
g6
S'Oxide'
p2947
sg8
S'MoO3/SiO2'
p2948
sg10
S'gas'
p2949
sg12
F0.002187761623949552
sg13
S'Khan'
p2950
sg15
S'10.1016/0021-9517(85)90340-9'
p2951
sg17
F-2.66
sg18
S'no'
p2952
sg20
S'Mo'
p2953
sg22
S'None'
p2954
sg24
I783
sg25
S'N2O'
p2955
sg27
Nsg28
S'heterogeneous'
p2956
sg30
F72.0
sba(iexpclass
expclass
p2957
(dp2958
g6
S'Oxide'
p2959
sg8
S'MoO3/SiO2'
p2960
sg10
S'gas'
p2961
sg12
F0.0025703957827688645
sg13
S'Khan'
p2962
sg15
S'10.1016/0021-9517(85)90340-9'
p2963
sg17
F-2.59
sg18
S'no'
p2964
sg20
S'Mo'
p2965
sg22
S'None'
p2966
sg24
I793
sg25
S'N2O'
p2967
sg27
Nsg28
S'heterogeneous'
p2968
sg30
F66.0
sba(iexpclass
expclass
p2969
(dp2970
g6
S'Oxide'
p2971
sg8
S'MoO3/SiO2'
p2972
sg10
S'gas'
p2973
sg12
F0.003090295432513592
sg13
S'Khan'
p2974
sg15
S'10.1016/0021-9517(85)90340-9'
p2975
sg17
F-2.51
sg18
S'no'
p2976
sg20
S'Mo'
p2977
sg22
S'None'
p2978
sg24
I803
sg25
S'N2O'
p2979
sg27
Nsg28
S'heterogeneous'
p2980
sg30
F59.0
sba(iexpclass
expclass
p2981
(dp2982
g6
S'Oxide'
p2983
sg8
S'MoO3/SiO2'
p2984
sg10
S'gas'
p2985
sg12
F0.004677351412871981
sg13
S'Khan'
p2986
sg15
S'10.1016/0021-9517(85)90340-9'
p2987
sg17
F-2.33
sg18
S'no'
p2988
sg20
S'Mo'
p2989
sg22
S'None'
p2990
sg24
I813
sg25
S'N2O'
p2991
sg27
Nsg28
S'heterogeneous'
p2992
sg30
F54.0
sba(iexpclass
expclass
p2993
(dp2994
g6
S'Oxide'
p2995
sg8
S'MoO3/SiO2'
p2996
sg10
S'gas'
p2997
sg12
F0.00707945784384138
sg13
S'Khan'
p2998
sg15
S'10.1016/0021-9517(85)90340-9'
p2999
sg17
F-2.15
sg18
S'no'
p3000
sg20
S'Mo'
p3001
sg22
S'None'
p3002
sg24
I823
sg25
S'N2O'
p3003
sg27
Nsg28
S'heterogeneous'
p3004
sg30
F46.0
sba(iexpclass
expclass
p3005
(dp3006
g6
S'Oxide'
p3007
sg8
S'MoO3/SiO2'
p3008
sg10
S'gas'
p3009
sg12
F0.012022644346174132
sg13
S'Khan'
p3010
sg15
S'10.1016/0021-9517(85)90340-9'
p3011
sg17
F-1.92
sg18
S'no'
p3012
sg20
S'Mo'
p3013
sg22
S'None'
p3014
sg24
I843
sg25
S'N2O'
p3015
sg27
Nsg28
S'heterogeneous'
p3016
sg30
F18.0
sba(iexpclass
expclass
p3017
(dp3018
g6
S'Oxide'
p3019
sg8
S'MoO3/SiO2'
p3020
sg10
S'gas'
p3021
sg12
F0.028840315031266057
sg13
S'Khan'
p3022
sg15
S'10.1016/0021-9517(85)90340-9'
p3023
sg17
F-1.54
sg18
S'no'
p3024
sg20
S'Mo'
p3025
sg22
S'None'
p3026
sg24
I843
sg25
S'N2O'
p3027
sg27
Nsg28
S'heterogeneous'
p3028
sg30
F13.8
sba(iexpclass
expclass
p3029
(dp3030
g6
S'Oxide'
p3031
sg8
S'MoO3/SiO2'
p3032
sg10
S'gas'
p3033
sg12
F0.025703957827688632
sg13
S'Khan'
p3034
sg15
S'10.1016/0021-9517(85)90340-9'
p3035
sg17
F-1.59
sg18
S'no'
p3036
sg20
S'Mo'
p3037
sg22
S'None'
p3038
sg24
I863
sg25
S'N2O'
p3039
sg27
Nsg28
S'heterogeneous'
p3040
sg30
F16.0
sba(iexpclass
expclass
p3041
(dp3042
g6
S'Gas-phase'
p3043
sg8
S'-'
p3044
sg10
S'gas'
p3045
sg12
F0.013803842646028845
sg13
S'Casey'
p3046
sg15
S'10.1021/ie00029a008'
p3047
sg17
F-1.86
sg18
S'yes'
p3048
sg20
g1474
sg22
S'Radical'
p3049
sg24
I673
sg25
S'O2'
p3050
sg27
Nsg28
S'heterogeneous'
p3051
sg30
F44.07
sba(iexpclass
expclass
p3052
(dp3053
g6
S'Gas-phase'
p3054
sg8
g3044
sg10
S'gas'
p3055
sg12
F0.024547089156850298
sg13
S'Casey'
p3056
sg15
S'10.1021/ie00029a008'
p3057
sg17
F-1.61
sg18
S'yes'
p3058
sg20
g1474
sg22
S'Radical'
p3059
sg24
I673
sg25
S'O2'
p3060
sg27
Nsg28
S'heterogeneous'
p3061
sg30
F32.42
sba(iexpclass
expclass
p3062
(dp3063
g6
S'Gas-phase'
p3064
sg8
g3044
sg10
S'gas'
p3065
sg12
F0.046773514128719815
sg13
S'Casey'
p3066
sg15
S'10.1021/ie00029a008'
p3067
sg17
F-1.33
sg18
S'yes'
p3068
sg20
g1474
sg22
S'Radical'
p3069
sg24
I673
sg25
S'O2'
p3070
sg27
Nsg28
S'heterogeneous'
p3071
sg30
F22.2
sba(iexpclass
expclass
p3072
(dp3073
g6
S'Gas-phase'
p3074
sg8
g3044
sg10
S'gas'
p3075
sg12
F0.0812830516164099
sg13
S'Casey'
p3076
sg15
S'10.1021/ie00029a008'
p3077
sg17
F-1.09
sg18
S'yes'
p3078
sg20
g1474
sg22
S'Radical'
p3079
sg24
I673
sg25
S'O2'
p3080
sg27
Nsg28
S'heterogeneous'
p3081
sg30
F15.04
sba(iexpclass
expclass
p3082
(dp3083
g6
S'Gas-phase'
p3084
sg8
g3044
sg10
S'gas'
p3085
sg12
F0.007585775750291836
sg13
S'Chun'
p3086
sg15
S'10.1021/ie00017a004'
p3087
sg17
F-2.12
sg18
S'yes'
p3088
sg20
g1474
sg22
S'Radical'
p3089
sg24
I682
sg25
S'O2'
p3090
sg27
Nsg28
S'heterogeneous'
p3091
sg30
F54.18
sba(iexpclass
expclass
p3092
(dp3093
g6
S'Gas-phase'
p3094
sg8
g3044
sg10
S'gas'
p3095
sg12
F0.014791083881682071
sg13
S'Chun'
p3096
sg15
S'10.1021/ie00017a004'
p3097
sg17
F-1.83
sg18
S'yes'
p3098
sg20
g1474
sg22
S'Radical'
p3099
sg24
I691
sg25
S'O2'
p3100
sg27
Nsg28
S'heterogeneous'
p3101
sg30
F51.17
sba(iexpclass
expclass
p3102
(dp3103
g6
S'Gas-phase'
p3104
sg8
g3044
sg10
S'gas'
p3105
sg12
F0.019498445997580455
sg13
S'Chun'
p3106
sg15
S'10.1021/ie00017a004'
p3107
sg17
F-1.71
sg18
S'yes'
p3108
sg20
g1474
sg22
S'Radical'
p3109
sg24
I696
sg25
S'O2'
p3110
sg27
Nsg28
S'heterogeneous'
p3111
sg30
F50.9
sba(iexpclass
expclass
p3112
(dp3113
g6
S'Gas-phase'
p3114
sg8
g3044
sg10
S'gas'
p3115
sg12
F0.03715352290971726
sg13
S'Chun'
p3116
sg15
S'10.1021/ie00017a004'
p3117
sg17
F-1.43
sg18
S'yes'
p3118
sg20
g1474
sg22
S'Radical'
p3119
sg24
I708
sg25
S'O2'
p3120
sg27
Nsg28
S'heterogeneous'
p3121
sg30
F47.62
sba(iexpclass
expclass
p3122
(dp3123
g6
S'Gas-phase'
p3124
sg8
g3044
sg10
S'gas'
p3125
sg12
F0.04073802778041128
sg13
S'Chun'
p3126
sg15
S'10.1021/ie00017a004'
p3127
sg17
F-1.39
sg18
S'yes'
p3128
sg20
g1474
sg22
S'Radical'
p3129
sg24
I714
sg25
S'O2'
p3130
sg27
Nsg28
S'heterogeneous'
p3131
sg30
F38.94
sba(iexpclass
expclass
p3132
(dp3133
g6
S'Gas-phase'
p3134
sg8
g3044
sg10
S'gas'
p3135
sg12
F0.04168693834703355
sg13
S'Chun'
p3136
sg15
S'10.1021/ie00017a004'
p3137
sg17
F-1.38
sg18
S'yes'
p3138
sg20
g1474
sg22
S'Radical'
p3139
sg24
I732
sg25
S'O2'
p3140
sg27
Nsg28
S'heterogeneous'
p3141
sg30
F34.32
sba(iexpclass
expclass
p3142
(dp3143
g6
S'Gas-phase'
p3144
sg8
g3044
sg10
S'gas'
p3145
sg12
F0.04073802778041128
sg13
S'Chun'
p3146
sg15
S'10.1021/ie00017a004'
p3147
sg17
F-1.39
sg18
S'yes'
p3148
sg20
g1474
sg22
S'Radical'
p3149
sg24
I742
sg25
S'O2'
p3150
sg27
Nsg28
S'heterogeneous'
p3151
sg30
F33.21
sba(iexpclass
expclass
p3152
(dp3153
g6
S'Gas-phase'
p3154
sg8
g3044
sg10
S'gas'
p3155
sg12
F0.030902954325135904
sg13
S'Foulds'
p3156
sg15
S'10.1021/ie00017a003'
p3157
sg17
F-1.51
sg18
S'yes'
p3158
sg20
g1474
sg22
S'Radical'
p3159
sg24
I663
sg25
S'O2'
p3160
sg27
Nsg28
S'heterogeneous'
p3161
sg30
F47.0
sba(iexpclass
expclass
p3162
(dp3163
g6
S'Gas-phase'
p3164
sg8
g3044
sg10
S'gas'
p3165
sg12
F0.0446683592150963
sg13
S'Foulds'
p3166
sg15
S'10.1021/ie00017a003'
p3167
sg17
F-1.35
sg18
S'yes'
p3168
sg20
g1474
sg22
S'Radical'
p3169
sg24
I668
sg25
S'O2'
p3170
sg27
Nsg28
S'heterogeneous'
p3171
sg30
F37.7
sba(iexpclass
expclass
p3172
(dp3173
g6
S'Gas-phase'
p3174
sg8
g3044
sg10
S'gas'
p3175
sg12
F0.06456542290346556
sg13
S'Foulds'
p3176
sg15
S'10.1021/ie00017a003'
p3177
sg17
F-1.19
sg18
S'yes'
p3178
sg20
g1474
sg22
S'Radical'
p3179
sg24
I673
sg25
S'O2'
p3180
sg27
Nsg28
S'heterogeneous'
p3181
sg30
F28.1
sba(iexpclass
expclass
p3182
(dp3183
g6
S'Gas-phase'
p3184
sg8
g3044
sg10
S'gas'
p3185
sg12
F0.08511380382023763
sg13
S'Foulds'
p3186
sg15
S'10.1021/ie00017a003'
p3187
sg17
F-1.07
sg18
S'yes'
p3188
sg20
g1474
sg22
S'Radical'
p3189
sg24
I673
sg25
S'O2'
p3190
sg27
Nsg28
S'heterogeneous'
p3191
sg30
F23.0
sba(iexpclass
expclass
p3192
(dp3193
g6
S'Gas-phase'
p3194
sg8
g3044
sg10
S'gas'
p3195
sg12
F0.04073802778041128
sg13
S'Foulds'
p3196
sg15
S'10.1021/ie00017a003'
p3197
sg17
F-1.39
sg18
S'yes'
p3198
sg20
g1474
sg22
S'Radical'
p3199
sg24
I693
sg25
S'O2'
p3200
sg27
Nsg28
S'heterogeneous'
p3201
sg30
F27.2
sba(iexpclass
expclass
p3202
(dp3203
g6
S'Gas-phase'
p3204
sg8
g3044
sg10
S'gas'
p3205
sg12
F0.04570881896148749
sg13
S'Foulds'
p3206
sg15
S'10.1021/ie00017a003'
p3207
sg17
F-1.34
sg18
S'yes'
p3208
sg20
g1474
sg22
S'Radical'
p3209
sg24
I648
sg25
S'O2'
p3210
sg27
Nsg28
S'heterogeneous'
p3211
sg30
F33.7
sba(iexpclass
expclass
p3212
(dp3213
g6
S'Gas-phase'
p3214
sg8
g3044
sg10
S'gas'
p3215
sg12
F0.057543993733715694
sg13
S'Foulds'
p3216
sg15
S'10.1021/ie00017a003'
p3217
sg17
F-1.24
sg18
S'yes'
p3218
sg20
g1474
sg22
S'Radical'
p3219
sg24
I677
sg25
S'O2'
p3220
sg27
Nsg28
S'heterogeneous'
p3221
sg30
F36.3
sba(iexpclass
expclass
p3222
(dp3223
g6
S'Gas-phase'
p3224
sg8
g3044
sg10
S'gas'
p3225
sg12
F0.06456542290346556
sg13
S'Foulds'
p3226
sg15
S'10.1021/ie00017a003'
p3227
sg17
F-1.19
sg18
S'yes'
p3228
sg20
g1474
sg22
S'Radical'
p3229
sg24
I675
sg25
S'O2'
p3230
sg27
Nsg28
S'heterogeneous'
p3231
sg30
F33.3
sba(iexpclass
expclass
p3232
(dp3233
g6
S'Gas-phase'
p3234
sg8
g3044
sg10
S'gas'
p3235
sg12
F0.08912509381337455
sg13
S'Foulds'
p3236
sg15
S'10.1021/ie00017a003'
p3237
sg17
F-1.05
sg18
S'yes'
p3238
sg20
g1474
sg22
S'Radical'
p3239
sg24
I668
sg25
S'O2'
p3240
sg27
Nsg28
S'heterogeneous'
p3241
sg30
F23.5
sba(iexpclass
expclass
p3242
(dp3243
g6
S'Gas-phase'
p3244
sg8
g3044
sg10
S'gas'
p3245
sg12
F0.07762471166286916
sg13
S'Foulds'
p3246
sg15
S'10.1021/ie00017a003'
p3247
sg17
F-1.11
sg18
S'yes'
p3248
sg20
g1474
sg22
S'Radical'
p3249
sg24
I678
sg25
S'O2'
p3250
sg27
Nsg28
S'heterogeneous'
p3251
sg30
F17.9
sba(iexpclass
expclass
p3252
(dp3253
g6
S'Gas-phase'
p3254
sg8
g3044
sg10
S'gas'
p3255
sg12
F0.06760829753919818
sg13
S'Foulds'
p3256
sg15
S'10.1021/ie00017a003'
p3257
sg17
F-1.17
sg18
S'yes'
p3258
sg20
g1474
sg22
S'Radical'
p3259
sg24
I658
sg25
S'O2'
p3260
sg27
Nsg28
S'heterogeneous'
p3261
sg30
F23.6
sba(iexpclass
expclass
p3262
(dp3263
g6
S'Oxide'
p3264
sg8
S'Ceria-Zirconia'
p3265
sg10
S'gas'
p3266
sg12
F0.15135612484362082
sg13
S'Okolie'
p3267
sg15
S'10.1002/anie.201704704'
p3268
sg17
F-0.82
sg18
S'no'
p3269
sg20
S'Ni'
p3270
sg22
S'None'
p3271
sg24
I723
sg25
S'O2'
p3272
sg27
Nsg28
S'heterogeneous'
p3273
sg30
F43.0
sba(iexpclass
expclass
p3274
(dp3275
g6
S'Oxide'
p3276
sg8
S'Zirconia'
p3277
sg10
S'aqueous'
p3278
sg12
F1.3803842646028839e-05
sg13
S'Kwon'
p3279
sg15
S'10.1021/jacs.7b11010'
p3280
sg17
F-4.86
sg18
S'yes'
p3281
sg20
S'Rh'
p3282
sg22
S'None'
p3283
sg24
I343
sg25
S'H2O2'
p3284
sg27
Nsg28
S'heterogeneous'
p3285
sg30
F71.0
sba(iexpclass
expclass
p3286
(dp3287
g6
S'Au-Pd'
p3288
sg8
g3044
sg10
S'aqueous'
p3289
sg12
F0.0001412537544622754
sg13
S'Hutchings'
p3290
sg15
S'10.1126/science.aan6515'
p3291
sg17
F-3.85
sg18
S'yes'
p3292
sg20
S'Au-Pd'
p3293
sg22
S'Radical'
p3294
sg24
I323
sg25
S'H2O2/O2'
p3295
sg27
Nsg28
S'heterogeneous'
p3296
sg30
F100.0
sba(iexpclass
expclass
p3297
(dp3298
g6
S'Au-Pd'
p3299
sg8
g3044
sg10
S'aqueous'
p3300
sg12
F0.0003235936569296281
sg13
S'Hutchings'
p3301
sg15
S'10.1126/science.aan6515'
p3302
sg17
F-3.49
sg18
S'yes'
p3303
sg20
S'Au-Pd'
p3304
sg22
S'Radical'
p3305
sg24
I323
sg25
S'H2O2/O2'
p3306
sg27
Nsg28
S'heterogeneous'
p3307
sg30
F97.1
sba(iexpclass
expclass
p3308
(dp3309
g6
S'Au-Pd'
p3310
sg8
g3044
sg10
S'aqueous'
p3311
sg12
F0.0004365158322401661
sg13
S'Hutchings'
p3312
sg15
S'10.1126/science.aan6515'
p3313
sg17
F-3.36
sg18
S'yes'
p3314
sg20
S'Au-Pd'
p3315
sg22
S'Radical'
p3316
sg24
I323
sg25
S'H2O2/O2'
p3317
sg27
Nsg28
S'heterogeneous'
p3318
sg30
F95.19
sba(iexpclass
expclass
p3319
(dp3320
g6
S'Au-Pd'
p3321
sg8
g3044
sg10
S'aqueous'
p3322
sg12
F0.0005754399373371566
sg13
S'Hutchings'
p3323
sg15
S'10.1126/science.aan6515'
p3324
sg17
F-3.24
sg18
S'yes'
p3325
sg20
S'Au-Pd'
p3326
sg22
S'Radical'
p3327
sg24
I323
sg25
S'H2O2/O2'
p3328
sg27
Nsg28
S'heterogeneous'
p3329
sg30
F92.34
sba(iexpclass
expclass
p3330
(dp3331
g6
S'Au-Pd'
p3332
sg8
g3044
sg10
S'aqueous'
p3333
sg12
F0.0006606934480075957
sg13
S'Hutchings'
p3334
sg15
S'10.1126/science.aan6515'
p3335
sg17
F-3.18
sg18
S'yes'
p3336
sg20
S'Au-Pd'
p3337
sg22
S'Radical'
p3338
sg24
I323
sg25
S'H2O2/O2'
p3339
sg27
Nsg28
S'heterogeneous'
p3340
sg30
F91.58
sba(iexpclass
expclass
p3341
(dp3342
g6
S'Au-Pd'
p3343
sg8
g3044
sg10
S'aqueous'
p3344
sg12
F0.0006606934480075957
sg13
S'Hutchings'
p3345
sg15
S'10.1126/science.aan6515'
p3346
sg17
F-3.18
sg18
S'yes'
p3347
sg20
S'Au-Pd'
p3348
sg22
S'Radical'
p3349
sg24
I323
sg25
S'H2O2/O2'
p3350
sg27
Nsg28
S'heterogeneous'
p3351
sg30
F81.75
sba(iexpclass
expclass
p3352
(dp3353
g6
S'Au-Pd'
p3354
sg8
g3044
sg10
S'aqueous'
p3355
sg12
F0.0007943282347242813
sg13
S'Hutchings'
p3356
sg15
S'10.1126/science.aan6515'
p3357
sg17
F-3.1
sg18
S'yes'
p3358
sg20
S'Au-Pd'
p3359
sg22
S'Radical'
p3360
sg24
I323
sg25
S'H2O2/O2'
p3361
sg27
Nsg28
S'heterogeneous'
p3362
sg30
F86.39
sba(iexpclass
expclass
p3363
(dp3364
g6
S'Au-Pd'
p3365
sg8
g3044
sg10
S'aqueous'
p3366
sg12
F0.0008912509381337459
sg13
S'Hutchings'
p3367
sg15
S'10.1126/science.aan6515'
p3368
sg17
F-3.05
sg18
S'yes'
p3369
sg20
S'Au-Pd'
p3370
sg22
S'Radical'
p3371
sg24
I323
sg25
S'H2O2/O2'
p3372
sg27
Nsg28
S'heterogeneous'
p3373
sg30
F84.38
sba(iexpclass
expclass
p3374
(dp3375
g6
S'Au-Pd'
p3376
sg8
g3044
sg10
S'aqueous'
p3377
sg12
F0.001
sg13
S'Hutchings'
p3378
sg15
S'10.1126/science.aan6515'
p3379
sg17
F-3.0
sg18
S'yes'
p3380
sg20
S'Au-Pd'
p3381
sg22
S'Radical'
p3382
sg24
I323
sg25
S'H2O2/O2'
p3383
sg27
Nsg28
S'heterogeneous'
p3384
sg30
F79.86
sba(iexpclass
expclass
p3385
(dp3386
g6
S'Au-Pd'
p3387
sg8
g3044
sg10
S'aqueous'
p3388
sg12
F0.001174897554939529
sg13
S'Hutchings'
p3389
sg15
S'10.1126/science.aan6515'
p3390
sg17
F-2.93
sg18
S'yes'
p3391
sg20
S'Au-Pd'
p3392
sg22
S'Radical'
p3393
sg24
I323
sg25
S'H2O2/O2'
p3394
sg27
Nsg28
S'heterogeneous'
p3395
sg30
F77.56
sba(iexpclass
expclass
p3396
(dp3397
g6
S'MMO-opt'
p3398
sg8
S'MMO'
p3399
sg10
S'aqueous'
p3400
sg12
F0.33884415613920255
sg13
S'Mountfort'
p3401
sg15
S'10.1016/0141-0229(90)90162-J'
p3402
sg17
F-0.47
sg18
S'yes'
p3403
sg20
S'Fe'
p3404
sg22
S'MMO'
p3405
sg24
I303
sg25
S'O2'
p3406
sg27
Nsg28
S'homogeneous'
p3407
sg30
F0.0
sba(iexpclass
expclass
p3408
(dp3409
g6
S'MMO-opt'
p3410
sg8
S'MMO'
p3411
sg10
S'aqueous'
p3412
sg12
F0.08709635899560805
sg13
S'Mountfort'
p3413
sg15
S'10.1016/0141-0229(90)90162-J'
p3414
sg17
F-1.06
sg18
S'yes'
p3415
sg20
S'Fe'
p3416
sg22
S'MMO'
p3417
sg24
I303
sg25
S'O2'
p3418
sg27
Nsg28
S'homogeneous'
p3419
sg30
F36.36
sba(iexpclass
expclass
p3420
(dp3421
g6
S'MMO-opt'
p3422
sg8
S'MMO'
p3423
sg10
S'aqueous'
p3424
sg12
F0.08317637711026708
sg13
S'Mountfort'
p3425
sg15
S'10.1016/0141-0229(90)90162-J'
p3426
sg17
F-1.08
sg18
S'yes'
p3427
sg20
S'Fe'
p3428
sg22
S'MMO'
p3429
sg24
I303
sg25
S'O2'
p3430
sg27
Nsg28
S'homogeneous'
p3431
sg30
F61.37
sba(iexpclass
expclass
p3432
(dp3433
g6
S'MMO-opt'
p3434
sg8
S'MMO'
p3435
sg10
S'aqueous'
p3436
sg12
F0.09120108393559097
sg13
S'Mountfort'
p3437
sg15
S'10.1016/0141-0229(90)90162-J'
p3438
sg17
F-1.04
sg18
S'yes'
p3439
sg20
S'Fe'
p3440
sg22
S'MMO'
p3441
sg24
I303
sg25
S'O2'
p3442
sg27
Nsg28
S'homogeneous'
p3443
sg30
F15.38
sba(iexpclass
expclass
p3444
(dp3445
g6
S'MMO-opt'
p3446
sg8
S'MMO'
p3447
sg10
S'aqueous'
p3448
sg12
F0.33884415613920255
sg13
S'Mountfort'
p3449
sg15
S'10.1016/0141-0229(90)90162-J'
p3450
sg17
F-0.47
sg18
S'yes'
p3451
sg20
S'Fe'
p3452
sg22
S'MMO'
p3453
sg24
I303
sg25
S'O2'
p3454
sg27
Nsg28
S'homogeneous'
p3455
sg30
F0.0
sba(iexpclass
expclass
p3456
(dp3457
g6
g7
sg8
S'ZSM-5'
p3458
sg10
S'aqueous'
p3459
sg12
F0.003981071705534973
sg13
S'Shan'
p3460
sg15
S'10.1038/nature24640'
p3461
sg17
F-2.4
sg18
S'yes'
p3462
sg20
S'Rh'
p3463
sg22
S'None'
p3464
sg24
I423
sg25
S'O2/CO'
p3465
sg27
Nsg28
S'heterogeneous'
p3466
sg30
F71.43
sba(iexpclass
expclass
p3467
(dp3468
g6
g7
sg8
S'ZSM-5'
p3469
sg10
S'aqueous'
p3470
sg12
F0.005011872336272725
sg13
S'Shan'
p3471
sg15
S'10.1038/nature24640'
p3472
sg17
F-2.3
sg18
S'yes'
p3473
sg20
S'Rh'
p3474
sg22
S'None'
p3475
sg24
I423
sg25
S'O2/CO'
p3476
sg27
Nsg28
S'heterogeneous'
p3477
sg30
F71.09
sba(iexpclass
expclass
p3478
(dp3479
g6
g7
sg8
S'ZSM-5'
p3480
sg10
S'aqueous'
p3481
sg12
F0.01412537544622754
sg13
S'Shan'
p3482
sg15
S'10.1038/nature24640'
p3483
sg17
F-1.85
sg18
S'yes'
p3484
sg20
S'Rh'
p3485
sg22
S'None'
p3486
sg24
I423
sg25
S'O2/CO'
p3487
sg27
Nsg28
S'heterogeneous'
p3488
sg30
F73.06
sba(iexpclass
expclass
p3489
(dp3490
g6
g7
sg8
S'ZSM-5'
p3491
sg10
S'aqueous'
p3492
sg12
F0.039810717055349734
sg13
S'Shan'
p3493
sg15
S'10.1038/nature24640'
p3494
sg17
F-1.4
sg18
S'yes'
p3495
sg20
S'Rh'
p3496
sg22
S'None'
p3497
sg24
I423
sg25
S'O2/CO'
p3498
sg27
Nsg28
S'heterogeneous'
p3499
sg30
F63.69
sbasb.