(iexpclass
expclasses
p0
(dp1
S'data'
p2
(lp3
(iexpclass
expclass
p4
(dp5
S'cattype'
p6
S'MFI'
p7
sS'rxntype'
p8
S'gas'
p9
sS'conv'
p10
F0.6153846158308113
sS'author'
p11
S'Wood'
p12
sS'log_conv'
p13
F-0.210853365
sS'single_site'
p14
S'yes'
p15
sS'cat'
p16
S'Fe'
p17
sS'shape'
p18
S'o'
p19
sS'tag'
p20
S'None'
p21
sS'T'
p22
I673
sS'oxidant'
p23
S'N2O'
p24
sS'dEa'
p25
NsS'catalysis'
p26
S'heterogeneous'
p27
sS'sel'
p28
F2.0
sS'clr'
p29
S'firebrick'
p30
sS'fill'
p31
S'full'
p32
sba(iexpclass
expclass
p33
(dp34
g6
S'sodalite'
p35
sg8
S'gas'
p36
sg10
F0.038000000033528436
sg11
S'Durante'
p37
sg13
F-1.420216403
sg14
S'yes'
p38
sg16
S'Fe'
p39
sg18
g19
sg20
S'None'
p40
sg22
I670
sg23
S'O2'
p41
sg25
Nsg26
S'heterogeneous'
p42
sg28
F59.0
sg29
g30
sg31
g32
sba(iexpclass
expclass
p43
(dp44
g6
S'sodalite'
p45
sg8
S'gas'
p46
sg10
F0.043000000041625616
sg11
S'Durante'
p47
sg13
F-1.366531544
sg14
S'yes'
p48
sg16
S'Fe'
p49
sg18
g19
sg20
S'None'
p50
sg22
I675
sg23
S'O2'
p51
sg25
Nsg26
S'heterogeneous'
p52
sg28
F63.0
sg29
g30
sg31
g32
sba(iexpclass
expclass
p53
(dp54
g6
S'sodalite'
p55
sg8
S'gas'
p56
sg10
F0.04600000003372733
sg11
S'Durante'
p57
sg13
F-1.337242168
sg14
S'yes'
p58
sg16
S'Fe'
p59
sg18
g19
sg20
S'None'
p60
sg22
I680
sg23
S'O2'
p61
sg25
Nsg26
S'heterogeneous'
p62
sg28
F64.0
sg29
g30
sg31
g32
sba(iexpclass
expclass
p63
(dp64
g6
S'sodalite'
p65
sg8
S'gas'
p66
sg10
F0.05499999993740787
sg11
S'Durante'
p67
sg13
F-1.259637311
sg14
S'yes'
p68
sg16
S'Fe'
p69
sg18
g19
sg20
S'None'
p70
sg22
I686
sg23
S'O2'
p71
sg25
Nsg26
S'heterogeneous'
p72
sg28
F66.0
sg29
g30
sg31
g32
sba(iexpclass
expclass
p73
(dp74
g6
S'sodalite'
p75
sg8
S'gas'
p76
sg10
F0.053000000048718514
sg11
S'Durante'
p77
sg13
F-1.27572413
sg14
S'yes'
p78
sg16
S'Fe'
p79
sg18
g19
sg20
S'None'
p80
sg22
I687
sg23
S'O2'
p81
sg25
Nsg26
S'heterogeneous'
p82
sg28
F70.0
sg29
g30
sg31
g32
sba(iexpclass
expclass
p83
(dp84
g6
S'sodalite'
p85
sg8
S'gas'
p86
sg10
F0.057000000042984625
sg11
S'Durante'
p87
sg13
F-1.244125144
sg14
S'yes'
p88
sg16
S'Fe'
p89
sg18
g19
sg20
S'None'
p90
sg22
I689
sg23
S'O2'
p91
sg25
Nsg26
S'heterogeneous'
p92
sg28
F70.0
sg29
g30
sg31
g32
sba(iexpclass
expclass
p93
(dp94
g6
S'sodalite'
p95
sg8
S'gas'
p96
sg10
F0.05400000002201201
sg11
S'Durante'
p97
sg13
F-1.26760624
sg14
S'yes'
p98
sg16
S'Fe'
p99
sg18
g19
sg20
S'None'
p100
sg22
I691
sg23
S'O2'
p101
sg25
Nsg26
S'heterogeneous'
p102
sg28
F68.0
sg29
g30
sg31
g32
sba(iexpclass
expclass
p103
(dp104
g6
S'sodalite'
p105
sg8
S'gas'
p106
sg10
F0.05400000002201201
sg11
S'Durante'
p107
sg13
F-1.26760624
sg14
S'yes'
p108
sg16
S'Fe'
p109
sg18
g19
sg20
S'None'
p110
sg22
I695
sg23
S'O2'
p111
sg25
Nsg26
S'heterogeneous'
p112
sg28
F65.0
sg29
g30
sg31
g32
sba(iexpclass
expclass
p113
(dp114
g6
S'sodalite'
p115
sg8
S'gas'
p116
sg10
F0.05099999998849915
sg11
S'Durante'
p117
sg13
F-1.292429824
sg14
S'yes'
p118
sg16
S'Fe'
p119
sg18
g19
sg20
S'None'
p120
sg22
I700
sg23
S'O2'
p121
sg25
Nsg26
S'heterogeneous'
p122
sg28
F66.0
sg29
g30
sg31
g32
sba(iexpclass
expclass
p123
(dp124
g6
S'sodalite'
p125
sg8
S'gas'
p126
sg10
F0.05499999993740787
sg11
S'Durante'
p127
sg13
F-1.259637311
sg14
S'yes'
p128
sg16
S'Fe'
p129
sg18
g19
sg20
S'None'
p130
sg22
I705
sg23
S'O2'
p131
sg25
Nsg26
S'heterogeneous'
p132
sg28
F63.0
sg29
g30
sg31
g32
sba(iexpclass
expclass
p133
(dp134
g6
S'sodalite'
p135
sg8
S'gas'
p136
sg10
F0.06099999999848768
sg11
S'Durante'
p137
sg13
F-1.214670165
sg14
S'yes'
p138
sg16
S'Fe'
p139
sg18
g19
sg20
S'None'
p140
sg22
I715
sg23
S'O2'
p141
sg25
Nsg26
S'heterogeneous'
p142
sg28
F64.0
sg29
g30
sg31
g32
sba(iexpclass
expclass
p143
(dp144
g6
S'sodalite'
p145
sg8
S'gas'
p146
sg10
F0.0559999999992005
sg11
S'Durante'
p147
sg13
F-1.251811973
sg14
S'yes'
p148
sg16
S'Fe'
p149
sg18
g19
sg20
S'None'
p150
sg22
I725
sg23
S'O2'
p151
sg25
Nsg26
S'heterogeneous'
p152
sg28
F59.0
sg29
g30
sg31
g32
sba(iexpclass
expclass
p153
(dp154
g6
S'sodalite'
p155
sg8
S'gas'
p156
sg10
F0.057000000042984625
sg11
S'Durante'
p157
sg13
F-1.244125144
sg14
S'yes'
p158
sg16
S'Fe'
p159
sg18
g19
sg20
S'None'
p160
sg22
I735
sg23
S'O2'
p161
sg25
Nsg26
S'heterogeneous'
p162
sg28
F58.0
sg29
g30
sg31
g32
sba(iexpclass
expclass
p163
(dp164
g6
S'sodalite'
p165
sg8
S'gas'
p166
sg10
F0.045000000023278065
sg11
S'Durante'
p167
sg13
F-1.346787486
sg14
S'yes'
p168
sg16
S'Fe'
p169
sg18
g19
sg20
S'None'
p170
sg22
I692
sg23
S'O2'
p171
sg25
Nsg26
S'heterogeneous'
p172
sg28
F59.0
sg29
g30
sg31
g32
sba(iexpclass
expclass
p173
(dp174
g6
S'sodalite'
p175
sg8
S'gas'
p176
sg10
F0.05400000002201201
sg11
S'Durante'
p177
sg13
F-1.26760624
sg14
S'yes'
p178
sg16
S'Fe'
p179
sg18
g19
sg20
S'None'
p180
sg22
I698
sg23
S'O2'
p181
sg25
Nsg26
S'heterogeneous'
p182
sg28
F63.0
sg29
g30
sg31
g32
sba(iexpclass
expclass
p183
(dp184
g6
S'sodalite'
p185
sg8
S'gas'
p186
sg10
F0.057000000042984625
sg11
S'Durante'
p187
sg13
F-1.244125144
sg14
S'yes'
p188
sg16
S'Fe'
p189
sg18
g19
sg20
S'None'
p190
sg22
I703
sg23
S'O2'
p191
sg25
Nsg26
S'heterogeneous'
p192
sg28
F62.0
sg29
g30
sg31
g32
sba(iexpclass
expclass
p193
(dp194
g6
S'sodalite'
p195
sg8
S'gas'
p196
sg10
F0.053000000048718514
sg11
S'Durante'
p197
sg13
F-1.27572413
sg14
S'yes'
p198
sg16
S'Fe'
p199
sg18
g19
sg20
S'None'
p200
sg22
I713
sg23
S'O2'
p201
sg25
Nsg26
S'heterogeneous'
p202
sg28
F59.0
sg29
g30
sg31
g32
sba(iexpclass
expclass
p203
(dp204
g6
S'sodalite'
p205
sg8
S'gas'
p206
sg10
F0.039999999969793545
sg11
S'Durante'
p207
sg13
F-1.397940009
sg14
S'yes'
p208
sg16
S'Fe'
p209
sg18
g19
sg20
S'None'
p210
sg22
I703
sg23
S'O2'
p211
sg25
Nsg26
S'heterogeneous'
p212
sg28
F52.0
sg29
g30
sg31
g32
sba(iexpclass
expclass
p213
(dp214
g6
S'sodalite'
p215
sg8
S'gas'
p216
sg10
F0.04600000003372733
sg11
S'Durante'
p217
sg13
F-1.337242168
sg14
S'yes'
p218
sg16
S'Fe'
p219
sg18
g19
sg20
S'None'
p220
sg22
I711
sg23
S'O2'
p221
sg25
Nsg26
S'heterogeneous'
p222
sg28
F55.0
sg29
g30
sg31
g32
sba(iexpclass
expclass
p223
(dp224
g6
S'sodalite'
p225
sg8
S'gas'
p226
sg10
F0.048999999996782895
sg11
S'Durante'
p227
sg13
F-1.30980392
sg14
S'yes'
p228
sg16
S'Fe'
p229
sg18
g19
sg20
S'None'
p230
sg22
I717
sg23
S'O2'
p231
sg25
Nsg26
S'heterogeneous'
p232
sg28
F54.0
sg29
g30
sg31
g32
sba(iexpclass
expclass
p233
(dp234
g6
S'sodalite'
p235
sg8
S'gas'
p236
sg10
F0.024000000015937235
sg11
S'Durante'
p237
sg13
F-1.619788758
sg14
S'yes'
p238
sg16
S'Fe'
p239
sg18
g19
sg20
S'None'
p240
sg22
I710
sg23
S'O2'
p241
sg25
Nsg26
S'heterogeneous'
p242
sg28
F43.0
sg29
g30
sg31
g32
sba(iexpclass
expclass
p243
(dp244
g6
S'sodalite'
p245
sg8
S'gas'
p246
sg10
F0.031000000011829645
sg11
S'Durante'
p247
sg13
F-1.508638306
sg14
S'yes'
p248
sg16
S'Fe'
p249
sg18
g19
sg20
S'None'
p250
sg22
I722
sg23
S'O2'
p251
sg25
Nsg26
S'heterogeneous'
p252
sg28
F45.0
sg29
g30
sg31
g32
sba(iexpclass
expclass
p253
(dp254
g6
S'sodalite'
p255
sg8
S'gas'
p256
sg10
F0.034999999971771126
sg11
S'Durante'
p257
sg13
F-1.455931956
sg14
S'yes'
p258
sg16
S'Fe'
p259
sg18
g19
sg20
S'None'
p260
sg22
I724
sg23
S'O2'
p261
sg25
Nsg26
S'heterogeneous'
p262
sg28
F46.0
sg29
g30
sg31
g32
sba(iexpclass
expclass
p263
(dp264
g6
S'sodalite'
p265
sg8
S'gas'
p266
sg10
F0.03699999999429231
sg11
S'Durante'
p267
sg13
F-1.431798276
sg14
S'yes'
p268
sg16
S'Fe'
p269
sg18
g19
sg20
S'None'
p270
sg22
I728
sg23
S'O2'
p271
sg25
Nsg26
S'heterogeneous'
p272
sg28
F45.0
sg29
g30
sg31
g32
sba(iexpclass
expclass
p273
(dp274
g6
S'sodalite'
p275
sg8
S'gas'
p276
sg10
F0.038999999997620355
sg11
S'Durante'
p277
sg13
F-1.408935393
sg14
S'yes'
p278
sg16
S'Fe'
p279
sg18
g19
sg20
S'None'
p280
sg22
I732
sg23
S'O2'
p281
sg25
Nsg26
S'heterogeneous'
p282
sg28
F44.0
sg29
g30
sg31
g32
sba(iexpclass
expclass
p283
(dp284
g6
S'sodalite'
p285
sg8
S'gas'
p286
sg10
F0.0160000000126762
sg11
S'Durante'
p287
sg13
F-1.795880017
sg14
S'yes'
p288
sg16
S'Fe'
p289
sg18
g19
sg20
S'None'
p290
sg22
I726
sg23
S'O2'
p291
sg25
Nsg26
S'heterogeneous'
p292
sg28
F38.0
sg29
g30
sg31
g32
sba(iexpclass
expclass
p293
(dp294
g6
S'sodalite'
p295
sg8
S'gas'
p296
sg10
F0.026000000001747046
sg11
S'Durante'
p297
sg13
F-1.585026652
sg14
S'yes'
p298
sg16
S'Fe'
p299
sg18
g19
sg20
S'None'
p300
sg22
I739
sg23
S'O2'
p301
sg25
Nsg26
S'heterogeneous'
p302
sg28
F40.0
sg29
g30
sg31
g32
sba(iexpclass
expclass
p303
(dp304
g6
S'sodalite'
p305
sg8
S'gas'
p306
sg10
F0.057000000042984625
sg11
S'Durante'
p307
sg13
F-1.244125144
sg14
S'yes'
p308
sg16
S'Fe'
p309
sg18
g19
sg20
S'None'
p310
sg22
I701
sg23
S'O2'
p311
sg25
Nsg26
S'heterogeneous'
p312
sg28
F24.0
sg29
g30
sg31
g32
sba(iexpclass
expclass
p313
(dp314
g6
S'sodalite'
p315
sg8
S'gas'
p316
sg10
F0.05800000005836969
sg11
S'Durante'
p317
sg13
F-1.236572006
sg14
S'yes'
p318
sg16
S'Fe'
p319
sg18
g19
sg20
S'None'
p320
sg22
I707
sg23
S'O2'
p321
sg25
Nsg26
S'heterogeneous'
p322
sg28
F25.0
sg29
g30
sg31
g32
sba(iexpclass
expclass
p323
(dp324
g6
S'sodalite'
p325
sg8
S'gas'
p326
sg10
F0.0559999999992005
sg11
S'Durante'
p327
sg13
F-1.251811973
sg14
S'yes'
p328
sg16
S'Fe'
p329
sg18
g19
sg20
S'None'
p330
sg22
I712
sg23
S'O2'
p331
sg25
Nsg26
S'heterogeneous'
p332
sg28
F21.0
sg29
g30
sg31
g32
sba(iexpclass
expclass
p333
(dp334
g6
S'sio2'
p335
sg8
S'gas'
p336
sg10
F0.022999999999068294
sg11
S'Durante'
p337
sg13
F-1.638272164
sg14
S'no'
p338
sg16
S'Fe'
p339
sg18
g19
sg20
S'None'
p340
sg22
I712
sg23
S'O2'
p341
sg25
Nsg26
S'heterogeneous'
p342
sg28
F25.0
sg29
g30
sg31
g32
sba(iexpclass
expclass
p343
(dp344
g6
S'ZSM-5'
p345
sg8
S'gas'
p346
sg10
F0.05099999998849915
sg11
S'Durante'
p347
sg13
F-1.292429824
sg14
S'yes'
p348
sg16
S'Fe'
p349
sg18
g19
sg20
S'None'
p350
sg22
I709
sg23
S'O2'
p351
sg25
Nsg26
S'heterogeneous'
p352
sg28
F18.0
sg29
g30
sg31
g32
sba(iexpclass
expclass
p353
(dp354
g6
S'sodalite'
p355
sg8
S'gas'
p356
sg10
F0.05800000005836969
sg11
S'Durante'
p357
sg13
F-1.236572006
sg14
S'yes'
p358
sg16
S'Fe'
p359
sg18
g19
sg20
S'None'
p360
sg22
I708
sg23
S'O2'
p361
sg25
Nsg26
S'heterogeneous'
p362
sg28
F25.0
sg29
g30
sg31
g32
sba(iexpclass
expclass
p363
(dp364
g6
S'MO3/SiO2/Al2O3'
p365
sg8
S'gas'
p366
sg10
F0.022999999999068294
sg11
S'Durante'
p367
sg13
F-1.638272164
sg14
S'no'
p368
sg16
S'Fe'
p369
sg18
g19
sg20
S'None'
p370
sg22
I723
sg23
S'O2'
p371
sg25
Nsg26
S'heterogeneous'
p372
sg28
F47.0
sg29
g30
sg31
g32
sba(iexpclass
expclass
p373
(dp374
g6
S'Sodalite'
p375
sg8
S'gas'
p376
sg10
F0.048999999996782895
sg11
S'Durante'
p377
sg13
F-1.30980392
sg14
S'yes'
p378
sg16
S'Fe'
p379
sg18
g19
sg20
S'None'
p380
sg22
I717
sg23
S'O2'
p381
sg25
Nsg26
S'heterogeneous'
p382
sg28
F54.0
sg29
g30
sg31
g32
sba(iexpclass
expclass
p383
(dp384
g6
S'glass-beads'
p385
sg8
S'gas'
p386
sg10
F0.0020000000015474237
sg11
S'Durante'
p387
sg13
F-2.698970004
sg14
S'no'
p388
sg16
S'Fe'
p389
sg18
g19
sg20
S'None'
p390
sg22
I680
sg23
S'O2'
p391
sg25
Nsg26
S'heterogeneous'
p392
sg28
F47.0
sg29
g30
sg31
g32
sba(iexpclass
expclass
p393
(dp394
g6
S'glass-beads'
p395
sg8
S'gas'
p396
sg10
F0.014000000010372377
sg11
S'Durante'
p397
sg13
F-1.853871964
sg14
S'no'
p398
sg16
S'Fe'
p399
sg18
g19
sg20
S'None'
p400
sg22
I691
sg23
S'O2'
p401
sg25
Nsg26
S'heterogeneous'
p402
sg28
F44.0
sg29
g30
sg31
g32
sba(iexpclass
expclass
p403
(dp404
g6
S'glass-beads'
p405
sg8
S'gas'
p406
sg10
F0.025000000018879035
sg11
S'Durante'
p407
sg13
F-1.602059991
sg14
S'no'
p408
sg16
S'Fe'
p409
sg18
g19
sg20
S'None'
p410
sg22
I695
sg23
S'O2'
p411
sg25
Nsg26
S'heterogeneous'
p412
sg28
F56.0
sg29
g30
sg31
g32
sba(iexpclass
expclass
p413
(dp414
g6
S'glass-beads'
p415
sg8
S'gas'
p416
sg10
F0.043000000041625616
sg11
S'Durante'
p417
sg13
F-1.366531544
sg14
S'no'
p418
sg16
S'Fe'
p419
sg18
g19
sg20
S'None'
p420
sg22
I703
sg23
S'O2'
p421
sg25
Nsg26
S'heterogeneous'
p422
sg28
F56.0
sg29
g30
sg31
g32
sba(iexpclass
expclass
p423
(dp424
g6
S'hydroxysodalite'
p425
sg8
S'gas'
p426
sg10
F0.0030000000019365044
sg11
S'Durante'
p427
sg13
F-2.522878745
sg14
S'yes'
p428
sg16
S'Fe'
p429
sg18
g19
sg20
S'None'
p430
sg22
I708
sg23
S'O2'
p431
sg25
Nsg26
S'heterogeneous'
p432
sg28
F59.0
sg29
g30
sg31
g32
sba(iexpclass
expclass
p433
(dp434
g6
S'hydroxysodalite'
p435
sg8
S'gas'
p436
sg10
F0.05099999998849915
sg11
S'Durante'
p437
sg13
F-1.292429824
sg14
S'yes'
p438
sg16
S'Fe'
p439
sg18
g19
sg20
S'None'
p440
sg22
I718
sg23
S'O2'
p441
sg25
Nsg26
S'heterogeneous'
p442
sg28
F24.0
sg29
g30
sg31
g32
sba(iexpclass
expclass
p443
(dp444
g6
S'hydroxysodalite'
p445
sg8
S'gas'
p446
sg10
F0.053000000048718514
sg11
S'Durante'
p447
sg13
F-1.27572413
sg14
S'yes'
p448
sg16
S'Fe'
p449
sg18
g19
sg20
S'None'
p450
sg22
I707
sg23
S'O2'
p451
sg25
Nsg26
S'heterogeneous'
p452
sg28
F18.0
sg29
g30
sg31
g32
sba(iexpclass
expclass
p453
(dp454
g6
S'ZSM-5'
p455
sg8
S'gas'
p456
sg10
F0.0038999999997620335
sg11
S'Wang'
p457
sg13
F-2.408935393
sg14
S'yes'
p458
sg16
S'Fe'
p459
sg18
g19
sg20
S'None'
p460
sg22
I700
sg23
S'O2'
p461
sg25
Nsg26
S'heterogeneous'
p462
sg28
F0.0
sg29
g30
sg31
g32
sba(iexpclass
expclass
p463
(dp464
g6
S'ZSM-5'
p465
sg8
S'gas'
p466
sg10
F0.009199999992679831
sg11
S'Wang'
p467
sg13
F-2.036212173
sg14
S'yes'
p468
sg16
S'Fe'
p469
sg18
g19
sg20
S'None'
p470
sg22
I700
sg23
S'O2'
p471
sg25
Nsg26
S'heterogeneous'
p472
sg28
F0.0
sg29
g30
sg31
g32
sba(iexpclass
expclass
p473
(dp474
g6
S'ferrisilicate'
p475
sg8
S'gas'
p476
sg10
F0.0030000000019365044
sg11
S'Wang'
p477
sg13
F-2.522878745
sg14
S'yes'
p478
sg16
S'Fe'
p479
sg18
g19
sg20
S'None'
p480
sg22
I700
sg23
S'O2'
p481
sg25
Nsg26
S'heterogeneous'
p482
sg28
F0.0
sg29
g30
sg31
g32
sba(iexpclass
expclass
p483
(dp484
g6
S'ferrisilicate'
p485
sg8
S'gas'
p486
sg10
F0.014999999998076842
sg11
S'Wang'
p487
sg13
F-1.823908741
sg14
S'yes'
p488
sg16
S'Fe'
p489
sg18
g19
sg20
S'None'
p490
sg22
I700
sg23
S'O2'
p491
sg25
Nsg26
S'heterogeneous'
p492
sg28
F0.0
sg29
g30
sg31
g32
sba(iexpclass
expclass
p493
(dp494
g6
S'FAPO-5'
p495
sg8
S'gas'
p496
sg10
F0.008000000000148404
sg11
S'Wang'
p497
sg13
F-2.096910013
sg14
S'yes'
p498
sg16
S'Fe'
p499
sg18
g19
sg20
S'None'
p500
sg22
I700
sg23
S'O2'
p501
sg25
Nsg26
S'heterogeneous'
p502
sg28
F0.0
sg29
g30
sg31
g32
sba(iexpclass
expclass
p503
(dp504
g6
S'FAPO-5'
p505
sg8
S'gas'
p506
sg10
F0.014700000008523732
sg11
S'Wang'
p507
sg13
F-1.832682665
sg14
S'yes'
p508
sg16
S'Fe'
p509
sg18
g19
sg20
S'None'
p510
sg22
I700
sg23
S'O2'
p511
sg25
Nsg26
S'heterogeneous'
p512
sg28
F1.9
sg29
g30
sg31
g32
sba(iexpclass
expclass
p513
(dp514
g6
S'phosphate'
p515
sg8
S'gas'
p516
sg10
F0.0008000000000148404
sg11
S'Wang'
p517
sg13
F-3.096910013
sg14
S'no'
p518
sg16
S'Fe'
p519
sg18
g19
sg20
S'None'
p520
sg22
I700
sg23
S'O2'
p521
sg25
Nsg26
S'heterogeneous'
p522
sg28
F1.6
sg29
g30
sg31
g32
sba(iexpclass
expclass
p523
(dp524
g6
S'phosphate'
p525
sg8
S'gas'
p526
sg10
F0.0019000000002063692
sg11
S'Wang'
p527
sg13
F-2.721246399
sg14
S'no'
p528
sg16
S'Fe'
p529
sg18
g19
sg20
S'None'
p530
sg22
I700
sg23
S'O2'
p531
sg25
Nsg26
S'heterogeneous'
p532
sg28
F20.3
sg29
g30
sg31
g32
sba(iexpclass
expclass
p533
(dp534
g6
S'phosphate'
p535
sg8
S'gas'
p536
sg10
F0.005099999998849914
sg11
S'Wang'
p537
sg13
F-2.292429824
sg14
S'no'
p538
sg16
S'Fe'
p539
sg18
g19
sg20
S'None'
p540
sg22
I700
sg23
S'O2'
p541
sg25
Nsg26
S'heterogeneous'
p542
sg28
F25.7
sg29
g30
sg31
g32
sba(iexpclass
expclass
p543
(dp544
g6
S'MCM-41/PO4'
p545
sg8
S'gas'
p546
sg10
F0.000499999999613144
sg11
S'Wang'
p547
sg13
F-3.301029996
sg14
S'yes'
p548
sg16
S'Fe'
p549
sg18
g19
sg20
S'None'
p550
sg22
I673
sg23
S'N2O'
p551
sg25
Nsg26
S'heterogeneous'
p552
sg28
F0.0
sg29
g30
sg31
g32
sba(iexpclass
expclass
p553
(dp554
g6
S'MCM-41/PO4'
p555
sg8
S'gas'
p556
sg10
F0.0010999999995992406
sg11
S'Wang'
p557
sg13
F-2.958607315
sg14
S'yes'
p558
sg16
S'Fe'
p559
sg18
g19
sg20
S'None'
p560
sg22
I723
sg23
S'N2O'
p561
sg25
Nsg26
S'heterogeneous'
p562
sg28
F0.0
sg29
g30
sg31
g32
sba(iexpclass
expclass
p563
(dp564
g6
S'MCM-41/PO4'
p565
sg8
S'gas'
p566
sg10
F0.0030000000019365044
sg11
S'Wang'
p567
sg13
F-2.522878745
sg14
S'yes'
p568
sg16
S'Fe'
p569
sg18
g19
sg20
S'None'
p570
sg22
I673
sg23
S'N2O'
p571
sg25
Nsg26
S'heterogeneous'
p572
sg28
F15.0
sg29
g30
sg31
g32
sba(iexpclass
expclass
p573
(dp574
g6
S'MCM-41/PO4'
p575
sg8
S'gas'
p576
sg10
F0.011499999990636459
sg11
S'Wang'
p577
sg13
F-1.93930216
sg14
S'yes'
p578
sg16
S'Fe'
p579
sg18
g19
sg20
S'None'
p580
sg22
I723
sg23
S'N2O'
p581
sg25
Nsg26
S'heterogeneous'
p582
sg28
F15.1
sg29
g30
sg31
g32
sba(iexpclass
expclass
p583
(dp584
g6
S'MCM-41/PO4'
p585
sg8
S'gas'
p586
sg10
F0.008399999998803103
sg11
S'Wang'
p587
sg13
F-2.075720714
sg14
S'yes'
p588
sg16
S'Fe'
p589
sg18
g19
sg20
S'None'
p590
sg22
I673
sg23
S'N2O'
p591
sg25
Nsg26
S'heterogeneous'
p592
sg28
F23.6
sg29
g30
sg31
g32
sba(iexpclass
expclass
p593
(dp594
g6
S'MCM-41/PO4'
p595
sg8
S'gas'
p596
sg10
F0.023799999996903055
sg11
S'Wang'
p597
sg13
F-1.623423043
sg14
S'yes'
p598
sg16
S'Fe'
p599
sg18
g19
sg20
S'None'
p600
sg22
I723
sg23
S'N2O'
p601
sg25
Nsg26
S'heterogeneous'
p602
sg28
F20.5
sg29
g30
sg31
g32
sba(iexpclass
expclass
p603
(dp604
g6
S'MCM-41/PO4'
p605
sg8
S'gas'
p606
sg10
F0.00980000000693895
sg11
S'Wang'
p607
sg13
F-2.008773924
sg14
S'yes'
p608
sg16
S'Fe'
p609
sg18
g19
sg20
S'None'
p610
sg22
I673
sg23
S'N2O'
p611
sg25
Nsg26
S'heterogeneous'
p612
sg28
F23.7
sg29
g30
sg31
g32
sba(iexpclass
expclass
p613
(dp614
g6
S'MCM-41/PO4'
p615
sg8
S'gas'
p616
sg10
F0.030100000028149828
sg11
S'Wang'
p617
sg13
F-1.521433504
sg14
S'yes'
p618
sg16
S'Fe'
p619
sg18
g19
sg20
S'None'
p620
sg22
I723
sg23
S'N2O'
p621
sg25
Nsg26
S'heterogeneous'
p622
sg28
F17.3
sg29
g30
sg31
g32
sba(iexpclass
expclass
p623
(dp624
g6
S'MCM-41/PO4'
p625
sg8
S'gas'
p626
sg10
F0.008799999996957169
sg11
S'Wang'
p627
sg13
F-2.055517328
sg14
S'yes'
p628
sg16
S'Fe'
p629
sg18
g19
sg20
S'None'
p630
sg22
I673
sg23
S'N2O'
p631
sg25
Nsg26
S'heterogeneous'
p632
sg28
F20.2
sg29
g30
sg31
g32
sba(iexpclass
expclass
p633
(dp634
g6
S'MCM-41/PO4'
p635
sg8
S'gas'
p636
sg10
F0.03379999997839085
sg11
S'Wang'
p637
sg13
F-1.4710833
sg14
S'yes'
p638
sg16
S'Fe'
p639
sg18
g19
sg20
S'None'
p640
sg22
I723
sg23
S'N2O'
p641
sg25
Nsg26
S'heterogeneous'
p642
sg28
F15.8
sg29
g30
sg31
g32
sba(iexpclass
expclass
p643
(dp644
g6
S'MCM-41/PO4'
p645
sg8
S'gas'
p646
sg10
F0.008700000007640016
sg11
S'Wang'
p647
sg13
F-2.060480747
sg14
S'yes'
p648
sg16
S'Fe'
p649
sg18
g19
sg20
S'None'
p650
sg22
I673
sg23
S'N2O'
p651
sg25
Nsg26
S'heterogeneous'
p652
sg28
F35.3
sg29
g30
sg31
g32
sba(iexpclass
expclass
p653
(dp654
g6
S'MCM-41/PO4'
p655
sg8
S'gas'
p656
sg10
F0.020099999980538952
sg11
S'Wang'
p657
sg13
F-1.696803943
sg14
S'yes'
p658
sg16
S'Fe'
p659
sg18
g19
sg20
S'None'
p660
sg22
I723
sg23
S'N2O'
p661
sg25
Nsg26
S'heterogeneous'
p662
sg28
F32.9
sg29
g30
sg31
g32
sba(iexpclass
expclass
p663
(dp664
g6
S'silicate'
p665
sg8
S'gas'
p666
sg10
F0.000499999999613144
sg11
S'Chen'
p667
sg13
F-3.301029996
sg14
S'no'
p668
sg16
S'V'
p669
sg18
g19
sg20
S'None'
p670
sg22
I713
sg23
S'N2O'
p671
sg25
Nsg26
S'heterogeneous'
p672
sg28
F13.3
sg29
S'blue'
p673
sg31
g32
sba(iexpclass
expclass
p674
(dp675
g6
S'silicate'
p676
sg8
S'gas'
p677
sg10
F0.0012999999990815274
sg11
S'Chen'
p678
sg13
F-2.886056648
sg14
S'no'
p679
sg16
g669
sg18
g19
sg20
S'None'
p680
sg22
I733
sg23
S'N2O'
p681
sg25
Nsg26
S'heterogeneous'
p682
sg28
F27.7
sg29
g673
sg31
g32
sba(iexpclass
expclass
p683
(dp684
g6
S'silicate'
p685
sg8
S'gas'
p686
sg10
F0.011599999993939012
sg11
S'Chen'
p687
sg13
F-1.935542011
sg14
S'no'
p688
sg16
g669
sg18
g19
sg20
S'None'
p689
sg22
I763
sg23
S'N2O'
p690
sg25
Nsg26
S'heterogeneous'
p691
sg28
F10.1
sg29
g673
sg31
g32
sba(iexpclass
expclass
p692
(dp693
g6
S'silicate'
p694
sg8
S'gas'
p695
sg10
F0.0006999999999770205
sg11
S'Chen'
p696
sg13
F-3.15490196
sg14
S'no'
p697
sg16
g669
sg18
g19
sg20
S'None'
p698
sg22
I713
sg23
S'N2O'
p699
sg25
Nsg26
S'heterogeneous'
p700
sg28
F56.7
sg29
g673
sg31
g32
sba(iexpclass
expclass
p701
(dp702
g6
S'silicate'
p703
sg8
S'gas'
p704
sg10
F0.0029000000006747214
sg11
S'Chen'
p705
sg13
F-2.537602002
sg14
S'no'
p706
sg16
g669
sg18
g19
sg20
S'None'
p707
sg22
I733
sg23
S'N2O'
p708
sg25
Nsg26
S'heterogeneous'
p709
sg28
F31.3
sg29
g673
sg31
g32
sba(iexpclass
expclass
p710
(dp711
g6
S'silicate'
p712
sg8
S'gas'
p713
sg10
F0.016800000010604565
sg11
S'Chen'
p714
sg13
F-1.774690718
sg14
S'no'
p715
sg16
g669
sg18
g19
sg20
S'None'
p716
sg22
I763
sg23
S'N2O'
p717
sg25
Nsg26
S'heterogeneous'
p718
sg28
F10.2
sg29
g673
sg31
g32
sba(iexpclass
expclass
p719
(dp720
g6
S'silicate'
p721
sg8
S'gas'
p722
sg10
F0.0027999999977936303
sg11
S'Chen'
p723
sg13
F-2.552841969
sg14
S'no'
p724
sg16
g669
sg18
g19
sg20
S'None'
p725
sg22
I713
sg23
S'N2O'
p726
sg25
Nsg26
S'heterogeneous'
p727
sg28
F18.4
sg29
g673
sg31
g32
sba(iexpclass
expclass
p728
(dp729
g6
S'silicate'
p730
sg8
S'gas'
p731
sg10
F0.009199999992679831
sg11
S'Chen'
p732
sg13
F-2.036212173
sg14
S'no'
p733
sg16
g669
sg18
g19
sg20
S'None'
p734
sg22
I733
sg23
S'N2O'
p735
sg25
Nsg26
S'heterogeneous'
p736
sg28
F8.7
sg29
g673
sg31
g32
sba(iexpclass
expclass
p737
(dp738
g6
S'silicate'
p739
sg8
S'gas'
p740
sg10
F0.04629999999808601
sg11
S'Chen'
p741
sg13
F-1.334419009
sg14
S'no'
p742
sg16
g669
sg18
g19
sg20
S'None'
p743
sg22
I763
sg23
S'N2O'
p744
sg25
Nsg26
S'heterogeneous'
p745
sg28
F2.7
sg29
g673
sg31
g32
sba(iexpclass
expclass
p746
(dp747
g6
S'silicate'
p748
sg8
S'gas'
p749
sg10
F0.004899999999678292
sg11
S'Chen'
p750
sg13
F-2.30980392
sg14
S'no'
p751
sg16
g669
sg18
g19
sg20
S'None'
p752
sg22
I713
sg23
S'N2O'
p753
sg25
Nsg26
S'heterogeneous'
p754
sg28
F6.8
sg29
g673
sg31
g32
sba(iexpclass
expclass
p755
(dp756
g6
S'silicate'
p757
sg8
S'gas'
p758
sg10
F0.017600000007531667
sg11
S'Chen'
p759
sg13
F-1.754487332
sg14
S'no'
p760
sg16
g669
sg18
g19
sg20
S'None'
p761
sg22
I733
sg23
S'N2O'
p762
sg25
Nsg26
S'heterogeneous'
p763
sg28
F3.1
sg29
g673
sg31
g32
sba(iexpclass
expclass
p764
(dp765
g6
S'silicate'
p766
sg8
S'gas'
p767
sg10
F0.08769999992608296
sg11
S'Chen'
p768
sg13
F-1.057000407
sg14
S'no'
p769
sg16
g669
sg18
g19
sg20
S'None'
p770
sg22
I763
sg23
S'N2O'
p771
sg25
Nsg26
S'heterogeneous'
p772
sg28
F0.2
sg29
g673
sg31
g32
sba(iexpclass
expclass
p773
(dp774
g6
S'ZSM-5'
p775
sg8
S'gas'
p776
sg10
F0.11220000002063116
sg11
S'Michalkiewicz'
p777
sg13
F-0.950007143
sg14
S'yes'
p778
sg16
S'Fe'
p779
sg18
g19
sg20
S'None'
p780
sg22
I903
sg23
S'O2'
p781
sg25
Nsg26
S'heterogeneous'
p782
sg28
F16.51
sg29
g30
sg31
g32
sba(iexpclass
expclass
p783
(dp784
g6
S'ZSM-5'
p785
sg8
S'gas'
p786
sg10
F0.191099999975793
sg11
S'Michalkiewicz'
p787
sg13
F-0.718739313
sg14
S'yes'
p788
sg16
S'Fe'
p789
sg18
g19
sg20
S'None'
p790
sg22
I903
sg23
S'O2'
p791
sg25
Nsg26
S'heterogeneous'
p792
sg28
F14.17
sg29
g30
sg31
g32
sba(iexpclass
expclass
p793
(dp794
g6
S'ZSM-5'
p795
sg8
S'gas'
p796
sg10
F0.31509999987375553
sg11
S'Michalkiewicz'
p797
sg13
F-0.501551597
sg14
S'yes'
p798
sg16
S'Fe'
p799
sg18
g19
sg20
S'None'
p800
sg22
I903
sg23
S'O2'
p801
sg25
Nsg26
S'heterogeneous'
p802
sg28
F10.79
sg29
g30
sg31
g32
sba(iexpclass
expclass
p803
(dp804
g6
S'ZSM-5'
p805
sg8
S'gas'
p806
sg10
F0.0005999999994699769
sg11
S'Michalkiewicz'
p807
sg13
F-3.22184875
sg14
S'yes'
p808
sg16
S'Fe'
p809
sg18
g19
sg20
S'None'
p810
sg22
I623
sg23
S'O2'
p811
sg25
Nsg26
S'heterogeneous'
p812
sg28
F74.37
sg29
g30
sg31
g32
sba(iexpclass
expclass
p813
(dp814
g6
S'ZSM-5'
p815
sg8
S'gas'
p816
sg10
F0.0006999999999770205
sg11
S'Michalkiewicz'
p817
sg13
F-3.15490196
sg14
S'yes'
p818
sg16
S'Fe'
p819
sg18
g19
sg20
S'None'
p820
sg22
I623
sg23
S'O2'
p821
sg25
Nsg26
S'heterogeneous'
p822
sg28
F69.13
sg29
g30
sg31
g32
sba(iexpclass
expclass
p823
(dp824
g6
S'ZSM-5'
p825
sg8
S'gas'
p826
sg10
F0.001
sg11
S'Michalkiewicz'
p827
sg13
F-3.0
sg14
S'yes'
p828
sg16
S'Fe'
p829
sg18
g19
sg20
S'None'
p830
sg22
I623
sg23
S'O2'
p831
sg25
Nsg26
S'heterogeneous'
p832
sg28
F63.47
sg29
g30
sg31
g32
sba(iexpclass
expclass
p833
(dp834
g6
S'pyrophosphate'
p835
sg8
S'gas'
p836
sg10
F0.031000000011829645
sg11
S'Polniser'
p837
sg13
F-1.508638306
sg14
S'no'
p838
sg16
S'Cu-Fe'
p839
sg18
g19
sg20
S'None'
p840
sg22
I903
sg23
S'N2O'
p841
sg25
Nsg26
S'heterogeneous'
p842
sg28
F2.1
sg29
g30
sg31
g32
sba(iexpclass
expclass
p843
(dp844
g6
S'pyrophosphate'
p845
sg8
S'gas'
p846
sg10
F0.04399999995074252
sg11
S'Polniser'
p847
sg13
F-1.356547324
sg14
S'no'
p848
sg16
S'Cu-Fe'
p849
sg18
g19
sg20
S'None'
p850
sg22
I903
sg23
S'N2O'
p851
sg25
Nsg26
S'heterogeneous'
p852
sg28
F1.9
sg29
g30
sg31
g32
sba(iexpclass
expclass
p853
(dp854
g6
S'pyrophosphate'
p855
sg8
S'gas'
p856
sg10
F0.045000000023278065
sg11
S'Polniser'
p857
sg13
F-1.346787486
sg14
S'no'
p858
sg16
S'Cu-Fe'
p859
sg18
g19
sg20
S'None'
p860
sg22
I903
sg23
S'N2O'
p861
sg25
Nsg26
S'heterogeneous'
p862
sg28
F2.5
sg29
g30
sg31
g32
sba(iexpclass
expclass
p863
(dp864
g6
S'pyrophosphate'
p865
sg8
S'gas'
p866
sg10
F0.06400000000237446
sg11
S'Polniser'
p867
sg13
F-1.193820026
sg14
S'no'
p868
sg16
S'Cu-Fe'
p869
sg18
g19
sg20
S'None'
p870
sg22
I903
sg23
S'N2O'
p871
sg25
Nsg26
S'heterogeneous'
p872
sg28
F1.8
sg29
g30
sg31
g32
sba(iexpclass
expclass
p873
(dp874
g6
S'pyrophosphate'
p875
sg8
S'gas'
p876
sg10
F0.06900000004174443
sg11
S'Polniser'
p877
sg13
F-1.161150909
sg14
S'no'
p878
sg16
S'Cu-Fe'
p879
sg18
g19
sg20
S'None'
p880
sg22
I903
sg23
S'N2O'
p881
sg25
Nsg26
S'heterogeneous'
p882
sg28
F1.2
sg29
g30
sg31
g32
sba(iexpclass
expclass
p883
(dp884
g6
S'pyrophosphate'
p885
sg8
S'gas'
p886
sg10
F0.045000000023278065
sg11
S'Polniser'
p887
sg13
F-1.346787486
sg14
S'no'
p888
sg16
S'Cu-Fe'
p889
sg18
g19
sg20
S'None'
p890
sg22
I903
sg23
S'N2O'
p891
sg25
Nsg26
S'heterogeneous'
p892
sg28
F1.9
sg29
g30
sg31
g32
sba(iexpclass
expclass
p893
(dp894
g6
S'pyrophosphate'
p895
sg8
S'gas'
p896
sg10
F0.047999999958488575
sg11
S'Polniser'
p897
sg13
F-1.318758763
sg14
S'no'
p898
sg16
S'Cu-Fe'
p899
sg18
g19
sg20
S'None'
p900
sg22
I903
sg23
S'N2O'
p901
sg25
Nsg26
S'heterogeneous'
p902
sg28
F2.6
sg29
g30
sg31
g32
sba(iexpclass
expclass
p903
(dp904
g6
S'pyrophosphate'
p905
sg8
S'gas'
p906
sg10
F0.05099999998849915
sg11
S'Polniser'
p907
sg13
F-1.292429824
sg14
S'no'
p908
sg16
S'Cu-Fe'
p909
sg18
g19
sg20
S'None'
p910
sg22
I903
sg23
S'N2O'
p911
sg25
Nsg26
S'heterogeneous'
p912
sg28
F2.5
sg29
g30
sg31
g32
sba(iexpclass
expclass
p913
(dp914
g6
S'pyrophosphate'
p915
sg8
S'gas'
p916
sg10
F0.05400000002201201
sg11
S'Polniser'
p917
sg13
F-1.26760624
sg14
S'no'
p918
sg16
S'Cu-Fe'
p919
sg18
g19
sg20
S'None'
p920
sg22
I903
sg23
S'N2O'
p921
sg25
Nsg26
S'heterogeneous'
p922
sg28
F2.3
sg29
g30
sg31
g32
sba(iexpclass
expclass
p923
(dp924
g6
S'pyrophosphate'
p925
sg8
S'gas'
p926
sg10
F0.014999999998076842
sg11
S'Polniser'
p927
sg13
F-1.823908741
sg14
S'no'
p928
sg16
S'Cu-Fe'
p929
sg18
g19
sg20
S'None'
p930
sg22
I903
sg23
S'N2O'
p931
sg25
Nsg26
S'heterogeneous'
p932
sg28
F9.1
sg29
g30
sg31
g32
sba(iexpclass
expclass
p933
(dp934
g6
S'pyrophosphate'
p935
sg8
S'gas'
p936
sg10
F0.012999999990815267
sg11
S'Polniser'
p937
sg13
F-1.886056648
sg14
S'no'
p938
sg16
S'Cu-Fe'
p939
sg18
g19
sg20
S'None'
p940
sg22
I903
sg23
S'N2O'
p941
sg25
Nsg26
S'heterogeneous'
p942
sg28
F10.1
sg29
g30
sg31
g32
sba(iexpclass
expclass
p943
(dp944
g6
S'MoO3'
p945
sg8
S'gas'
p946
sg10
F0.0030000000019365044
sg11
S'Taylor'
p947
sg13
F-2.522878745
sg14
S'no'
p948
sg16
S'Mo'
p949
sg18
g19
sg20
S'None'
p950
sg22
I723
sg23
S'O2'
p951
sg25
Nsg26
S'heterogeneous'
p952
sg28
F11.0
sg29
S'm'
p953
sg31
g32
sba(iexpclass
expclass
p954
(dp955
g6
S'MoO3'
p956
sg8
S'gas'
p957
sg10
F0.01199999999868408
sg11
S'Taylor'
p958
sg13
F-1.920818754
sg14
S'no'
p959
sg16
S'Mo'
p960
sg18
g19
sg20
S'None'
p961
sg22
I773
sg23
S'O2'
p962
sg25
Nsg26
S'heterogeneous'
p963
sg28
F0.0
sg29
g953
sg31
g32
sba(iexpclass
expclass
p964
(dp965
g6
S'MoO3'
p966
sg8
S'gas'
p967
sg10
F0.0059999999946997685
sg11
S'Taylor'
p968
sg13
F-2.22184875
sg14
S'no'
p969
sg16
S'Cu'
p970
sg18
g19
sg20
S'None'
p971
sg22
I723
sg23
S'O2'
p972
sg25
Nsg26
S'heterogeneous'
p973
sg28
F19.0
sg29
S'goldenrod'
p974
sg31
g32
sba(iexpclass
expclass
p975
(dp976
g6
S'MoO3'
p977
sg8
S'gas'
p978
sg10
F0.04199999996151961
sg11
S'Taylor'
p979
sg13
F-1.37675071
sg14
S'no'
p980
sg16
S'Cu'
p981
sg18
g19
sg20
S'None'
p982
sg22
I773
sg23
S'O2'
p983
sg25
Nsg26
S'heterogeneous'
p984
sg28
F0.0
sg29
g974
sg31
g32
sba(iexpclass
expclass
p985
(dp986
g6
S'MoO3'
p987
sg8
S'gas'
p988
sg10
F0.00499999999613144
sg11
S'Taylor'
p989
sg13
F-2.301029996
sg14
S'no'
p990
sg16
S'Co'
p991
sg18
g19
sg20
S'None'
p992
sg22
I723
sg23
S'O2'
p993
sg25
Nsg26
S'heterogeneous'
p994
sg28
F14.0
sg29
S'cyan'
p995
sg31
g32
sba(iexpclass
expclass
p996
(dp997
g6
S'MoO3'
p998
sg8
S'gas'
p999
sg10
F0.029000000006747198
sg11
S'Taylor'
p1000
sg13
F-1.537602002
sg14
S'no'
p1001
sg16
S'Co'
p1002
sg18
g19
sg20
S'None'
p1003
sg22
I773
sg23
S'O2'
p1004
sg25
Nsg26
S'heterogeneous'
p1005
sg28
F0.0
sg29
g995
sg31
g32
sba(iexpclass
expclass
p1006
(dp1007
g6
S'MoO3'
p1008
sg8
S'gas'
p1009
sg10
F0.00499999999613144
sg11
S'Taylor'
p1010
sg13
F-2.301029996
sg14
S'no'
p1011
sg16
S'Fe'
p1012
sg18
g19
sg20
S'None'
p1013
sg22
I723
sg23
S'O2'
p1014
sg25
Nsg26
S'heterogeneous'
p1015
sg28
F14.0
sg29
g30
sg31
g32
sba(iexpclass
expclass
p1016
(dp1017
g6
S'MoO3'
p1018
sg8
S'gas'
p1019
sg10
F0.038999999997620355
sg11
S'Taylor'
p1020
sg13
F-1.408935393
sg14
S'no'
p1021
sg16
S'Fe'
p1022
sg18
g19
sg20
S'None'
p1023
sg22
I773
sg23
S'O2'
p1024
sg25
Nsg26
S'heterogeneous'
p1025
sg28
F0.0
sg29
g30
sg31
g32
sba(iexpclass
expclass
p1026
(dp1027
g6
S'MoO3'
p1028
sg8
S'gas'
p1029
sg10
F0.0059999999946997685
sg11
S'Taylor'
p1030
sg13
F-2.22184875
sg14
S'no'
p1031
sg16
g669
sg18
g19
sg20
S'None'
p1032
sg22
I723
sg23
S'O2'
p1033
sg25
Nsg26
S'heterogeneous'
p1034
sg28
F0.0
sg29
g673
sg31
g32
sba(iexpclass
expclass
p1035
(dp1036
g6
S'MoO3'
p1037
sg8
S'gas'
p1038
sg10
F0.0059999999946997685
sg11
S'Taylor'
p1039
sg13
F-2.22184875
sg14
S'no'
p1040
sg16
g669
sg18
g19
sg20
S'None'
p1041
sg22
I773
sg23
S'O2'
p1042
sg25
Nsg26
S'heterogeneous'
p1043
sg28
F0.0
sg29
g673
sg31
g32
sba(iexpclass
expclass
p1044
(dp1045
g6
S'MoO3'
p1046
sg8
S'gas'
p1047
sg10
F0.012999999990815267
sg11
S'Taylor'
p1048
sg13
F-1.886056648
sg14
S'no'
p1049
sg16
S'Ga'
p1050
sg18
g19
sg20
S'None'
p1051
sg22
I723
sg23
S'O2'
p1052
sg25
Nsg26
S'heterogeneous'
p1053
sg28
F10.0
sg29
S'green'
p1054
sg31
g32
sba(iexpclass
expclass
p1055
(dp1056
g6
S'MoO3'
p1057
sg8
S'gas'
p1058
sg10
F0.03199999997642845
sg11
S'Taylor'
p1059
sg13
F-1.494850022
sg14
S'no'
p1060
sg16
S'Ga'
p1061
sg18
g19
sg20
S'None'
p1062
sg22
I773
sg23
S'O2'
p1063
sg25
Nsg26
S'heterogeneous'
p1064
sg28
F0.0
sg29
g1054
sg31
g32
sba(iexpclass
expclass
p1065
(dp1066
g6
S'WO3'
p1067
sg8
S'gas'
p1068
sg10
F0.00499999999613144
sg11
S'Taylor'
p1069
sg13
F-2.301029996
sg14
S'no'
p1070
sg16
S'W'
p1071
sg18
g19
sg20
S'None'
p1072
sg22
I723
sg23
S'O2'
p1073
sg25
Nsg26
S'heterogeneous'
p1074
sg28
F6.0
sg29
S'orange'
p1075
sg31
g32
sba(iexpclass
expclass
p1076
(dp1077
g6
S'WO3'
p1078
sg8
S'gas'
p1079
sg10
F0.003999999996979355
sg11
S'Taylor'
p1080
sg13
F-2.397940009
sg14
S'no'
p1081
sg16
g1071
sg18
g19
sg20
S'None'
p1082
sg22
I773
sg23
S'O2'
p1083
sg25
Nsg26
S'heterogeneous'
p1084
sg28
F0.0
sg29
g1075
sg31
g32
sba(iexpclass
expclass
p1085
(dp1086
g6
S'WO3'
p1087
sg8
S'gas'
p1088
sg10
F0.0030000000019365044
sg11
S'Taylor'
p1089
sg13
F-2.522878745
sg14
S'no'
p1090
sg16
S'Cu'
p1091
sg18
g19
sg20
S'None'
p1092
sg22
I723
sg23
S'O2'
p1093
sg25
Nsg26
S'heterogeneous'
p1094
sg28
F0.0
sg29
g974
sg31
g32
sba(iexpclass
expclass
p1095
(dp1096
g6
S'WO3'
p1097
sg8
S'gas'
p1098
sg10
F0.003999999996979355
sg11
S'Taylor'
p1099
sg13
F-2.397940009
sg14
S'no'
p1100
sg16
S'Cu'
p1101
sg18
g19
sg20
S'None'
p1102
sg22
I773
sg23
S'O2'
p1103
sg25
Nsg26
S'heterogeneous'
p1104
sg28
F0.0
sg29
g974
sg31
g32
sba(iexpclass
expclass
p1105
(dp1106
g6
S'WO3'
p1107
sg8
S'gas'
p1108
sg10
F0.01199999999868408
sg11
S'Taylor'
p1109
sg13
F-1.920818754
sg14
S'no'
p1110
sg16
S'Co'
p1111
sg18
g19
sg20
S'None'
p1112
sg22
I723
sg23
S'O2'
p1113
sg25
Nsg26
S'heterogeneous'
p1114
sg28
F0.0
sg29
g995
sg31
g32
sba(iexpclass
expclass
p1115
(dp1116
g6
S'WO3'
p1117
sg8
S'gas'
p1118
sg10
F0.003999999996979355
sg11
S'Taylor'
p1119
sg13
F-2.397940009
sg14
S'no'
p1120
sg16
S'Co'
p1121
sg18
g19
sg20
S'None'
p1122
sg22
I773
sg23
S'O2'
p1123
sg25
Nsg26
S'heterogeneous'
p1124
sg28
F0.0
sg29
g995
sg31
g32
sba(iexpclass
expclass
p1125
(dp1126
g6
S'WO3'
p1127
sg8
S'gas'
p1128
sg10
F0.0020000000015474237
sg11
S'Taylor'
p1129
sg13
F-2.698970004
sg14
S'no'
p1130
sg16
S'Fe'
p1131
sg18
g19
sg20
S'None'
p1132
sg22
I723
sg23
S'O2'
p1133
sg25
Nsg26
S'heterogeneous'
p1134
sg28
F0.0
sg29
g30
sg31
g32
sba(iexpclass
expclass
p1135
(dp1136
g6
S'WO3'
p1137
sg8
S'gas'
p1138
sg10
F0.0059999999946997685
sg11
S'Taylor'
p1139
sg13
F-2.22184875
sg14
S'no'
p1140
sg16
S'Fe'
p1141
sg18
g19
sg20
S'None'
p1142
sg22
I773
sg23
S'O2'
p1143
sg25
Nsg26
S'heterogeneous'
p1144
sg28
F0.0
sg29
g30
sg31
g32
sba(iexpclass
expclass
p1145
(dp1146
g6
S'WO3'
p1147
sg8
S'gas'
p1148
sg10
F0.008000000000148404
sg11
S'Taylor'
p1149
sg13
F-2.096910013
sg14
S'no'
p1150
sg16
g669
sg18
g19
sg20
S'None'
p1151
sg22
I723
sg23
S'O2'
p1152
sg25
Nsg26
S'heterogeneous'
p1153
sg28
F16.0
sg29
g673
sg31
g32
sba(iexpclass
expclass
p1154
(dp1155
g6
S'WO3'
p1156
sg8
S'gas'
p1157
sg10
F0.01199999999868408
sg11
S'Taylor'
p1158
sg13
F-1.920818754
sg14
S'no'
p1159
sg16
g669
sg18
g19
sg20
S'None'
p1160
sg22
I773
sg23
S'O2'
p1161
sg25
Nsg26
S'heterogeneous'
p1162
sg28
F0.0
sg29
g673
sg31
g32
sba(iexpclass
expclass
p1163
(dp1164
g6
S'WO3'
p1165
sg8
S'gas'
p1166
sg10
F0.003999999996979355
sg11
S'Taylor'
p1167
sg13
F-2.397940009
sg14
S'no'
p1168
sg16
S'Ga'
p1169
sg18
g19
sg20
S'None'
p1170
sg22
I723
sg23
S'O2'
p1171
sg25
Nsg26
S'heterogeneous'
p1172
sg28
F11.0
sg29
g1054
sg31
g32
sba(iexpclass
expclass
p1173
(dp1174
g6
S'WO3'
p1175
sg8
S'gas'
p1176
sg10
F0.01799999999571832
sg11
S'Taylor'
p1177
sg13
F-1.744727495
sg14
S'no'
p1178
sg16
S'Ga'
p1179
sg18
g19
sg20
S'None'
p1180
sg22
I773
sg23
S'O2'
p1181
sg25
Nsg26
S'heterogeneous'
p1182
sg28
F0.0
sg29
g1054
sg31
g32
sba(iexpclass
expclass
p1183
(dp1184
g6
S'MoO3'
p1185
sg8
S'gas'
p1186
sg10
F0.030000000019365026
sg11
S'Taylor'
p1187
sg13
F-1.522878745
sg14
S'no'
p1188
sg16
S'Ga'
p1189
sg18
g19
sg20
S'None'
p1190
sg22
I723
sg23
S'O2'
p1191
sg25
Nsg26
S'heterogeneous'
p1192
sg28
F22.0
sg29
g1054
sg31
g32
sba(iexpclass
expclass
p1193
(dp1194
g6
S'MoO3'
p1195
sg8
S'gas'
p1196
sg10
F0.031000000011829645
sg11
S'Taylor'
p1197
sg13
F-1.508638306
sg14
S'no'
p1198
sg16
S'Ga'
p1199
sg18
g19
sg20
S'None'
p1200
sg22
I773
sg23
S'O2'
p1201
sg25
Nsg26
S'heterogeneous'
p1202
sg28
F0.0
sg29
g1054
sg31
g32
sba(iexpclass
expclass
p1203
(dp1204
g6
S'MoO3'
p1205
sg8
S'gas'
p1206
sg10
F0.003999999996979355
sg11
S'Taylor'
p1207
sg13
F-2.397940009
sg14
S'no'
p1208
sg16
S'Zn'
p1209
sg18
g19
sg20
S'None'
p1210
sg22
I728
sg23
S'O2'
p1211
sg25
Nsg26
S'heterogeneous'
p1212
sg28
F0.0
sg29
S'grey'
p1213
sg31
g32
sba(iexpclass
expclass
p1214
(dp1215
g6
S'MoO3'
p1216
sg8
S'gas'
p1217
sg10
F0.036000000019290275
sg11
S'Taylor'
p1218
sg13
F-1.443697499
sg14
S'no'
p1219
sg16
S'Zn'
p1220
sg18
g19
sg20
S'None'
p1221
sg22
I773
sg23
S'O2'
p1222
sg25
Nsg26
S'heterogeneous'
p1223
sg28
F0.0
sg29
g1213
sg31
g32
sba(iexpclass
expclass
p1224
(dp1225
g6
S'Ga2O3'
p1226
sg8
S'gas'
p1227
sg10
F0.014999999998076842
sg11
S'Taylor'
p1228
sg13
F-1.823908741
sg14
S'no'
p1229
sg16
S'Ga'
p1230
sg18
g19
sg20
S'None'
p1231
sg22
I723
sg23
S'O2'
p1232
sg25
Nsg26
S'heterogeneous'
p1233
sg28
F3.0
sg29
g1054
sg31
g32
sba(iexpclass
expclass
p1234
(dp1235
g6
S'Ga2O3'
p1236
sg8
S'gas'
p1237
sg10
F0.031000000011829645
sg11
S'Taylor'
p1238
sg13
F-1.508638306
sg14
S'no'
p1239
sg16
S'Ga'
p1240
sg18
g19
sg20
S'None'
p1241
sg22
I773
sg23
S'O2'
p1242
sg25
Nsg26
S'heterogeneous'
p1243
sg28
F0.0
sg29
g1054
sg31
g32
sba(iexpclass
expclass
p1244
(dp1245
g6
S'quartz-packing'
p1246
sg8
S'gas'
p1247
sg10
F0.003999999996979355
sg11
S'Taylor'
p1248
sg13
F-2.397940009
sg14
S'yes'
p1249
sg16
S'-'
p1250
sg18
g19
sg20
S'None'
p1251
sg22
I723
sg23
S'O2'
p1252
sg25
Nsg26
S'heterogeneous'
p1253
sg28
F0.0
sg29
g1213
sg31
g32
sba(iexpclass
expclass
p1254
(dp1255
g6
S'quartz-packing'
p1256
sg8
S'gas'
p1257
sg10
F0.034999999971771126
sg11
S'Taylor'
p1258
sg13
F-1.455931956
sg14
S'yes'
p1259
sg16
g1250
sg18
g19
sg20
S'None'
p1260
sg22
I748
sg23
S'O2'
p1261
sg25
Nsg26
S'heterogeneous'
p1262
sg28
F15.0
sg29
g1213
sg31
g32
sba(iexpclass
expclass
p1263
(dp1264
g6
S'quartz-packing'
p1265
sg8
S'gas'
p1266
sg10
F0.034999999971771126
sg11
S'Taylor'
p1267
sg13
F-1.455931956
sg14
S'yes'
p1268
sg16
g1250
sg18
g19
sg20
S'None'
p1269
sg22
I773
sg23
S'O2'
p1270
sg25
Nsg26
S'heterogeneous'
p1271
sg28
F15.0
sg29
g1213
sg31
g32
sba(iexpclass
expclass
p1272
(dp1273
g6
S'quartz-packing'
p1274
sg8
S'gas'
p1275
sg10
F0.08100000002263297
sg11
S'Taylor'
p1276
sg13
F-1.091514981
sg14
S'yes'
p1277
sg16
g1250
sg18
g19
sg20
S'None'
p1278
sg22
I723
sg23
S'O2'
p1279
sg25
Nsg26
S'heterogeneous'
p1280
sg28
F29.0
sg29
g1213
sg31
g32
sba(iexpclass
expclass
p1281
(dp1282
g6
S'empty-tube'
p1283
sg8
S'gas'
p1284
sg10
F0.08000000000148404
sg11
S'Taylor'
p1285
sg13
F-1.096910013
sg14
S'yes'
p1286
sg16
g1250
sg18
g19
sg20
S'None'
p1287
sg22
I773
sg23
S'O2'
p1288
sg25
Nsg26
S'heterogeneous'
p1289
sg28
F19.0
sg29
g1213
sg31
g32
sba(iexpclass
expclass
p1290
(dp1291
g6
S'SiO2'
p1292
sg8
S'gas'
p1293
sg10
F0.0160000000126762
sg11
S'McCormick'
p1294
sg13
F-1.795880017
sg14
S'no'
p1295
sg16
S'Fe'
p1296
sg18
g19
sg20
S'None'
p1297
sg22
I873
sg23
S'O2'
p1298
sg25
Nsg26
S'heterogeneous'
p1299
sg28
F2.0
sg29
g30
sg31
g32
sba(iexpclass
expclass
p1300
(dp1301
g6
S'SiO2'
p1302
sg8
S'gas'
p1303
sg10
F0.016999999985192867
sg11
S'McCormick'
p1304
sg13
F-1.769551079
sg14
S'no'
p1305
sg16
S'Fe'
p1306
sg18
g19
sg20
S'None'
p1307
sg22
I873
sg23
S'O2'
p1308
sg25
Nsg26
S'heterogeneous'
p1309
sg28
F1.0
sg29
g30
sg31
g32
sba(iexpclass
expclass
p1310
(dp1311
g6
S'TiO2'
p1312
sg8
S'gas'
p1313
sg10
F0.00701418455961067
sg11
S'McCormick'
p1314
sg13
F-2.154022811
sg14
S'no'
p1315
sg16
S'Fe'
p1316
sg18
g19
sg20
S'None'
p1317
sg22
I873
sg23
S'O2'
p1318
sg25
Nsg26
S'heterogeneous'
p1319
sg28
F5.746112338
sg29
g30
sg31
g32
sba(iexpclass
expclass
p1320
(dp1321
g6
S'TiO2'
p1322
sg8
S'gas'
p1323
sg10
F0.011157988205355792
sg11
S'McCormick'
p1324
sg13
F-1.952414102
sg14
S'no'
p1325
sg16
S'Fe'
p1326
sg18
g19
sg20
S'None'
p1327
sg22
I873
sg23
S'O2'
p1328
sg25
Nsg26
S'heterogeneous'
p1329
sg28
F4.36750074
sg29
g30
sg31
g32
sba(iexpclass
expclass
p1330
(dp1331
g6
S'TiO2'
p1332
sg8
S'gas'
p1333
sg10
F0.018066983918878
sg11
S'McCormick'
p1334
sg13
F-1.743114342
sg14
S'no'
p1335
sg16
S'Fe'
p1336
sg18
g19
sg20
S'None'
p1337
sg22
I873
sg23
S'O2'
p1338
sg25
Nsg26
S'heterogeneous'
p1339
sg28
F1.780469479
sg29
g30
sg31
g32
sba(iexpclass
expclass
p1340
(dp1341
g6
S'TiO2'
p1342
sg8
S'gas'
p1343
sg10
F0.024494660869904702
sg11
S'McCormick'
p1344
sg13
F-1.610928569
sg14
S'no'
p1345
sg16
S'Fe'
p1346
sg18
g19
sg20
S'None'
p1347
sg22
I873
sg23
S'O2'
p1348
sg25
Nsg26
S'heterogeneous'
p1349
sg28
F1.622800027
sg29
g30
sg31
g32
sba(iexpclass
expclass
p1350
(dp1351
g6
S'TiO2'
p1352
sg8
S'gas'
p1353
sg10
F0.0311534345512944
sg11
S'McCormick'
p1354
sg13
F-1.506494067
sg14
S'no'
p1355
sg16
S'Fe'
p1356
sg18
g19
sg20
S'None'
p1357
sg22
I873
sg23
S'O2'
p1358
sg25
Nsg26
S'heterogeneous'
p1359
sg28
F1.292092621
sg29
g30
sg31
g32
sba(iexpclass
expclass
p1360
(dp1361
g6
S'TiO2'
p1362
sg8
S'gas'
p1363
sg10
F0.03322055509736227
sg11
S'McCormick'
p1364
sg13
F-1.478593115
sg14
S'no'
p1365
sg16
S'Fe'
p1366
sg18
g19
sg20
S'None'
p1367
sg22
I873
sg23
S'O2'
p1368
sg25
Nsg26
S'heterogeneous'
p1369
sg28
F1.123608297
sg29
g30
sg31
g32
sba(iexpclass
expclass
p1370
(dp1371
g6
S'silica'
p1372
sg8
S'gas'
p1373
sg10
F0.030000000019365026
sg11
S'Berndt'
p1374
sg13
F-1.522878745
sg14
S'no'
p1375
sg16
g669
sg18
g19
sg20
S'None'
p1376
sg22
I868
sg23
S'O2'
p1377
sg25
Nsg26
S'heterogeneous'
p1378
sg28
F0.7
sg29
g673
sg31
g32
sba(iexpclass
expclass
p1379
(dp1380
g6
S'silica'
p1381
sg8
S'gas'
p1382
sg10
F0.06600000006962252
sg11
S'Berndt'
p1383
sg13
F-1.180456064
sg14
S'no'
p1384
sg16
g669
sg18
g19
sg20
S'None'
p1385
sg22
I897
sg23
S'O2'
p1386
sg25
Nsg26
S'heterogeneous'
p1387
sg28
F0.4
sg29
g673
sg31
g32
sba(iexpclass
expclass
p1388
(dp1389
g6
S'silica'
p1390
sg8
S'gas'
p1391
sg10
F0.09300000009552052
sg11
S'Berndt'
p1392
sg13
F-1.031517051
sg14
S'no'
p1393
sg16
g669
sg18
g19
sg20
S'None'
p1394
sg22
I924
sg23
S'O2'
p1395
sg25
Nsg26
S'heterogeneous'
p1396
sg28
F0.3
sg29
g673
sg31
g32
sba(iexpclass
expclass
p1397
(dp1398
g6
S'silica'
p1399
sg8
S'gas'
p1400
sg10
F0.03199999997642845
sg11
S'Berndt'
p1401
sg13
F-1.494850022
sg14
S'no'
p1402
sg16
g669
sg18
g19
sg20
S'None'
p1403
sg22
I868
sg23
S'O2'
p1404
sg25
Nsg26
S'heterogeneous'
p1405
sg28
F0.6
sg29
g673
sg31
g32
sba(iexpclass
expclass
p1406
(dp1407
g6
S'silica'
p1408
sg8
S'gas'
p1409
sg10
F0.05400000002201201
sg11
S'Berndt'
p1410
sg13
F-1.26760624
sg14
S'no'
p1411
sg16
g669
sg18
g19
sg20
S'None'
p1412
sg22
I899
sg23
S'O2'
p1413
sg25
Nsg26
S'heterogeneous'
p1414
sg28
F0.2
sg29
g673
sg31
g32
sba(iexpclass
expclass
p1415
(dp1416
g6
S'silica'
p1417
sg8
S'gas'
p1418
sg10
F0.09900000009174087
sg11
S'Berndt'
p1419
sg13
F-1.004364805
sg14
S'no'
p1420
sg16
g669
sg18
g19
sg20
S'None'
p1421
sg22
I906
sg23
S'O2'
p1422
sg25
Nsg26
S'heterogeneous'
p1423
sg28
F2.0
sg29
g673
sg31
g32
sba(iexpclass
expclass
p1424
(dp1425
g6
S'silica'
p1426
sg8
S'gas'
p1427
sg10
F0.10999999995992409
sg11
S'Berndt'
p1428
sg13
F-0.958607315
sg14
S'no'
p1429
sg16
g669
sg18
g19
sg20
S'None'
p1430
sg22
I929
sg23
S'O2'
p1431
sg25
Nsg26
S'heterogeneous'
p1432
sg28
F0.2
sg29
g673
sg31
g32
sba(iexpclass
expclass
p1433
(dp1434
g6
S'silica'
p1435
sg8
S'gas'
p1436
sg10
F0.03130000003268787
sg11
S'Fornes'
p1437
sg13
F-1.504455662
sg14
S'no'
p1438
sg16
g669
sg18
g19
sg20
S'None'
p1439
sg22
I873
sg23
S'O2'
p1440
sg25
Nsg26
S'heterogeneous'
p1441
sg28
F0.2
sg29
g673
sg31
g32
sba(iexpclass
expclass
p1442
(dp1443
g6
S'silica'
p1444
sg8
S'gas'
p1445
sg10
F0.014199999987475315
sg11
S'Fornes'
p1446
sg13
F-1.847711656
sg14
S'no'
p1447
sg16
g669
sg18
g19
sg20
S'None'
p1448
sg22
I873
sg23
S'O2'
p1449
sg25
Nsg26
S'heterogeneous'
p1450
sg28
F0.2
sg29
g673
sg31
g32
sba(iexpclass
expclass
p1451
(dp1452
g6
S'silica'
p1453
sg8
S'gas'
p1454
sg10
F0.009099999993271959
sg11
S'Fornes'
p1455
sg13
F-2.040958608
sg14
S'no'
p1456
sg16
g669
sg18
g19
sg20
S'None'
p1457
sg22
I873
sg23
S'O2'
p1458
sg25
Nsg26
S'heterogeneous'
p1459
sg28
F0.4
sg29
g673
sg31
g32
sba(iexpclass
expclass
p1460
(dp1461
g6
S'silica'
p1462
sg8
S'gas'
p1463
sg10
F0.018100000005451967
sg11
S'Fornes'
p1464
sg13
F-1.742321425
sg14
S'no'
p1465
sg16
g669
sg18
g19
sg20
S'None'
p1466
sg22
I873
sg23
S'O2'
p1467
sg25
Nsg26
S'heterogeneous'
p1468
sg28
F0.4
sg29
g673
sg31
g32
sba(iexpclass
expclass
p1469
(dp1470
g6
S'silica'
p1471
sg8
S'gas'
p1472
sg10
F0.011700000006838468
sg11
S'Fornes'
p1473
sg13
F-1.931814138
sg14
S'no'
p1474
sg16
g669
sg18
g19
sg20
S'None'
p1475
sg22
I873
sg23
S'O2'
p1476
sg25
Nsg26
S'heterogeneous'
p1477
sg28
F0.5
sg29
g673
sg31
g32
sba(iexpclass
expclass
p1478
(dp1479
g6
S'silica'
p1480
sg8
S'gas'
p1481
sg10
F0.005800000005836972
sg11
S'Fornes'
p1482
sg13
F-2.236572006
sg14
S'no'
p1483
sg16
g669
sg18
g19
sg20
S'None'
p1484
sg22
I873
sg23
S'O2'
p1485
sg25
Nsg26
S'heterogeneous'
p1486
sg28
F0.8
sg29
g673
sg31
g32
sba(iexpclass
expclass
p1487
(dp1488
g6
S'silica'
p1489
sg8
S'gas'
p1490
sg10
F0.005800000005836972
sg11
S'Sugino'
p1491
sg13
F-2.236572006
sg14
S'no'
p1492
sg16
S'Mo'
p1493
sg18
g19
sg20
S'None'
p1494
sg22
I773
sg23
S'O2'
p1495
sg25
Nsg26
S'heterogeneous'
p1496
sg28
F2.0
sg29
g953
sg31
g32
sba(iexpclass
expclass
p1497
(dp1498
g6
S'silica'
p1499
sg8
S'gas'
p1500
sg10
F0.01199999999868408
sg11
S'Sugino'
p1501
sg13
F-1.920818754
sg14
S'no'
p1502
sg16
S'Mo'
p1503
sg18
g19
sg20
S'None'
p1504
sg22
I823
sg23
S'O2'
p1505
sg25
Nsg26
S'heterogeneous'
p1506
sg28
F1.0
sg29
g953
sg31
g32
sba(iexpclass
expclass
p1507
(dp1508
g6
S'silica'
p1509
sg8
S'gas'
p1510
sg10
F0.039999999969793545
sg11
S'Sugino'
p1511
sg13
F-1.397940009
sg14
S'no'
p1512
sg16
S'Mo'
p1513
sg18
g19
sg20
S'None'
p1514
sg22
I873
sg23
S'O2'
p1515
sg25
Nsg26
S'heterogeneous'
p1516
sg28
F1.0
sg29
g953
sg31
g32
sba(iexpclass
expclass
p1517
(dp1518
g6
S'silica'
p1519
sg8
S'gas'
p1520
sg10
F0.06600000006962252
sg11
S'Sugino'
p1521
sg13
F-1.180456064
sg14
S'no'
p1522
sg16
S'Mo'
p1523
sg18
g19
sg20
S'None'
p1524
sg22
I923
sg23
S'O2'
p1525
sg25
Nsg26
S'heterogeneous'
p1526
sg28
F0.0
sg29
g953
sg31
g32
sba(iexpclass
expclass
p1527
(dp1528
g6
S'silica'
p1529
sg8
S'gas'
p1530
sg10
F0.01
sg11
S'Sugino'
p1531
sg13
F-2.0
sg14
S'no'
p1532
sg16
S'Mo'
p1533
sg18
g19
sg20
S'None'
p1534
sg22
I773
sg23
S'O2'
p1535
sg25
Nsg26
S'heterogeneous'
p1536
sg28
F13.0
sg29
g953
sg31
g32
sba(iexpclass
expclass
p1537
(dp1538
g6
S'silica'
p1539
sg8
S'gas'
p1540
sg10
F0.029000000006747198
sg11
S'Sugino'
p1541
sg13
F-1.537602002
sg14
S'no'
p1542
sg16
S'Mo'
p1543
sg18
g19
sg20
S'None'
p1544
sg22
I823
sg23
S'O2'
p1545
sg25
Nsg26
S'heterogeneous'
p1546
sg28
F8.0
sg29
g953
sg31
g32
sba(iexpclass
expclass
p1547
(dp1548
g6
S'silica'
p1549
sg8
S'gas'
p1550
sg10
F0.08199999992754971
sg11
S'Sugino'
p1551
sg13
F-1.086186148
sg14
S'no'
p1552
sg16
S'Mo'
p1553
sg18
g19
sg20
S'None'
p1554
sg22
I873
sg23
S'O2'
p1555
sg25
Nsg26
S'heterogeneous'
p1556
sg28
F11.0
sg29
g953
sg31
g32
sba(iexpclass
expclass
p1557
(dp1558
g6
S'silica'
p1559
sg8
S'gas'
p1560
sg10
F0.11999999998684077
sg11
S'Sugino'
p1561
sg13
F-0.920818754
sg14
S'no'
p1562
sg16
S'Mo'
p1563
sg18
g19
sg20
S'None'
p1564
sg22
I923
sg23
S'O2'
p1565
sg25
Nsg26
S'heterogeneous'
p1566
sg28
F4.0
sg29
g953
sg31
g32
sba(iexpclass
expclass
p1567
(dp1568
g6
S'alumina-silica'
p1569
sg8
S'gas'
p1570
sg10
F0.022999999999068294
sg11
S'dowden'
p1571
sg13
F-1.638272164
sg14
S'no'
p1572
sg16
S'Mo'
p1573
sg18
g19
sg20
S'None'
p1574
sg22
I766
sg23
S'O2'
p1575
sg25
Nsg26
S'heterogeneous'
p1576
sg28
F51.0
sg29
g953
sg31
g32
sba(iexpclass
expclass
p1577
(dp1578
g6
S'alumina-silica'
p1579
sg8
S'gas'
p1580
sg10
F0.021000000012866143
sg11
S'dowden'
p1581
sg13
F-1.677780705
sg14
S'no'
p1582
sg16
S'Mo'
p1583
sg18
g19
sg20
S'None'
p1584
sg22
I712
sg23
S'O2'
p1585
sg25
Nsg26
S'heterogeneous'
p1586
sg28
F65.0
sg29
g953
sg31
g32
sba(iexpclass
expclass
p1587
(dp1588
g6
S'alumina-silica'
p1589
sg8
S'gas'
p1590
sg10
F0.034999999971771126
sg11
S'dowden'
p1591
sg13
F-1.455931956
sg14
S'no'
p1592
sg16
S'Mo'
p1593
sg18
g19
sg20
S'None'
p1594
sg22
I743
sg23
S'O2'
p1595
sg25
Nsg26
S'heterogeneous'
p1596
sg28
F75.0
sg29
g953
sg31
g32
sba(iexpclass
expclass
p1597
(dp1598
g6
S'alumina-silica'
p1599
sg8
S'gas'
p1600
sg10
F0.026000000001747046
sg11
S'dowden'
p1601
sg13
F-1.585026652
sg14
S'no'
p1602
sg16
S'Mo'
p1603
sg18
g19
sg20
S'None'
p1604
sg22
I766
sg23
S'O2'
p1605
sg25
Nsg26
S'heterogeneous'
p1606
sg28
F49.0
sg29
g953
sg31
g32
sba(iexpclass
expclass
p1607
(dp1608
g6
S'alumina-silica'
p1609
sg8
S'gas'
p1610
sg10
F0.022999999999068294
sg11
S'dowden'
p1611
sg13
F-1.638272164
sg14
S'no'
p1612
sg16
S'Mo'
p1613
sg18
g19
sg20
S'None'
p1614
sg22
I733
sg23
S'O2'
p1615
sg25
Nsg26
S'heterogeneous'
p1616
sg28
F19.0
sg29
g953
sg31
g32
sba(iexpclass
expclass
p1617
(dp1618
g6
S'La-Co-O'
p1619
sg8
S'gas'
p1620
sg10
F0.08900000007276807
sg11
S'Zhang'
p1621
sg13
F-1.050609993
sg14
S'no'
p1622
sg16
S'Mo'
p1623
sg18
g19
sg20
S'None'
p1624
sg22
I693
sg23
S'O2'
p1625
sg25
Nsg26
S'heterogeneous'
p1626
sg28
F28.8
sg29
g953
sg31
g32
sba(iexpclass
expclass
p1627
(dp1628
g6
S'La-Co-O'
p1629
sg8
S'gas'
p1630
sg10
F0.11200000008505671
sg11
S'Zhang'
p1631
sg13
F-0.950781977
sg14
S'no'
p1632
sg16
S'Mo'
p1633
sg18
g19
sg20
S'None'
p1634
sg22
I693
sg23
S'O2'
p1635
sg25
Nsg26
S'heterogeneous'
p1636
sg28
F60.0
sg29
g953
sg31
g32
sba(iexpclass
expclass
p1637
(dp1638
g6
S'La-Co-O'
p1639
sg8
S'gas'
p1640
sg10
F0.1159999999393901
sg11
S'Zhang'
p1641
sg13
F-0.935542011
sg14
S'no'
p1642
sg16
S'Mo'
p1643
sg18
g19
sg20
S'None'
p1644
sg22
I693
sg23
S'O2'
p1645
sg25
Nsg26
S'heterogeneous'
p1646
sg28
F33.2
sg29
g953
sg31
g32
sba(iexpclass
expclass
p1647
(dp1648
g6
S'oxide'
p1649
sg8
S'gas'
p1650
sg10
F0.1
sg11
S'Zhang'
p1651
sg13
F-1.0
sg14
S'no'
p1652
sg16
S'Mo'
p1653
sg18
g19
sg20
S'None'
p1654
sg22
I753
sg23
S'O2'
p1655
sg25
Nsg26
S'heterogeneous'
p1656
sg28
F41.0
sg29
g953
sg31
g32
sba(iexpclass
expclass
p1657
(dp1658
g6
S'SSZ-13'
p1659
sg8
S'gas'
p1660
sg10
F0.000160000000126762
sg11
S'Lobo'
p1661
sg13
F-3.795880017
sg14
S'yes'
p1662
sg16
S'Cu'
p1663
sg18
g19
sg20
S'None'
p1664
sg22
I523
sg23
S'N2O'
p1665
sg25
Nsg26
S'heterogeneous'
p1666
sg28
F24.0
sg29
g974
sg31
g32
sba(iexpclass
expclass
p1667
(dp1668
g6
S'SSZ-13'
p1669
sg8
S'gas'
p1670
sg10
F0.00022000000009006474
sg11
S'Lobo'
p1671
sg13
F-3.657577319
sg14
S'yes'
p1672
sg16
S'Cu'
p1673
sg18
g19
sg20
S'None'
p1674
sg22
I533
sg23
S'N2O'
p1675
sg25
Nsg26
S'heterogeneous'
p1676
sg28
F27.0
sg29
g974
sg31
g32
sba(iexpclass
expclass
p1677
(dp1678
g6
S'SSZ-13'
p1679
sg8
S'gas'
p1680
sg10
F0.0003199999997642845
sg11
S'Lobo'
p1681
sg13
F-3.494850022
sg14
S'yes'
p1682
sg16
S'Cu'
p1683
sg18
g19
sg20
S'None'
p1684
sg22
I538
sg23
S'N2O'
p1685
sg25
Nsg26
S'heterogeneous'
p1686
sg28
F20.7
sg29
g974
sg31
g32
sba(iexpclass
expclass
p1687
(dp1688
g6
S'SSZ-13'
p1689
sg8
S'gas'
p1690
sg10
F0.0005499999993740787
sg11
S'Lobo'
p1691
sg13
F-3.259637311
sg14
S'yes'
p1692
sg16
S'Cu'
p1693
sg18
g19
sg20
S'None'
p1694
sg22
I543
sg23
S'N2O'
p1695
sg25
Nsg26
S'heterogeneous'
p1696
sg28
F15.8
sg29
g974
sg31
g32
sba(iexpclass
expclass
p1697
(dp1698
g6
S'SSZ-13'
p1699
sg8
S'gas'
p1700
sg10
F0.000940000000866424
sg11
S'Lobo'
p1701
sg13
F-3.026872146
sg14
S'yes'
p1702
sg16
S'Cu'
p1703
sg18
g19
sg20
S'None'
p1704
sg22
I548
sg23
S'N2O'
p1705
sg25
Nsg26
S'heterogeneous'
p1706
sg28
F11.4
sg29
g974
sg31
g32
sba(iexpclass
expclass
p1707
(dp1708
g6
S'SSZ-13'
p1709
sg8
S'gas'
p1710
sg10
F0.007499999993235582
sg11
S'Lobo'
p1711
sg13
F-2.124938737
sg14
S'yes'
p1712
sg16
S'Cu'
p1713
sg18
g19
sg20
S'None'
p1714
sg22
I573
sg23
S'N2O'
p1715
sg25
Nsg26
S'heterogeneous'
p1716
sg28
F2.3
sg29
g974
sg31
g32
sba(iexpclass
expclass
p1717
(dp1718
g6
S'SSZ-13'
p1719
sg8
S'gas'
p1720
sg10
F0.001199999999868408
sg11
S'Lobo'
p1721
sg13
F-2.920818754
sg14
S'yes'
p1722
sg16
S'Cu'
p1723
sg18
g19
sg20
S'None'
p1724
sg22
I573
sg23
S'N2O'
p1725
sg25
Nsg26
S'heterogeneous'
p1726
sg28
F12.5
sg29
g974
sg31
g32
sba(iexpclass
expclass
p1727
(dp1728
g6
S'SSZ-13'
p1729
sg8
S'gas'
p1730
sg10
F0.0012999999990815274
sg11
S'Lobo'
p1731
sg13
F-2.886056648
sg14
S'yes'
p1732
sg16
S'Cu'
p1733
sg18
g19
sg20
S'None'
p1734
sg22
I543
sg23
S'N2O'
p1735
sg25
Nsg26
S'heterogeneous'
p1736
sg28
F3.0
sg29
g974
sg31
g32
sba(iexpclass
expclass
p1737
(dp1738
g6
S'SSZ-13'
p1739
sg8
S'gas'
p1740
sg10
F0.001199999999868408
sg11
S'Lobo'
p1741
sg13
F-2.920818754
sg14
S'yes'
p1742
sg16
S'Cu'
p1743
sg18
g19
sg20
S'None'
p1744
sg22
I573
sg23
S'N2O'
p1745
sg25
Nsg26
S'heterogeneous'
p1746
sg28
F2.0
sg29
g974
sg31
g32
sba(iexpclass
expclass
p1747
(dp1748
g6
S'SSZ-13'
p1749
sg8
S'gas'
p1750
sg10
F0.00022000000009006474
sg11
S'Lobo'
p1751
sg13
F-3.657577319
sg14
S'yes'
p1752
sg16
S'Cu'
p1753
sg18
g19
sg20
S'None'
p1754
sg22
I543
sg23
S'N2O'
p1755
sg25
Nsg26
S'heterogeneous'
p1756
sg28
F39.7
sg29
g974
sg31
g32
sba(iexpclass
expclass
p1757
(dp1758
g6
S'MOR'
p1759
sg8
S'gas'
p1760
sg10
F0.00012999999990815275
sg11
S'Lobo'
p1761
sg13
F-3.886056648
sg14
S'yes'
p1762
sg16
S'Cu'
p1763
sg18
g19
sg20
S'None'
p1764
sg22
I543
sg23
S'N2O'
p1765
sg25
Nsg26
S'heterogeneous'
p1766
sg28
F24.0
sg29
g974
sg31
g32
sba(iexpclass
expclass
p1767
(dp1768
g6
S'MOR'
p1769
sg8
S'gas'
p1770
sg10
F0.0006299999993420215
sg11
S'Lobo'
p1771
sg13
F-3.200659451
sg14
S'yes'
p1772
sg16
S'Cu'
p1773
sg18
g19
sg20
S'None'
p1774
sg22
I543
sg23
S'N2O'
p1775
sg25
Nsg26
S'heterogeneous'
p1776
sg28
F1.1
sg29
g974
sg31
g32
sba(iexpclass
expclass
p1777
(dp1778
g6
S'ZSM-5'
p1779
sg8
S'gas'
p1780
sg10
F0.006700000004615447
sg11
S'Lobo'
p1781
sg13
F-2.173925197
sg14
S'yes'
p1782
sg16
S'Cu'
p1783
sg18
g19
sg20
S'None'
p1784
sg22
I543
sg23
S'N2O'
p1785
sg25
Nsg26
S'heterogeneous'
p1786
sg28
F0.3
sg29
g974
sg31
g32
sba(iexpclass
expclass
p1787
(dp1788
g6
S'ZSM-5'
p1789
sg8
S'gas'
p1790
sg10
F1e-05
sg11
S'Leshkov'
p1791
sg13
F-5.0
sg14
S'yes'
p1792
sg16
S'Cu'
p1793
sg18
g19
sg20
S'None'
p1794
sg22
I483
sg23
S'O2'
p1795
sg25
Nsg26
S'heterogeneous'
p1796
sg28
F71.0
sg29
g974
sg31
g32
sba(iexpclass
expclass
p1797
(dp1798
g6
S'SSZ-13'
p1799
sg8
S'gas'
p1800
sg10
F0.001
sg11
S'Leshkov'
p1801
sg13
F-3.0
sg14
S'yes'
p1802
sg16
S'Cu'
p1803
sg18
g19
sg20
S'thesis'
p1804
sg22
I623
sg23
S'O2'
p1805
sg25
Nsg26
S'heterogeneous'
p1806
sg28
F90.0
sg29
g974
sg31
g32
sba(iexpclass
expclass
p1807
(dp1808
g6
S'ZSM-5'
p1809
sg8
S'aqueous'
p1810
sg10
F0.0030000000019365044
sg11
S'Hutchings'
p1811
sg13
F-2.522878745
sg14
S'yes'
p1812
sg16
S'Cu'
p1813
sg18
g19
sg20
S'None'
p1814
sg22
I323
sg23
S'H2O2'
p1815
sg25
Nsg26
S'heterogeneous'
p1816
sg28
F83.0
sg29
g974
sg31
g32
sba(iexpclass
expclass
p1817
(dp1818
g6
S'ZSM-5'
p1819
sg8
S'aqueous'
p1820
sg10
F0.006999999999770205
sg11
S'Hutchings'
p1821
sg13
F-2.15490196
sg14
S'yes'
p1822
sg16
S'Fe'
p1823
sg18
g19
sg20
S'None'
p1824
sg22
I323
sg23
S'H2O2'
p1825
sg25
Nsg26
S'heterogeneous'
p1826
sg28
F85.0
sg29
g30
sg31
g32
sba(iexpclass
expclass
p1827
(dp1828
g6
S'ZSM-5'
p1829
sg8
S'aqueous'
p1830
sg10
F0.00499999999613144
sg11
S'Hutchings'
p1831
sg13
F-2.301029996
sg14
S'yes'
p1832
sg16
S'Fe'
p1833
sg18
g19
sg20
S'None'
p1834
sg22
I323
sg23
S'H2O2'
p1835
sg25
Nsg26
S'heterogeneous'
p1836
sg28
F88.0
sg29
g30
sg31
g32
sba(iexpclass
expclass
p1837
(dp1838
g6
S'Silicalite'
p1839
sg8
S'aqueous'
p1840
sg10
F0.10100000005054888
sg11
S'Hutchings'
p1841
sg13
F-0.995678626
sg14
S'yes'
p1842
sg16
S'Fe'
p1843
sg18
g19
sg20
S'None'
p1844
sg22
I323
sg23
S'H2O2'
p1845
sg25
Nsg26
S'heterogeneous'
p1846
sg28
F93.0
sg29
g30
sg31
g32
sba(iexpclass
expclass
p1847
(dp1848
g6
S'MMO'
p1849
sg8
S'aqueous'
p1850
sg10
F0.015074626862831756
sg11
S'Dalton'
p1851
sg13
F-1.821753429
sg14
S'yes'
p1852
sg16
S'Fe-MMO'
p1853
sg18
S'*'
p1854
sg20
S'enzyme'
p1855
sg22
I300
sg23
S'O2'
p1856
sg25
Nsg26
S'homogeneous'
p1857
sg28
F99.0
sg29
S'forestgreen'
p1858
sg31
g32
sba(iexpclass
expclass
p1859
(dp1860
g6
S'ZSM-5'
p1861
sg8
S'gas'
p1862
sg10
F0.036000000019290275
sg11
S'Panov'
p1863
sg13
F-1.443697499
sg14
S'yes'
p1864
sg16
S'Fe'
p1865
sg18
g19
sg20
S'None'
p1866
sg22
I573
sg23
S'N2O'
p1867
sg25
Nsg26
S'heterogeneous'
p1868
sg28
F1.9
sg29
g30
sg31
g32
sba(iexpclass
expclass
p1869
(dp1870
g6
S'ZSM-5'
p1871
sg8
S'gas'
p1872
sg10
F0.019000000002063692
sg11
S'Panov'
p1873
sg13
F-1.721246399
sg14
S'yes'
p1874
sg16
S'Fe'
p1875
sg18
g19
sg20
S'None'
p1876
sg22
I573
sg23
S'N2O'
p1877
sg25
Nsg26
S'heterogeneous'
p1878
sg28
F9.3
sg29
g30
sg31
g32
sba(iexpclass
expclass
p1879
(dp1880
g6
S'ZSM-5'
p1881
sg8
S'gas'
p1882
sg10
F0.012999999990815267
sg11
S'Panov'
p1883
sg13
F-1.886056648
sg14
S'yes'
p1884
sg16
S'Fe'
p1885
sg18
g19
sg20
S'None'
p1886
sg22
I573
sg23
S'N2O'
p1887
sg25
Nsg26
S'heterogeneous'
p1888
sg28
F19.0
sg29
g30
sg31
g32
sba(iexpclass
expclass
p1889
(dp1890
g6
S'ZSM-5'
p1891
sg8
S'gas'
p1892
sg10
F0.007499999993235582
sg11
S'Panov'
p1893
sg13
F-2.124938737
sg14
S'yes'
p1894
sg16
S'Fe'
p1895
sg18
g19
sg20
S'None'
p1896
sg22
I573
sg23
S'N2O'
p1897
sg25
Nsg26
S'heterogeneous'
p1898
sg28
F42.0
sg29
g30
sg31
g32
sba(iexpclass
expclass
p1899
(dp1900
g6
S'ZSM-5'
p1901
sg8
S'gas'
p1902
sg10
F0.022000000009006475
sg11
S'Panov'
p1903
sg13
F-1.657577319
sg14
S'yes'
p1904
sg16
S'Fe'
p1905
sg18
g19
sg20
S'None'
p1906
sg22
I548
sg23
S'N2O'
p1907
sg25
Nsg26
S'heterogeneous'
p1908
sg28
F2.7
sg29
g30
sg31
g32
sba(iexpclass
expclass
p1909
(dp1910
g6
S'ZSM-5'
p1911
sg8
S'gas'
p1912
sg10
F0.006500000005345307
sg11
S'Panov'
p1913
sg13
F-2.187086643
sg14
S'yes'
p1914
sg16
S'Fe'
p1915
sg18
g19
sg20
S'None'
p1916
sg22
I548
sg23
S'N2O'
p1917
sg25
Nsg26
S'heterogeneous'
p1918
sg28
F31.0
sg29
g30
sg31
g32
sba(iexpclass
expclass
p1919
(dp1920
g6
S'ZSM-5'
p1921
sg8
S'gas'
p1922
sg10
F0.002699999999011578
sg11
S'Panov'
p1923
sg13
F-2.568636236
sg14
S'yes'
p1924
sg16
S'Fe'
p1925
sg18
g19
sg20
S'None'
p1926
sg22
I548
sg23
S'N2O'
p1927
sg25
Nsg26
S'heterogeneous'
p1928
sg28
F57.0
sg29
g30
sg31
g32
sba(iexpclass
expclass
p1929
(dp1930
g6
S'ZSM-5'
p1931
sg8
S'gas'
p1932
sg10
F0.0019000000002063692
sg11
S'Panov'
p1933
sg13
F-2.721246399
sg14
S'yes'
p1934
sg16
S'Fe'
p1935
sg18
g19
sg20
S'None'
p1936
sg22
I548
sg23
S'N2O'
p1937
sg25
Nsg26
S'heterogeneous'
p1938
sg28
F62.0
sg29
g30
sg31
g32
sba(iexpclass
expclass
p1939
(dp1940
g6
g1250
sg8
S'aqueous'
p1941
sg10
F0.047999999958488575
sg11
S'Raja'
p1942
sg13
F-1.318758763
sg14
S'yes'
p1943
sg16
S'Cu'
p1944
sg18
g19
sg20
S'None'
p1945
sg22
I273
sg23
S'O2/TBHP'
p1946
sg25
Nsg26
S'homogeneous'
p1947
sg28
F40.2
sg29
g974
sg31
g32
sba(iexpclass
expclass
p1948
(dp1949
g6
g1250
sg8
S'aqueous'
p1950
sg10
F0.031000000011829645
sg11
S'Raja'
p1951
sg13
F-1.508638306
sg14
S'yes'
p1952
sg16
S'Co'
p1953
sg18
g19
sg20
S'None'
p1954
sg22
I273
sg23
S'O2/TBHP'
p1955
sg25
Nsg26
S'homogeneous'
p1956
sg28
F10.2
sg29
g995
sg31
g32
sba(iexpclass
expclass
p1957
(dp1958
g6
g1250
sg8
S'aqueous'
p1959
sg10
F0.053000000048718514
sg11
S'Raja'
p1960
sg13
F-1.27572413
sg14
S'yes'
p1961
sg16
S'Fe'
p1962
sg18
g19
sg20
S'None'
p1963
sg22
I273
sg23
S'O2/TBHP'
p1964
sg25
Nsg26
S'homogeneous'
p1965
sg28
F41.2
sg29
g30
sg31
g32
sba(iexpclass
expclass
p1966
(dp1967
g6
S'FAU-X'
p1968
sg8
S'aqueous'
p1969
sg10
F0.04199999996151961
sg11
S'Raja'
p1970
sg13
F-1.37675071
sg14
S'yes'
p1971
sg16
S'Cu'
p1972
sg18
g19
sg20
S'None'
p1973
sg22
I273
sg23
S'O2/TBHP'
p1974
sg25
Nsg26
S'heterogeneous'
p1975
sg28
F51.5
sg29
g974
sg31
g32
sba(iexpclass
expclass
p1976
(dp1977
g6
S'FAU-Y'
p1978
sg8
S'aqueous'
p1979
sg10
F0.038999999997620355
sg11
S'Raja'
p1980
sg13
F-1.408935393
sg14
S'yes'
p1981
sg16
S'Cu'
p1982
sg18
g19
sg20
S'None'
p1983
sg22
I273
sg23
S'O2/TBHP'
p1984
sg25
Nsg26
S'heterogeneous'
p1985
sg28
F53.5
sg29
g974
sg31
g32
sba(iexpclass
expclass
p1986
(dp1987
g6
S'L'
p1988
sg8
S'aqueous'
p1989
sg10
F0.010999999995992405
sg11
S'Raja'
p1990
sg13
F-1.958607315
sg14
S'yes'
p1991
sg16
S'Cu'
p1992
sg18
g19
sg20
S'None'
p1993
sg22
I273
sg23
S'O2/TBHP'
p1994
sg25
Nsg26
S'heterogeneous'
p1995
sg28
F10.7
sg29
g974
sg31
g32
sba(iexpclass
expclass
p1996
(dp1997
g6
S'FAU-X'
p1998
sg8
S'aqueous'
p1999
sg10
F0.027999999977936316
sg11
S'Raja'
p2000
sg13
F-1.552841969
sg14
S'yes'
p2001
sg16
S'Co'
p2002
sg18
g19
sg20
S'None'
p2003
sg22
I273
sg23
S'O2/TBHP'
p2004
sg25
Nsg26
S'heterogeneous'
p2005
sg28
F12.5
sg29
g995
sg31
g32
sba(iexpclass
expclass
p2006
(dp2007
g6
S'FAU-X'
p2008
sg8
S'aqueous'
p2009
sg10
F0.048999999996782895
sg11
S'Raja'
p2010
sg13
F-1.30980392
sg14
S'yes'
p2011
sg16
S'Fe'
p2012
sg18
g19
sg20
S'None'
p2013
sg22
I273
sg23
S'O2/TBHP'
p2014
sg25
Nsg26
S'heterogeneous'
p2015
sg28
F52.6
sg29
g30
sg31
g32
sba(iexpclass
expclass
p2016
(dp2017
g6
g1250
sg8
S'aqueous'
p2018
sg10
F0.04700000000695676
sg11
S'Seki'
p2019
sg13
F-1.327902142
sg14
S'yes'
p2020
sg16
S'Mo'
p2021
sg18
g19
sg20
S'None'
p2022
sg22
I353
sg23
S'H2O2'
p2023
sg25
Nsg26
S'homogeneous'
p2024
sg28
F1.0
sg29
g953
sg31
g32
sba(iexpclass
expclass
p2025
(dp2026
g6
g1250
sg8
S'aqueous'
p2027
sg10
F0.00043197030691989385
sg11
S'Seki'
p2028
sg13
F-3.364546105
sg14
S'yes'
p2029
sg16
S'Mo'
p2030
sg18
g19
sg20
S'None'
p2031
sg22
I353
sg23
S'H2O2'
p2032
sg25
Nsg26
S'homogeneous'
p2033
sg28
F99.11894273
sg29
g953
sg31
g32
sba(iexpclass
expclass
p2034
(dp2035
g6
g1250
sg8
S'aqueous'
p2036
sg10
F0.009092907392496226
sg11
S'Seki'
p2037
sg13
F-2.041297232
sg14
S'yes'
p2038
sg16
S'Mo'
p2039
sg18
g19
sg20
S'None'
p2040
sg22
I353
sg23
S'H2O2'
p2041
sg25
Nsg26
S'homogeneous'
p2042
sg28
F44.78707783
sg29
g953
sg31
g32
sba(iexpclass
expclass
p2043
(dp2044
g6
g1250
sg8
S'aqueous'
p2045
sg10
F0.01613974396679316
sg11
S'Seki'
p2046
sg13
F-1.792103359
sg14
S'yes'
p2047
sg16
S'Mo'
p2048
sg18
g19
sg20
S'None'
p2049
sg22
I353
sg23
S'H2O2'
p2050
sg25
Nsg26
S'homogeneous'
p2051
sg28
F23.20117474
sg29
g953
sg31
g32
sba(iexpclass
expclass
p2052
(dp2053
g6
g1250
sg8
S'aqueous'
p2054
sg10
F0.019096781189985732
sg11
S'Seki'
p2055
sg13
F-1.719039828
sg14
S'yes'
p2056
sg16
S'Mo'
p2057
sg18
g19
sg20
S'None'
p2058
sg22
I353
sg23
S'H2O2'
p2059
sg25
Nsg26
S'homogeneous'
p2060
sg28
F18.20851689
sg29
g953
sg31
g32
sba(iexpclass
expclass
p2061
(dp2062
g6
g1250
sg8
S'aqueous'
p2063
sg10
F0.02211192491642875
sg11
S'Seki'
p2064
sg13
F-1.655373449
sg14
S'yes'
p2065
sg16
S'Mo'
p2066
sg18
g19
sg20
S'None'
p2067
sg22
I353
sg23
S'H2O2'
p2068
sg25
Nsg26
S'homogeneous'
p2069
sg28
F14.53744493
sg29
g953
sg31
g32
sba(iexpclass
expclass
p2070
(dp2071
g6
g1250
sg8
S'aqueous'
p2072
sg10
F0.025553994030221405
sg11
S'Seki'
p2073
sg13
F-1.592541211
sg14
S'yes'
p2074
sg16
S'Mo'
p2075
sg18
g19
sg20
S'None'
p2076
sg22
I353
sg23
S'H2O2'
p2077
sg25
Nsg26
S'homogeneous'
p2078
sg28
F11.89427313
sg29
g953
sg31
g32
sba(iexpclass
expclass
p2079
(dp2080
g6
S'APO-5'
p2081
sg8
S'gas'
p2082
sg10
F0.014999999998076842
sg11
S'Wang'
p2083
sg13
F-1.823908741
sg14
S'yes'
p2084
sg16
S'Fe'
p2085
sg18
g19
sg20
S'None'
p2086
sg22
I673
sg23
S'O2/H2'
p2087
sg25
Nsg26
S'heterogeneous'
p2088
sg28
F2.5
sg29
g30
sg31
g32
sba(iexpclass
expclass
p2089
(dp2090
g6
S'PO4'
p2091
sg8
S'gas'
p2092
sg10
F0.0025000000018879035
sg11
S'Wang'
p2093
sg13
F-2.602059991
sg14
S'yes'
p2094
sg16
S'Fe'
p2095
sg18
g19
sg20
S'None'
p2096
sg22
I673
sg23
S'O2/H2'
p2097
sg25
Nsg26
S'heterogeneous'
p2098
sg28
F21.0
sg29
g30
sg31
g32
sba(iexpclass
expclass
p2099
(dp2100
g6
S'PO4'
p2101
sg8
S'gas'
p2102
sg10
F0.0059999999946997685
sg11
S'Wang'
p2103
sg13
F-2.22184875
sg14
S'yes'
p2104
sg16
S'Fe'
p2105
sg18
g19
sg20
S'None'
p2106
sg22
I673
sg23
S'O2/H2'
p2107
sg25
Nsg26
S'heterogeneous'
p2108
sg28
F24.0
sg29
g30
sg31
g32
sba(iexpclass
expclass
p2109
(dp2110
g6
S'PO4'
p2111
sg8
S'gas'
p2112
sg10
F0.0001568108178879138
sg11
S'Wang'
p2113
sg13
F-3.80462398
sg14
S'yes'
p2114
sg16
S'Fe'
p2115
sg18
g19
sg20
S'None'
p2116
sg22
I633
sg23
S'O2/H2'
p2117
sg25
Nsg26
S'heterogeneous'
p2118
sg28
F77.9201373
sg29
g30
sg31
g32
sba(iexpclass
expclass
p2119
(dp2120
g6
S'PO4'
p2121
sg8
S'gas'
p2122
sg10
F0.0003430486305796313
sg11
S'Wang'
p2123
sg13
F-3.46464431
sg14
S'yes'
p2124
sg16
S'Fe'
p2125
sg18
g19
sg20
S'None'
p2126
sg22
I648
sg23
S'O2/H2'
p2127
sg25
Nsg26
S'heterogeneous'
p2128
sg28
F67.15716589
sg29
g30
sg31
g32
sba(iexpclass
expclass
p2129
(dp2130
g6
S'PO4'
p2131
sg8
S'gas'
p2132
sg10
F0.0020500806334776208
sg11
S'Wang'
p2133
sg13
F-2.688229057
sg14
S'yes'
p2134
sg16
S'Fe'
p2135
sg18
g19
sg20
S'None'
p2136
sg22
I690
sg23
S'O2/H2'
p2137
sg25
Nsg26
S'heterogeneous'
p2138
sg28
F34.85404862
sg29
g30
sg31
g32
sba(iexpclass
expclass
p2139
(dp2140
g6
S'PO4'
p2141
sg8
S'gas'
p2142
sg10
F0.005394904645907607
sg11
S'Wang'
p2143
sg13
F-2.268016227
sg14
S'yes'
p2144
sg16
S'Fe'
p2145
sg18
g19
sg20
S'None'
p2146
sg22
I710
sg23
S'O2/H2'
p2147
sg25
Nsg26
S'heterogeneous'
p2148
sg28
F25.53624003
sg29
g30
sg31
g32
sba(iexpclass
expclass
p2149
(dp2150
g6
S'PO4'
p2151
sg8
S'gas'
p2152
sg10
F0.008789794507001642
sg11
S'Wang'
p2153
sg13
F-2.056021278
sg14
S'yes'
p2154
sg16
S'Fe'
p2155
sg18
g19
sg20
S'None'
p2156
sg22
I717
sg23
S'O2/H2'
p2157
sg25
Nsg26
S'heterogeneous'
p2158
sg28
F20.85603113
sg29
g30
sg31
g32
sba(iexpclass
expclass
p2159
(dp2160
g6
S'PO4'
p2161
sg8
S'gas'
p2162
sg10
F0.01101359649005211
sg11
S'Wang'
p2163
sg13
F-1.958070839
sg14
S'yes'
p2164
sg16
S'Fe'
p2165
sg18
g19
sg20
S'None'
p2166
sg22
I723
sg23
S'O2/H2'
p2167
sg25
Nsg26
S'heterogeneous'
p2168
sg28
F18.60218076
sg29
g30
sg31
g32
sba(iexpclass
expclass
p2169
(dp2170
g6
S'PO4'
p2171
sg8
S'gas'
p2172
sg10
F0.0007652350169333121
sg11
S'Wang'
p2173
sg13
F-3.116205165
sg14
S'yes'
p2174
sg16
S'Fe'
p2175
sg18
g19
sg20
S'None'
p2176
sg22
I666
sg23
S'O2/H2'
p2177
sg25
Nsg26
S'heterogeneous'
p2178
sg28
F49.52671214
sg29
g30
sg31
g32
sba(iexpclass
expclass
p2179
(dp2180
g6
S'PO4'
p2181
sg8
S'gas'
p2182
sg10
F0.0010214063982103847
sg11
S'Wang'
p2183
sg13
F-2.990801426
sg14
S'no'
p2184
sg16
S'Fe'
p2185
sg18
g19
sg20
S'None'
p2186
sg22
I625
sg23
S'N2O'
p2187
sg25
Nsg26
S'heterogeneous'
p2188
sg28
F80.00958837
sg29
g30
sg31
g32
sba(iexpclass
expclass
p2189
(dp2190
g6
S'PO4'
p2191
sg8
S'gas'
p2192
sg10
F0.0021699108780606487
sg11
S'Wang'
p2193
sg13
F-2.663558103
sg14
S'no'
p2194
sg16
S'Fe'
p2195
sg18
g19
sg20
S'None'
p2196
sg22
I650
sg23
S'N2O'
p2197
sg25
Nsg26
S'heterogeneous'
p2198
sg28
F64.49636404
sg29
g30
sg31
g32
sba(iexpclass
expclass
p2199
(dp2200
g6
S'PO4'
p2201
sg8
S'gas'
p2202
sg10
F0.007650534201640725
sg11
S'Wang'
p2203
sg13
F-2.116308239
sg14
S'no'
p2204
sg16
S'Fe'
p2205
sg18
g19
sg20
S'None'
p2206
sg22
I674
sg23
S'N2O'
p2207
sg25
Nsg26
S'heterogeneous'
p2208
sg28
F40.02674887
sg29
g30
sg31
g32
sba(iexpclass
expclass
p2209
(dp2210
g6
S'PO4'
p2211
sg8
S'gas'
p2212
sg10
F0.021625160776680454
sg11
S'Wang'
p2213
sg13
F-1.665040655
sg14
S'no'
p2214
sg16
S'Fe'
p2215
sg18
g19
sg20
S'None'
p2216
sg22
I699
sg23
S'N2O'
p2217
sg25
Nsg26
S'heterogeneous'
p2218
sg28
F25.00302437
sg29
g30
sg31
g32
sba(iexpclass
expclass
p2219
(dp2220
g6
S'PO4'
p2221
sg8
S'gas'
p2222
sg10
F0.0676600857715339
sg11
S'Wang'
p2223
sg13
F-1.169667456
sg14
S'yes'
p2224
sg16
S'Fe'
p2225
sg18
g19
sg20
S'None'
p2226
sg22
I723
sg23
S'N2O'
p2227
sg25
Nsg26
S'heterogeneous'
p2228
sg28
F16.81930399
sg29
g30
sg31
g32
sba(iexpclass
expclass
p2229
(dp2230
g6
S'PO4'
p2231
sg8
S'gas'
p2232
sg10
F0.0022868864959965872
sg11
S'Wang'
p2233
sg13
F-2.64075539
sg14
S'yes'
p2234
sg16
S'Fe'
p2235
sg18
g19
sg20
S'None'
p2236
sg22
I648
sg23
S'N2O'
p2237
sg25
Nsg26
S'heterogeneous'
p2238
sg28
F52.08701039
sg29
g30
sg31
g32
sba(iexpclass
expclass
p2239
(dp2240
g6
S'PO4'
p2241
sg8
S'gas'
p2242
sg10
F0.005019128469313176
sg11
S'Wang'
p2243
sg13
F-2.299371688
sg14
S'yes'
p2244
sg16
S'Fe'
p2245
sg18
g19
sg20
S'None'
p2246
sg22
I648
sg23
S'N2O'
p2247
sg25
Nsg26
S'heterogeneous'
p2248
sg28
F48.74069647
sg29
g30
sg31
g32
sba(iexpclass
expclass
p2249
(dp2250
g6
S'PO4'
p2251
sg8
S'gas'
p2252
sg10
F0.006899040937992384
sg11
S'Wang'
p2253
sg13
F-2.161211278
sg14
S'yes'
p2254
sg16
S'Fe'
p2255
sg18
g19
sg20
S'None'
p2256
sg22
I648
sg23
S'N2O'
p2257
sg25
Nsg26
S'heterogeneous'
p2258
sg28
F45.39562769
sg29
g30
sg31
g32
sba(iexpclass
expclass
p2259
(dp2260
g6
S'PO4'
p2261
sg8
S'gas'
p2262
sg10
F0.008499014789985255
sg11
S'Wang'
p2263
sg13
F-2.070631415
sg14
S'yes'
p2264
sg16
S'Fe'
p2265
sg18
g19
sg20
S'None'
p2266
sg22
I648
sg23
S'N2O'
p2267
sg25
Nsg26
S'heterogeneous'
p2268
sg28
F46.87578794
sg29
g30
sg31
g32
sba(iexpclass
expclass
p2269
(dp2270
g6
S'PO4'
p2271
sg8
S'gas'
p2272
sg10
F0.0073949490819324925
sg11
S'Wang'
p2273
sg13
F-2.131064812
sg14
S'yes'
p2274
sg16
S'Fe'
p2275
sg18
g19
sg20
S'None'
p2276
sg22
I648
sg23
S'N2O'
p2277
sg25
Nsg26
S'heterogeneous'
p2278
sg28
F44.36838714
sg29
g30
sg31
g32
sba(iexpclass
expclass
p2279
(dp2280
g6
S'PO4'
p2281
sg8
S'gas'
p2282
sg10
F0.006090882772762823
sg11
S'Wang'
p2283
sg13
F-2.215319759
sg14
S'yes'
p2284
sg16
S'Fe'
p2285
sg18
g19
sg20
S'None'
p2286
sg22
I648
sg23
S'N2O'
p2287
sg25
Nsg26
S'heterogeneous'
p2288
sg28
F42.76091132
sg29
g30
sg31
g32
sba(iexpclass
expclass
p2289
(dp2290
g6
S'K7PW9Fe2NiO37'
p2291
sg8
S'gas'
p2292
sg10
F0.04100000002645864
sg11
S'Lyons'
p2293
sg13
F-1.387216143
sg14
S'yes'
p2294
sg16
S'Fe'
p2295
sg18
g19
sg20
S'None'
p2296
sg22
I683
sg23
S'O2'
p2297
sg25
Nsg26
S'heterogeneous'
p2298
sg28
F42.0
sg29
g30
sg31
g32
sba(iexpclass
expclass
p2299
(dp2300
g6
S'SOD'
p2301
sg8
S'gas'
p2302
sg10
F0.04600000003372733
sg11
S'Lyons'
p2303
sg13
F-1.337242168
sg14
S'yes'
p2304
sg16
S'Fe'
p2305
sg18
g19
sg20
S'None'
p2306
sg22
I680
sg23
S'O2'
p2307
sg25
Nsg26
S'heterogeneous'
p2308
sg28
F64.0
sg29
g30
sg31
g32
sba(iexpclass
expclass
p2309
(dp2310
g6
S'SOD'
p2311
sg8
S'gas'
p2312
sg10
F0.057000000042984625
sg11
S'Lyons'
p2313
sg13
F-1.244125144
sg14
S'yes'
p2314
sg16
S'Fe'
p2315
sg18
g19
sg20
S'None'
p2316
sg22
I689
sg23
S'O2'
p2317
sg25
Nsg26
S'heterogeneous'
p2318
sg28
F70.0
sg29
g30
sg31
g32
sba(iexpclass
expclass
p2319
(dp2320
g6
S'SOD'
p2321
sg8
S'gas'
p2322
sg10
F0.05400000002201201
sg11
S'Lyons'
p2323
sg13
F-1.26760624
sg14
S'yes'
p2324
sg16
S'Fe'
p2325
sg18
g19
sg20
S'None'
p2326
sg22
I691
sg23
S'O2'
p2327
sg25
Nsg26
S'heterogeneous'
p2328
sg28
F68.0
sg29
g30
sg31
g32
sba(iexpclass
expclass
p2329
(dp2330
g6
S'SOD'
p2331
sg8
S'gas'
p2332
sg10
F0.05400000002201201
sg11
S'Lyons'
p2333
sg13
F-1.26760624
sg14
S'yes'
p2334
sg16
S'Fe'
p2335
sg18
g19
sg20
S'None'
p2336
sg22
I695
sg23
S'O2'
p2337
sg25
Nsg26
S'heterogeneous'
p2338
sg28
F65.0
sg29
g30
sg31
g32
sba(iexpclass
expclass
p2339
(dp2340
g6
S'SOD'
p2341
sg8
S'gas'
p2342
sg10
F0.05499999993740787
sg11
S'Lyons'
p2343
sg13
F-1.259637311
sg14
S'yes'
p2344
sg16
S'Fe'
p2345
sg18
g19
sg20
S'None'
p2346
sg22
I705
sg23
S'O2'
p2347
sg25
Nsg26
S'heterogeneous'
p2348
sg28
F63.0
sg29
g30
sg31
g32
sba(iexpclass
expclass
p2349
(dp2350
g6
S'SOD'
p2351
sg8
S'gas'
p2352
sg10
F0.06099999999848768
sg11
S'Lyons'
p2353
sg13
F-1.214670165
sg14
S'yes'
p2354
sg16
S'Fe'
p2355
sg18
g19
sg20
S'None'
p2356
sg22
I715
sg23
S'O2'
p2357
sg25
Nsg26
S'heterogeneous'
p2358
sg28
F64.0
sg29
g30
sg31
g32
sba(iexpclass
expclass
p2359
(dp2360
g6
S'SOD'
p2361
sg8
S'gas'
p2362
sg10
F0.0020000000015474237
sg11
S'Lyons'
p2363
sg13
F-2.698970004
sg14
S'yes'
p2364
sg16
S'Fe'
p2365
sg18
g19
sg20
S'None'
p2366
sg22
I693
sg23
S'O2'
p2367
sg25
Nsg26
S'heterogeneous'
p2368
sg28
F27.0
sg29
g30
sg31
g32
sba(iexpclass
expclass
p2369
(dp2370
g6
S'hydroxysodalite'
p2371
sg8
S'gas'
p2372
sg10
F0.0030000000019365044
sg11
S'Lyons'
p2373
sg13
F-2.522878745
sg14
S'yes'
p2374
sg16
S'Fe'
p2375
sg18
g19
sg20
S'None'
p2376
sg22
I703
sg23
S'O2'
p2377
sg25
Nsg26
S'heterogeneous'
p2378
sg28
F9.0
sg29
g30
sg31
g32
sba(iexpclass
expclass
p2379
(dp2380
g6
S'hydroxysodalite'
p2381
sg8
S'gas'
p2382
sg10
F0.05099999998849915
sg11
S'Lyons'
p2383
sg13
F-1.292429824
sg14
S'yes'
p2384
sg16
S'Fe'
p2385
sg18
g19
sg20
S'None'
p2386
sg22
I718
sg23
S'O2'
p2387
sg25
Nsg26
S'heterogeneous'
p2388
sg28
F24.0
sg29
g30
sg31
g32
sba(iexpclass
expclass
p2389
(dp2390
g6
S'hydroxysodalite'
p2391
sg8
S'gas'
p2392
sg10
F0.05099999998849915
sg11
S'Lyons'
p2393
sg13
F-1.292429824
sg14
S'yes'
p2394
sg16
S'Fe'
p2395
sg18
g19
sg20
S'None'
p2396
sg22
I704
sg23
S'O2'
p2397
sg25
Nsg26
S'heterogeneous'
p2398
sg28
F26.0
sg29
g30
sg31
g32
sba(iexpclass
expclass
p2399
(dp2400
g6
S'SiO2'
p2401
sg8
S'gas'
p2402
sg10
F0.00499999999613144
sg11
S'Lyons'
p2403
sg13
F-2.301029996
sg14
S'no'
p2404
sg16
S'Fe'
p2405
sg18
g19
sg20
S'None'
p2406
sg22
I671
sg23
S'O2'
p2407
sg25
Nsg26
S'heterogeneous'
p2408
sg28
F10.0
sg29
g30
sg31
g32
sba(iexpclass
expclass
p2409
(dp2410
g6
S'SiO2'
p2411
sg8
S'gas'
p2412
sg10
F0.01199999999868408
sg11
S'Lyons'
p2413
sg13
F-1.920818754
sg14
S'no'
p2414
sg16
S'Fe'
p2415
sg18
g19
sg20
S'None'
p2416
sg22
I682
sg23
S'O2'
p2417
sg25
Nsg26
S'heterogeneous'
p2418
sg28
F18.0
sg29
g30
sg31
g32
sba(iexpclass
expclass
p2419
(dp2420
g6
S'SiO2'
p2421
sg8
S'gas'
p2422
sg10
F0.026999999990115795
sg11
S'Lyons'
p2423
sg13
F-1.568636236
sg14
S'no'
p2424
sg16
S'Fe'
p2425
sg18
g19
sg20
S'None'
p2426
sg22
I693
sg23
S'O2'
p2427
sg25
Nsg26
S'heterogeneous'
p2428
sg28
F20.0
sg29
g30
sg31
g32
sba(iexpclass
expclass
p2429
(dp2430
g6
S'SiO2'
p2431
sg8
S'gas'
p2432
sg10
F0.038999999997620355
sg11
S'Lyons'
p2433
sg13
F-1.408935393
sg14
S'no'
p2434
sg16
S'Fe'
p2435
sg18
g19
sg20
S'None'
p2436
sg22
I701
sg23
S'O2'
p2437
sg25
Nsg26
S'heterogeneous'
p2438
sg28
F23.0
sg29
g30
sg31
g32
sba(iexpclass
expclass
p2439
(dp2440
g6
S'ZEOL'
p2441
sg8
S'gas'
p2442
sg10
F0.024000000015937235
sg11
S'Lyons'
p2443
sg13
F-1.619788758
sg14
S'yes'
p2444
sg16
S'Fe'
p2445
sg18
g19
sg20
S'None'
p2446
sg22
I673
sg23
S'O2'
p2447
sg25
Nsg26
S'heterogeneous'
p2448
sg28
F33.0
sg29
g30
sg31
g32
sba(iexpclass
expclass
p2449
(dp2450
g6
S'ZEOL'
p2451
sg8
S'gas'
p2452
sg10
F0.038000000033528436
sg11
S'Lyons'
p2453
sg13
F-1.420216403
sg14
S'yes'
p2454
sg16
S'Fe'
p2455
sg18
g19
sg20
S'None'
p2456
sg22
I703
sg23
S'O2'
p2457
sg25
Nsg26
S'heterogeneous'
p2458
sg28
F34.0
sg29
g30
sg31
g32
sba(iexpclass
expclass
p2459
(dp2460
g6
S'SiO2'
p2461
sg8
S'gas'
p2462
sg10
F0.0005999999994699769
sg11
S'Khan'
p2463
sg13
F-3.22184875
sg14
S'no'
p2464
sg16
S'Mo'
p2465
sg18
g19
sg20
S'None'
p2466
sg22
I753
sg23
S'N2O'
p2467
sg25
Nsg26
S'heterogeneous'
p2468
sg28
F96.0
sg29
g953
sg31
g32
sba(iexpclass
expclass
p2469
(dp2470
g6
S'SiO2'
p2471
sg8
S'gas'
p2472
sg10
F0.001
sg11
S'Khan'
p2473
sg13
F-3.0
sg14
S'no'
p2474
sg16
S'Mo'
p2475
sg18
g19
sg20
S'None'
p2476
sg22
I763
sg23
S'N2O'
p2477
sg25
Nsg26
S'heterogeneous'
p2478
sg28
F96.0
sg29
g953
sg31
g32
sba(iexpclass
expclass
p2479
(dp2480
g6
S'SiO2'
p2481
sg8
S'gas'
p2482
sg10
F0.0016999999985192857
sg11
S'Khan'
p2483
sg13
F-2.769551079
sg14
S'no'
p2484
sg16
S'Mo'
p2485
sg18
g19
sg20
S'None'
p2486
sg22
I773
sg23
S'N2O'
p2487
sg25
Nsg26
S'heterogeneous'
p2488
sg28
F85.0
sg29
g953
sg31
g32
sba(iexpclass
expclass
p2489
(dp2490
g6
S'SiO2'
p2491
sg8
S'gas'
p2492
sg10
F0.0022000000009006473
sg11
S'Khan'
p2493
sg13
F-2.657577319
sg14
S'no'
p2494
sg16
S'Mo'
p2495
sg18
g19
sg20
S'None'
p2496
sg22
I783
sg23
S'N2O'
p2497
sg25
Nsg26
S'heterogeneous'
p2498
sg28
F72.0
sg29
g953
sg31
g32
sba(iexpclass
expclass
p2499
(dp2500
g6
S'SiO2'
p2501
sg8
S'gas'
p2502
sg10
F0.0026000000001747056
sg11
S'Khan'
p2503
sg13
F-2.585026652
sg14
S'no'
p2504
sg16
S'Mo'
p2505
sg18
g19
sg20
S'None'
p2506
sg22
I793
sg23
S'N2O'
p2507
sg25
Nsg26
S'heterogeneous'
p2508
sg28
F66.0
sg29
g953
sg31
g32
sba(iexpclass
expclass
p2509
(dp2510
g6
S'SiO2'
p2511
sg8
S'gas'
p2512
sg10
F0.003100000001182964
sg11
S'Khan'
p2513
sg13
F-2.508638306
sg14
S'no'
p2514
sg16
S'Mo'
p2515
sg18
g19
sg20
S'None'
p2516
sg22
I803
sg23
S'N2O'
p2517
sg25
Nsg26
S'heterogeneous'
p2518
sg28
F59.0
sg29
g953
sg31
g32
sba(iexpclass
expclass
p2519
(dp2520
g6
S'SiO2'
p2521
sg8
S'gas'
p2522
sg10
F0.004700000000695674
sg11
S'Khan'
p2523
sg13
F-2.327902142
sg14
S'no'
p2524
sg16
S'Mo'
p2525
sg18
g19
sg20
S'None'
p2526
sg22
I813
sg23
S'N2O'
p2527
sg25
Nsg26
S'heterogeneous'
p2528
sg28
F54.0
sg29
g953
sg31
g32
sba(iexpclass
expclass
p2529
(dp2530
g6
S'SiO2'
p2531
sg8
S'gas'
p2532
sg10
F0.007100000004592658
sg11
S'Khan'
p2533
sg13
F-2.148741651
sg14
S'no'
p2534
sg16
S'Mo'
p2535
sg18
g19
sg20
S'None'
p2536
sg22
I823
sg23
S'N2O'
p2537
sg25
Nsg26
S'heterogeneous'
p2538
sg28
F46.0
sg29
g953
sg31
g32
sba(iexpclass
expclass
p2539
(dp2540
g6
S'SiO2'
p2541
sg8
S'gas'
p2542
sg10
F0.01199999999868408
sg11
S'Khan'
p2543
sg13
F-1.920818754
sg14
S'no'
p2544
sg16
S'Mo'
p2545
sg18
g19
sg20
S'None'
p2546
sg22
I843
sg23
S'N2O'
p2547
sg25
Nsg26
S'heterogeneous'
p2548
sg28
F18.0
sg29
g953
sg31
g32
sba(iexpclass
expclass
p2549
(dp2550
g6
S'SiO2'
p2551
sg8
S'gas'
p2552
sg10
F0.029000000006747198
sg11
S'Khan'
p2553
sg13
F-1.537602002
sg14
S'no'
p2554
sg16
S'Mo'
p2555
sg18
g19
sg20
S'None'
p2556
sg22
I843
sg23
S'N2O'
p2557
sg25
Nsg26
S'heterogeneous'
p2558
sg28
F13.8
sg29
g953
sg31
g32
sba(iexpclass
expclass
p2559
(dp2560
g6
S'SiO2'
p2561
sg8
S'gas'
p2562
sg10
F0.026000000001747046
sg11
S'Khan'
p2563
sg13
F-1.585026652
sg14
S'no'
p2564
sg16
S'Mo'
p2565
sg18
g19
sg20
S'None'
p2566
sg22
I863
sg23
S'N2O'
p2567
sg25
Nsg26
S'heterogeneous'
p2568
sg28
F16.0
sg29
g953
sg31
g32
sba(iexpclass
expclass
p2569
(dp2570
g6
g1250
sg8
S'gas'
p2571
sg10
F0.01377518036545576
sg11
S'Casey'
p2572
sg13
F-1.860902706
sg14
S'yes'
p2573
sg16
g1250
sg18
g19
sg20
S'Radical'
p2574
sg22
I673
sg23
S'O2'
p2575
sg25
Nsg26
S'heterogeneous'
p2576
sg28
F44.06804734
sg29
g1213
sg31
g32
sba(iexpclass
expclass
p2577
(dp2578
g6
g1250
sg8
S'gas'
p2579
sg10
F0.024606145005369392
sg11
S'Casey'
p2580
sg13
F-1.608956421
sg14
S'yes'
p2581
sg16
g1250
sg18
g19
sg20
S'Radical'
p2582
sg22
I673
sg23
S'O2'
p2583
sg25
Nsg26
S'heterogeneous'
p2584
sg28
F32.42133347
sg29
g1213
sg31
g32
sba(iexpclass
expclass
p2585
(dp2586
g6
g1250
sg8
S'gas'
p2587
sg10
F0.04728617966444989
sg11
S'Casey'
p2588
sg13
F-1.325265772
sg14
S'yes'
p2589
sg16
g1250
sg18
g19
sg20
S'Radical'
p2590
sg22
I673
sg23
S'O2'
p2591
sg25
Nsg26
S'heterogeneous'
p2592
sg28
F22.20076078
sg29
g1213
sg31
g32
sba(iexpclass
expclass
p2593
(dp2594
g6
g1250
sg8
S'gas'
p2595
sg10
F0.08077416923880294
sg11
S'Casey'
p2596
sg13
F-1.0927275
sg14
S'yes'
p2597
sg16
g1250
sg18
g19
sg20
S'Radical'
p2598
sg22
I673
sg23
S'O2'
p2599
sg25
Nsg26
S'heterogeneous'
p2600
sg28
F15.04390321
sg29
g1213
sg31
g32
sba(iexpclass
expclass
p2601
(dp2602
g6
g1250
sg8
S'gas'
p2603
sg10
F0.007501861743431887
sg11
S'Chun'
p2604
sg13
F-2.124830944
sg14
S'yes'
p2605
sg16
g1250
sg18
g19
sg20
S'Radical'
p2606
sg22
I682
sg23
S'O2'
p2607
sg25
Nsg26
S'heterogeneous'
p2608
sg28
F54.18123451
sg29
g1213
sg31
g32
sba(iexpclass
expclass
p2609
(dp2610
g6
g1250
sg8
S'gas'
p2611
sg10
F0.014740555626167167
sg11
S'Chun'
p2612
sg13
F-1.831486146
sg14
S'yes'
p2613
sg16
g1250
sg18
g19
sg20
S'Radical'
p2614
sg22
I691
sg23
S'O2'
p2615
sg25
Nsg26
S'heterogeneous'
p2616
sg28
F51.17300079
sg29
g1213
sg31
g32
sba(iexpclass
expclass
p2617
(dp2618
g6
g1250
sg8
S'gas'
p2619
sg10
F0.019309705045062478
sg11
S'Chun'
p2620
sg13
F-1.71422436
sg14
S'yes'
p2621
sg16
g1250
sg18
g19
sg20
S'Radical'
p2622
sg22
I696
sg23
S'O2'
p2623
sg25
Nsg26
S'heterogeneous'
p2624
sg28
F50.90352195
sg29
g1213
sg31
g32
sba(iexpclass
expclass
p2625
(dp2626
g6
g1250
sg8
S'gas'
p2627
sg10
F0.03737383302796725
sg11
S'Chun'
p2628
sg13
F-1.427432359
sg14
S'yes'
p2629
sg16
g1250
sg18
g19
sg20
S'Radical'
p2630
sg22
I708
sg23
S'O2'
p2631
sg25
Nsg26
S'heterogeneous'
p2632
sg28
F47.62033987
sg29
g1213
sg31
g32
sba(iexpclass
expclass
p2633
(dp2634
g6
g1250
sg8
S'gas'
p2635
sg10
F0.04052532598577674
sg11
S'Chun'
p2636
sg13
F-1.392273483
sg14
S'yes'
p2637
sg16
g1250
sg18
g19
sg20
S'Radical'
p2638
sg22
I714
sg23
S'O2'
p2639
sg25
Nsg26
S'heterogeneous'
p2640
sg28
F38.93559014
sg29
g1213
sg31
g32
sba(iexpclass
expclass
p2641
(dp2642
g6
g1250
sg8
S'gas'
p2643
sg10
F0.04209928432261353
sg11
S'Chun'
p2644
sg13
F-1.375725287
sg14
S'yes'
p2645
sg16
g1250
sg18
g19
sg20
S'Radical'
p2646
sg22
I732
sg23
S'O2'
p2647
sg25
Nsg26
S'heterogeneous'
p2648
sg28
F34.31994985
sg29
g1213
sg31
g32
sba(iexpclass
expclass
p2649
(dp2650
g6
g1250
sg8
S'gas'
p2651
sg10
F0.04108679280680072
sg11
S'Chun'
p2652
sg13
F-1.386297758
sg14
S'yes'
p2653
sg16
g1250
sg18
g19
sg20
S'Radical'
p2654
sg22
I742
sg23
S'O2'
p2655
sg25
Nsg26
S'heterogeneous'
p2656
sg28
F33.21258325
sg29
g1213
sg31
g32
sba(iexpclass
expclass
p2657
(dp2658
g6
g1250
sg8
S'gas'
p2659
sg10
F0.031000000011829645
sg11
S'Foulds'
p2660
sg13
F-1.508638306
sg14
S'yes'
p2661
sg16
g1250
sg18
g19
sg20
S'Radical'
p2662
sg22
I663
sg23
S'O2'
p2663
sg25
Nsg26
S'heterogeneous'
p2664
sg28
F47.0
sg29
g1213
sg31
g32
sba(iexpclass
expclass
p2665
(dp2666
g6
g1250
sg8
S'gas'
p2667
sg10
F0.045000000023278065
sg11
S'Foulds'
p2668
sg13
F-1.346787486
sg14
S'yes'
p2669
sg16
g1250
sg18
g19
sg20
S'Radical'
p2670
sg22
I668
sg23
S'O2'
p2671
sg25
Nsg26
S'heterogeneous'
p2672
sg28
F37.7
sg29
g1213
sg31
g32
sba(iexpclass
expclass
p2673
(dp2674
g6
g1250
sg8
S'gas'
p2675
sg10
F0.06400000000237446
sg11
S'Foulds'
p2676
sg13
F-1.193820026
sg14
S'yes'
p2677
sg16
g1250
sg18
g19
sg20
S'Radical'
p2678
sg22
I673
sg23
S'O2'
p2679
sg25
Nsg26
S'heterogeneous'
p2680
sg28
F28.1
sg29
g1213
sg31
g32
sba(iexpclass
expclass
p2681
(dp2682
g6
g1250
sg8
S'gas'
p2683
sg10
F0.08500000005591857
sg11
S'Foulds'
p2684
sg13
F-1.070581074
sg14
S'yes'
p2685
sg16
g1250
sg18
g19
sg20
S'Radical'
p2686
sg22
I673
sg23
S'O2'
p2687
sg25
Nsg26
S'heterogeneous'
p2688
sg28
F23.0
sg29
g1213
sg31
g32
sba(iexpclass
expclass
p2689
(dp2690
g6
g1250
sg8
S'gas'
p2691
sg10
F0.04100000002645864
sg11
S'Foulds'
p2692
sg13
F-1.387216143
sg14
S'yes'
p2693
sg16
g1250
sg18
g19
sg20
S'Radical'
p2694
sg22
I693
sg23
S'O2'
p2695
sg25
Nsg26
S'heterogeneous'
p2696
sg28
F27.2
sg29
g1213
sg31
g32
sba(iexpclass
expclass
p2697
(dp2698
g6
g1250
sg8
S'gas'
p2699
sg10
F0.04600000003372733
sg11
S'Foulds'
p2700
sg13
F-1.337242168
sg14
S'yes'
p2701
sg16
g1250
sg18
g19
sg20
S'Radical'
p2702
sg22
I648
sg23
S'O2'
p2703
sg25
Nsg26
S'heterogeneous'
p2704
sg28
F33.7
sg29
g1213
sg31
g32
sba(iexpclass
expclass
p2705
(dp2706
g6
g1250
sg8
S'gas'
p2707
sg10
F0.057000000042984625
sg11
S'Foulds'
p2708
sg13
F-1.244125144
sg14
S'yes'
p2709
sg16
g1250
sg18
g19
sg20
S'Radical'
p2710
sg22
I677
sg23
S'O2'
p2711
sg25
Nsg26
S'heterogeneous'
p2712
sg28
F36.3
sg29
g1213
sg31
g32
sba(iexpclass
expclass
p2713
(dp2714
g6
g1250
sg8
S'gas'
p2715
sg10
F0.0650000000534531
sg11
S'Foulds'
p2716
sg13
F-1.187086643
sg14
S'yes'
p2717
sg16
g1250
sg18
g19
sg20
S'Radical'
p2718
sg22
I675
sg23
S'O2'
p2719
sg25
Nsg26
S'heterogeneous'
p2720
sg28
F33.3
sg29
g1213
sg31
g32
sba(iexpclass
expclass
p2721
(dp2722
g6
g1250
sg8
S'gas'
p2723
sg10
F0.08999999990895753
sg11
S'Foulds'
p2724
sg13
F-1.045757491
sg14
S'yes'
p2725
sg16
g1250
sg18
g19
sg20
S'Radical'
p2726
sg22
I668
sg23
S'O2'
p2727
sg25
Nsg26
S'heterogeneous'
p2728
sg28
F23.5
sg29
g1213
sg31
g32
sba(iexpclass
expclass
p2729
(dp2730
g6
g1250
sg8
S'gas'
p2731
sg10
F0.07699999996941913
sg11
S'Foulds'
p2732
sg13
F-1.113509275
sg14
S'yes'
p2733
sg16
g1250
sg18
g19
sg20
S'Radical'
p2734
sg22
I678
sg23
S'O2'
p2735
sg25
Nsg26
S'heterogeneous'
p2736
sg28
F17.9
sg29
g1213
sg31
g32
sba(iexpclass
expclass
p2737
(dp2738
g6
g1250
sg8
S'gas'
p2739
sg10
F0.06700000004615447
sg11
S'Foulds'
p2740
sg13
F-1.173925197
sg14
S'yes'
p2741
sg16
g1250
sg18
g19
sg20
S'Radical'
p2742
sg22
I658
sg23
S'O2'
p2743
sg25
Nsg26
S'heterogeneous'
p2744
sg28
F23.6
sg29
g1213
sg31
g32
sba(iexpclass
expclass
p2745
(dp2746
g6
S'Ceria-Zirconia'
p2747
sg8
S'gas'
p2748
sg10
F0.14999999998076838
sg11
S'Okolie'
p2749
sg13
F-0.823908741
sg14
S'no'
p2750
sg16
S'Ni'
p2751
sg18
g19
sg20
S'None'
p2752
sg22
I723
sg23
S'O2'
p2753
sg25
Nsg26
S'heterogeneous'
p2754
sg28
F43.0
sg29
S'pink'
p2755
sg31
g32
sba(iexpclass
expclass
p2756
(dp2757
g6
S'Zirconia'
p2758
sg8
S'aqueous'
p2759
sg10
F1.3699999995066092e-05
sg11
S'Kwon'
p2760
sg13
F-4.863279433
sg14
S'yes'
p2761
sg16
S'Rh'
p2762
sg18
g19
sg20
S'None'
p2763
sg22
I343
sg23
S'H2O2'
p2764
sg25
Nsg26
S'heterogeneous'
p2765
sg28
F71.0
sg29
S'lightskyblue'
p2766
sg31
g32
sba(iexpclass
expclass
p2767
(dp2768
g6
g1250
sg8
S'aqueous'
p2769
sg10
F0.0001424950650720353
sg11
S'Hutchings'
p2770
sg13
F-3.846200176
sg14
S'yes'
p2771
sg16
S'Au-Pd'
p2772
sg18
g19
sg20
S'Radical'
p2773
sg22
I323
sg23
S'H2O2/O2'
p2774
sg25
Nsg26
S'heterogeneous'
p2775
sg28
F100.0
sg29
S'palegoldenrod'
p2776
sg31
g32
sba(iexpclass
expclass
p2777
(dp2778
g6
g1250
sg8
S'aqueous'
p2779
sg10
F0.00032236588536950267
sg11
S'Hutchings'
p2780
sg13
F-3.491650924
sg14
S'yes'
p2781
sg16
S'Au-Pd'
p2782
sg18
g19
sg20
S'Radical'
p2783
sg22
I323
sg23
S'H2O2/O2'
p2784
sg25
Nsg26
S'heterogeneous'
p2785
sg28
F97.10144928
sg29
g2776
sg31
g32
sba(iexpclass
expclass
p2786
(dp2787
g6
g1250
sg8
S'aqueous'
p2788
sg10
F0.0004368291343863902
sg11
S'Hutchings'
p2789
sg13
F-3.359688404
sg14
S'yes'
p2790
sg16
S'Au-Pd'
p2791
sg18
g19
sg20
S'Radical'
p2792
sg22
I323
sg23
S'H2O2/O2'
p2793
sg25
Nsg26
S'heterogeneous'
p2794
sg28
F95.18716578
sg29
g2776
sg31
g32
sba(iexpclass
expclass
p2795
(dp2796
g6
g1250
sg8
S'aqueous'
p2797
sg10
F0.0005793241992275695
sg11
S'Hutchings'
p2798
sg13
F-3.23707833
sg14
S'yes'
p2799
sg16
S'Au-Pd'
p2800
sg18
g19
sg20
S'Radical'
p2801
sg22
I323
sg23
S'H2O2/O2'
p2802
sg25
Nsg26
S'heterogeneous'
p2803
sg28
F92.33870968
sg29
g2776
sg31
g32
sba(iexpclass
expclass
p2804
(dp2805
g6
g1250
sg8
S'aqueous'
p2806
sg10
F0.000665755631897395
sg11
S'Hutchings'
p2807
sg13
F-3.176685151
sg14
S'yes'
p2808
sg16
S'Au-Pd'
p2809
sg18
g19
sg20
S'Radical'
p2810
sg22
I323
sg23
S'H2O2/O2'
p2811
sg25
Nsg26
S'heterogeneous'
p2812
sg28
F91.57894737
sg29
g2776
sg31
g32
sba(iexpclass
expclass
p2813
(dp2814
g6
g1250
sg8
S'aqueous'
p2815
sg10
F0.000665755631897395
sg11
S'Hutchings'
p2816
sg13
F-3.176685151
sg14
S'yes'
p2817
sg16
S'Au-Pd'
p2818
sg18
g19
sg20
S'Radical'
p2819
sg22
I323
sg23
S'H2O2/O2'
p2820
sg25
Nsg26
S'heterogeneous'
p2821
sg28
F81.75438596
sg29
g2776
sg31
g32
sba(iexpclass
expclass
p2822
(dp2823
g6
g1250
sg8
S'aqueous'
p2824
sg10
F0.0007895628209122982
sg11
S'Hutchings'
p2825
sg13
F-3.10261331
sg14
S'yes'
p2826
sg16
S'Au-Pd'
p2827
sg18
g19
sg20
S'Radical'
p2828
sg22
I323
sg23
S'H2O2/O2'
p2829
sg25
Nsg26
S'heterogeneous'
p2830
sg28
F86.39053254
sg29
g2776
sg31
g32
sba(iexpclass
expclass
p2831
(dp2832
g6
g1250
sg8
S'aqueous'
p2833
sg10
F0.0008970181158804077
sg11
S'Hutchings'
p2834
sg13
F-3.047198786
sg14
S'yes'
p2835
sg16
S'Au-Pd'
p2836
sg18
g19
sg20
S'Radical'
p2837
sg22
I323
sg23
S'H2O2/O2'
p2838
sg25
Nsg26
S'heterogeneous'
p2839
sg28
F84.375
sg29
g2776
sg31
g32
sba(iexpclass
expclass
p2840
(dp2841
g6
g1250
sg8
S'aqueous'
p2842
sg10
F0.0010091453793259046
sg11
S'Hutchings'
p2843
sg13
F-2.996046264
sg14
S'yes'
p2844
sg16
S'Au-Pd'
p2845
sg18
g19
sg20
S'Radical'
p2846
sg22
I323
sg23
S'H2O2/O2'
p2847
sg25
Nsg26
S'heterogeneous'
p2848
sg28
F79.86111111
sg29
g2776
sg31
g32
sba(iexpclass
expclass
p2849
(dp2850
g6
g1250
sg8
S'aqueous'
p2851
sg10
F0.001186680216028586
sg11
S'Hutchings'
p2852
sg13
F-2.925666298
sg14
S'yes'
p2853
sg16
S'Au-Pd'
p2854
sg18
g19
sg20
S'Radical'
p2855
sg22
I323
sg23
S'H2O2/O2'
p2856
sg25
Nsg26
S'heterogeneous'
p2857
sg28
F77.55905512
sg29
g2776
sg31
g32
sba(iexpclass
expclass
p2858
(dp2859
g6
S'MMO'
p2860
sg8
S'aqueous'
p2861
sg10
F0.3409090912470263
sg11
S'Mountfort'
p2862
sg13
F-0.467361417
sg14
S'yes'
p2863
sg16
S'Fe'
p2864
sg18
g19
sg20
S'MMO'
p2865
sg22
I303
sg23
S'O2'
p2866
sg25
Nsg26
S'homogeneous'
p2867
sg28
F0.0
sg29
g30
sg31
g32
sba(iexpclass
expclass
p2868
(dp2869
g6
S'MMO'
p2870
sg8
S'aqueous'
p2871
sg10
F0.0874999999955044
sg11
S'Mountfort'
p2872
sg13
F-1.057991947
sg14
S'yes'
p2873
sg16
S'Fe'
p2874
sg18
g19
sg20
S'MMO'
p2875
sg22
I303
sg23
S'O3'
p2876
sg25
Nsg26
S'homogeneous'
p2877
sg28
F36.36363636
sg29
g30
sg31
g32
sba(iexpclass
expclass
p2878
(dp2879
g6
S'MMO'
p2880
sg8
S'aqueous'
p2881
sg10
F0.08295454546022085
sg11
S'Mountfort'
p2882
sg13
F-1.081159812
sg14
S'yes'
p2883
sg16
S'Fe'
p2884
sg18
g19
sg20
S'MMO'
p2885
sg22
I303
sg23
S'O4'
p2886
sg25
Nsg26
S'homogeneous'
p2887
sg28
F61.36986301
sg29
g30
sg31
g32
sba(iexpclass
expclass
p2888
(dp2889
g6
S'MMO'
p2890
sg8
S'aqueous'
p2891
sg10
F0.09159090916368459
sg11
S'Mountfort'
p2892
sg13
F-1.03814763
sg14
S'yes'
p2893
sg16
S'Fe'
p2894
sg18
g19
sg20
S'MMO'
p2895
sg22
I303
sg23
S'O5'
p2896
sg25
Nsg26
S'homogeneous'
p2897
sg28
F15.38461538
sg29
g30
sg31
g32
sba(iexpclass
expclass
p2898
(dp2899
g6
S'MMO'
p2900
sg8
S'aqueous'
p2901
sg10
F0.33772727277519976
sg11
S'Mountfort'
p2902
sg13
F-0.471433867
sg14
S'yes'
p2903
sg16
S'Fe'
p2904
sg18
g19
sg20
S'MMO'
p2905
sg22
I303
sg23
S'O6'
p2906
sg25
Nsg26
S'homogeneous'
p2907
sg28
F0.0
sg29
g30
sg31
g32
sbasb.