(iexpclass
expclasses
p0
(dp1
S'data'
p2
(lp3
(iexpclass
expclass
p4
(dp5
S'category'
p6
S'Zeolite(Generic)'
p7
sS'cattype'
p8
S'MFI'
p9
sS'rxntype'
p10
S'gas'
p11
sS'conv'
p12
F0.6165950018614822
sS'author'
p13
S'Wood'
p14
sS'DOI'
p15
S'10.1016/j.jcat.2004.04.010'
p16
sS'log_conv'
p17
F-0.21
sS'single_site'
p18
S'yes'
p19
sS'cat'
p20
S'Fe'
p21
sS'tag'
p22
S'None'
p23
sS'T'
p24
I673
sS'oxidant'
p25
S'N2O'
p26
sS'dEa'
p27
NsS'catalysis'
p28
S'heterogeneous'
p29
sS'sel'
p30
F2.0
sba(iexpclass
expclass
p31
(dp32
g6
S'Sodalite'
p33
sg8
S'sodalite'
p34
sg10
S'gas'
p35
sg12
F0.038018939632056124
sg13
S'Durante'
p36
sg15
S'US4918249'
p37
sg17
F-1.42
sg18
S'yes'
p38
sg20
S'Fe'
p39
sg22
S'None'
p40
sg24
I670
sg25
S'O2'
p41
sg27
Nsg28
S'heterogeneous'
p42
sg30
F59.0
sba(iexpclass
expclass
p43
(dp44
g6
S'Sodalite'
p45
sg8
S'sodalite'
p46
sg10
S'gas'
p47
sg12
F0.04265795188015926
sg13
S'Durante'
p48
sg15
S'US4918249'
p49
sg17
F-1.37
sg18
S'yes'
p50
sg20
S'Fe'
p51
sg22
S'None'
p52
sg24
I675
sg25
S'O2'
p53
sg27
Nsg28
S'heterogeneous'
p54
sg30
F63.0
sba(iexpclass
expclass
p55
(dp56
g6
S'Sodalite'
p57
sg8
S'sodalite'
p58
sg10
S'gas'
p59
sg12
F0.04570881896148749
sg13
S'Durante'
p60
sg15
S'US4918249'
p61
sg17
F-1.34
sg18
S'yes'
p62
sg20
S'Fe'
p63
sg22
S'None'
p64
sg24
I680
sg25
S'O2'
p65
sg27
Nsg28
S'heterogeneous'
p66
sg30
F64.0
sba(iexpclass
expclass
p67
(dp68
g6
S'Sodalite'
p69
sg8
S'sodalite'
p70
sg10
S'gas'
p71
sg12
F0.054954087385762455
sg13
S'Durante'
p72
sg15
S'US4918249'
p73
sg17
F-1.26
sg18
S'yes'
p74
sg20
S'Fe'
p75
sg22
S'None'
p76
sg24
I686
sg25
S'O2'
p77
sg27
Nsg28
S'heterogeneous'
p78
sg30
F66.0
sba(iexpclass
expclass
p79
(dp80
g6
S'Sodalite'
p81
sg8
S'sodalite'
p82
sg10
S'gas'
p83
sg12
F0.05248074602497726
sg13
S'Durante'
p84
sg15
S'US4918249'
p85
sg17
F-1.28
sg18
S'yes'
p86
sg20
S'Fe'
p87
sg22
S'None'
p88
sg24
I687
sg25
S'O2'
p89
sg27
Nsg28
S'heterogeneous'
p90
sg30
F70.0
sba(iexpclass
expclass
p91
(dp92
g6
S'Sodalite'
p93
sg8
S'sodalite'
p94
sg10
S'gas'
p95
sg12
F0.057543993733715694
sg13
S'Durante'
p96
sg15
S'US4918249'
p97
sg17
F-1.24
sg18
S'yes'
p98
sg20
S'Fe'
p99
sg22
S'None'
p100
sg24
I689
sg25
S'O2'
p101
sg27
Nsg28
S'heterogeneous'
p102
sg30
F70.0
sba(iexpclass
expclass
p103
(dp104
g6
S'Sodalite'
p105
sg8
S'sodalite'
p106
sg10
S'gas'
p107
sg12
F0.05370317963702527
sg13
S'Durante'
p108
sg15
S'US4918249'
p109
sg17
F-1.27
sg18
S'yes'
p110
sg20
S'Fe'
p111
sg22
S'None'
p112
sg24
I691
sg25
S'O2'
p113
sg27
Nsg28
S'heterogeneous'
p114
sg30
F68.0
sba(iexpclass
expclass
p115
(dp116
g6
S'Sodalite'
p117
sg8
S'sodalite'
p118
sg10
S'gas'
p119
sg12
F0.05370317963702527
sg13
S'Durante'
p120
sg15
S'US4918249'
p121
sg17
F-1.27
sg18
S'yes'
p122
sg20
S'Fe'
p123
sg22
S'None'
p124
sg24
I695
sg25
S'O2'
p125
sg27
Nsg28
S'heterogeneous'
p126
sg30
F65.0
sba(iexpclass
expclass
p127
(dp128
g6
S'Sodalite'
p129
sg8
S'sodalite'
p130
sg10
S'gas'
p131
sg12
F0.05128613839913648
sg13
S'Durante'
p132
sg15
S'US4918249'
p133
sg17
F-1.29
sg18
S'yes'
p134
sg20
S'Fe'
p135
sg22
S'None'
p136
sg24
I700
sg25
S'O2'
p137
sg27
Nsg28
S'heterogeneous'
p138
sg30
F66.0
sba(iexpclass
expclass
p139
(dp140
g6
S'Sodalite'
p141
sg8
S'sodalite'
p142
sg10
S'gas'
p143
sg12
F0.054954087385762455
sg13
S'Durante'
p144
sg15
S'US4918249'
p145
sg17
F-1.26
sg18
S'yes'
p146
sg20
S'Fe'
p147
sg22
S'None'
p148
sg24
I705
sg25
S'O2'
p149
sg27
Nsg28
S'heterogeneous'
p150
sg30
F63.0
sba(iexpclass
expclass
p151
(dp152
g6
S'Sodalite'
p153
sg8
S'sodalite'
p154
sg10
S'gas'
p155
sg12
F0.06165950018614822
sg13
S'Durante'
p156
sg15
S'US4918249'
p157
sg17
F-1.21
sg18
S'yes'
p158
sg20
S'Fe'
p159
sg22
S'None'
p160
sg24
I715
sg25
S'O2'
p161
sg27
Nsg28
S'heterogeneous'
p162
sg30
F64.0
sba(iexpclass
expclass
p163
(dp164
g6
S'Sodalite'
p165
sg8
S'sodalite'
p166
sg10
S'gas'
p167
sg12
F0.05623413251903491
sg13
S'Durante'
p168
sg15
S'US4918249'
p169
sg17
F-1.25
sg18
S'yes'
p170
sg20
S'Fe'
p171
sg22
S'None'
p172
sg24
I725
sg25
S'O2'
p173
sg27
Nsg28
S'heterogeneous'
p174
sg30
F59.0
sba(iexpclass
expclass
p175
(dp176
g6
S'Sodalite'
p177
sg8
S'sodalite'
p178
sg10
S'gas'
p179
sg12
F0.057543993733715694
sg13
S'Durante'
p180
sg15
S'US4918249'
p181
sg17
F-1.24
sg18
S'yes'
p182
sg20
S'Fe'
p183
sg22
S'None'
p184
sg24
I735
sg25
S'O2'
p185
sg27
Nsg28
S'heterogeneous'
p186
sg30
F58.0
sba(iexpclass
expclass
p187
(dp188
g6
S'Sodalite'
p189
sg8
S'sodalite'
p190
sg10
S'gas'
p191
sg12
F0.0446683592150963
sg13
S'Durante'
p192
sg15
S'US4918249'
p193
sg17
F-1.35
sg18
S'yes'
p194
sg20
S'Fe'
p195
sg22
S'None'
p196
sg24
I692
sg25
S'O2'
p197
sg27
Nsg28
S'heterogeneous'
p198
sg30
F59.0
sba(iexpclass
expclass
p199
(dp200
g6
S'Sodalite'
p201
sg8
S'sodalite'
p202
sg10
S'gas'
p203
sg12
F0.05370317963702527
sg13
S'Durante'
p204
sg15
S'US4918249'
p205
sg17
F-1.27
sg18
S'yes'
p206
sg20
S'Fe'
p207
sg22
S'None'
p208
sg24
I698
sg25
S'O2'
p209
sg27
Nsg28
S'heterogeneous'
p210
sg30
F63.0
sba(iexpclass
expclass
p211
(dp212
g6
S'Sodalite'
p213
sg8
S'sodalite'
p214
sg10
S'gas'
p215
sg12
F0.057543993733715694
sg13
S'Durante'
p216
sg15
S'US4918249'
p217
sg17
F-1.24
sg18
S'yes'
p218
sg20
S'Fe'
p219
sg22
S'None'
p220
sg24
I703
sg25
S'O2'
p221
sg27
Nsg28
S'heterogeneous'
p222
sg30
F62.0
sba(iexpclass
expclass
p223
(dp224
g6
S'Sodalite'
p225
sg8
S'sodalite'
p226
sg10
S'gas'
p227
sg12
F0.05248074602497726
sg13
S'Durante'
p228
sg15
S'US4918249'
p229
sg17
F-1.28
sg18
S'yes'
p230
sg20
S'Fe'
p231
sg22
S'None'
p232
sg24
I713
sg25
S'O2'
p233
sg27
Nsg28
S'heterogeneous'
p234
sg30
F59.0
sba(iexpclass
expclass
p235
(dp236
g6
S'Sodalite'
p237
sg8
S'sodalite'
p238
sg10
S'gas'
p239
sg12
F0.039810717055349734
sg13
S'Durante'
p240
sg15
S'US4918249'
p241
sg17
F-1.4
sg18
S'yes'
p242
sg20
S'Fe'
p243
sg22
S'None'
p244
sg24
I703
sg25
S'O2'
p245
sg27
Nsg28
S'heterogeneous'
p246
sg30
F52.0
sba(iexpclass
expclass
p247
(dp248
g6
S'Sodalite'
p249
sg8
S'sodalite'
p250
sg10
S'gas'
p251
sg12
F0.04570881896148749
sg13
S'Durante'
p252
sg15
S'US4918249'
p253
sg17
F-1.34
sg18
S'yes'
p254
sg20
S'Fe'
p255
sg22
S'None'
p256
sg24
I711
sg25
S'O2'
p257
sg27
Nsg28
S'heterogeneous'
p258
sg30
F55.0
sba(iexpclass
expclass
p259
(dp260
g6
S'Sodalite'
p261
sg8
S'sodalite'
p262
sg10
S'gas'
p263
sg12
F0.04897788193684462
sg13
S'Durante'
p264
sg15
S'US4918249'
p265
sg17
F-1.31
sg18
S'yes'
p266
sg20
S'Fe'
p267
sg22
S'None'
p268
sg24
I717
sg25
S'O2'
p269
sg27
Nsg28
S'heterogeneous'
p270
sg30
F54.0
sba(iexpclass
expclass
p271
(dp272
g6
S'Sodalite'
p273
sg8
S'sodalite'
p274
sg10
S'gas'
p275
sg12
F0.023988329190194897
sg13
S'Durante'
p276
sg15
S'US4918249'
p277
sg17
F-1.62
sg18
S'yes'
p278
sg20
S'Fe'
p279
sg22
S'None'
p280
sg24
I710
sg25
S'O2'
p281
sg27
Nsg28
S'heterogeneous'
p282
sg30
F43.0
sba(iexpclass
expclass
p283
(dp284
g6
S'Sodalite'
p285
sg8
S'sodalite'
p286
sg10
S'gas'
p287
sg12
F0.030902954325135904
sg13
S'Durante'
p288
sg15
S'US4918249'
p289
sg17
F-1.51
sg18
S'yes'
p290
sg20
S'Fe'
p291
sg22
S'None'
p292
sg24
I722
sg25
S'O2'
p293
sg27
Nsg28
S'heterogeneous'
p294
sg30
F45.0
sba(iexpclass
expclass
p295
(dp296
g6
S'Sodalite'
p297
sg8
S'sodalite'
p298
sg10
S'gas'
p299
sg12
F0.034673685045253165
sg13
S'Durante'
p300
sg15
S'US4918249'
p301
sg17
F-1.46
sg18
S'yes'
p302
sg20
S'Fe'
p303
sg22
S'None'
p304
sg24
I724
sg25
S'O2'
p305
sg27
Nsg28
S'heterogeneous'
p306
sg30
F46.0
sba(iexpclass
expclass
p307
(dp308
g6
S'Sodalite'
p309
sg8
S'sodalite'
p310
sg10
S'gas'
p311
sg12
F0.03715352290971726
sg13
S'Durante'
p312
sg15
S'US4918249'
p313
sg17
F-1.43
sg18
S'yes'
p314
sg20
S'Fe'
p315
sg22
S'None'
p316
sg24
I728
sg25
S'O2'
p317
sg27
Nsg28
S'heterogeneous'
p318
sg30
F45.0
sba(iexpclass
expclass
p319
(dp320
g6
S'Sodalite'
p321
sg8
S'sodalite'
p322
sg10
S'gas'
p323
sg12
F0.03890451449942807
sg13
S'Durante'
p324
sg15
S'US4918249'
p325
sg17
F-1.41
sg18
S'yes'
p326
sg20
S'Fe'
p327
sg22
S'None'
p328
sg24
I732
sg25
S'O2'
p329
sg27
Nsg28
S'heterogeneous'
p330
sg30
F44.0
sba(iexpclass
expclass
p331
(dp332
g6
S'Sodalite'
p333
sg8
S'sodalite'
p334
sg10
S'gas'
p335
sg12
F0.015848931924611134
sg13
S'Durante'
p336
sg15
S'US4918249'
p337
sg17
F-1.8
sg18
S'yes'
p338
sg20
S'Fe'
p339
sg22
S'None'
p340
sg24
I726
sg25
S'O2'
p341
sg27
Nsg28
S'heterogeneous'
p342
sg30
F38.0
sba(iexpclass
expclass
p343
(dp344
g6
S'Sodalite'
p345
sg8
S'sodalite'
p346
sg10
S'gas'
p347
sg12
F0.025703957827688632
sg13
S'Durante'
p348
sg15
S'US4918249'
p349
sg17
F-1.59
sg18
S'yes'
p350
sg20
S'Fe'
p351
sg22
S'None'
p352
sg24
I739
sg25
S'O2'
p353
sg27
Nsg28
S'heterogeneous'
p354
sg30
F40.0
sba(iexpclass
expclass
p355
(dp356
g6
S'Sodalite'
p357
sg8
S'sodalite'
p358
sg10
S'gas'
p359
sg12
F0.057543993733715694
sg13
S'Durante'
p360
sg15
S'US4918249'
p361
sg17
F-1.24
sg18
S'yes'
p362
sg20
S'Fe'
p363
sg22
S'None'
p364
sg24
I701
sg25
S'O2'
p365
sg27
Nsg28
S'heterogeneous'
p366
sg30
F24.0
sba(iexpclass
expclass
p367
(dp368
g6
S'Sodalite'
p369
sg8
S'sodalite'
p370
sg10
S'gas'
p371
sg12
F0.057543993733715694
sg13
S'Durante'
p372
sg15
S'US4918249'
p373
sg17
F-1.24
sg18
S'yes'
p374
sg20
S'Fe'
p375
sg22
S'None'
p376
sg24
I707
sg25
S'O2'
p377
sg27
Nsg28
S'heterogeneous'
p378
sg30
F25.0
sba(iexpclass
expclass
p379
(dp380
g6
S'Sodalite'
p381
sg8
S'sodalite'
p382
sg10
S'gas'
p383
sg12
F0.05623413251903491
sg13
S'Durante'
p384
sg15
S'US4918249'
p385
sg17
F-1.25
sg18
S'yes'
p386
sg20
S'Fe'
p387
sg22
S'None'
p388
sg24
I712
sg25
S'O2'
p389
sg27
Nsg28
S'heterogeneous'
p390
sg30
F21.0
sba(iexpclass
expclass
p391
(dp392
g6
S'Oxide'
p393
sg8
S'SiO2'
p394
sg10
S'gas'
p395
sg12
F0.022908676527677734
sg13
S'Durante'
p396
sg15
S'US4918249'
p397
sg17
F-1.64
sg18
S'no'
p398
sg20
S'Fe'
p399
sg22
S'None'
p400
sg24
I712
sg25
S'O2'
p401
sg27
Nsg28
S'heterogeneous'
p402
sg30
F25.0
sba(iexpclass
expclass
p403
(dp404
g6
g7
sg8
S'ZSM-5'
p405
sg10
S'gas'
p406
sg12
F0.05128613839913648
sg13
S'Durante'
p407
sg15
S'US4918249'
p408
sg17
F-1.29
sg18
S'yes'
p409
sg20
S'Fe'
p410
sg22
S'None'
p411
sg24
I709
sg25
S'O2'
p412
sg27
Nsg28
S'heterogeneous'
p413
sg30
F18.0
sba(iexpclass
expclass
p414
(dp415
g6
S'Sodalite'
p416
sg8
S'sodalite'
p417
sg10
S'gas'
p418
sg12
F0.057543993733715694
sg13
S'Durante'
p419
sg15
S'US4918249'
p420
sg17
F-1.24
sg18
S'yes'
p421
sg20
S'Fe'
p422
sg22
S'None'
p423
sg24
I708
sg25
S'O2'
p424
sg27
Nsg28
S'heterogeneous'
p425
sg30
F25.0
sba(iexpclass
expclass
p426
(dp427
g6
S'Oxide'
p428
sg8
S'MO3/SiO2/Al2O3'
p429
sg10
S'gas'
p430
sg12
F0.022908676527677734
sg13
S'Durante'
p431
sg15
S'US4918249'
p432
sg17
F-1.64
sg18
S'no'
p433
sg20
S'Fe'
p434
sg22
S'None'
p435
sg24
I723
sg25
S'O2'
p436
sg27
Nsg28
S'heterogeneous'
p437
sg30
F47.0
sba(iexpclass
expclass
p438
(dp439
g6
S'Sodalite'
p440
sg8
S'Sodalite'
p441
sg10
S'gas'
p442
sg12
F0.04897788193684462
sg13
S'Durante'
p443
sg15
S'US4918249'
p444
sg17
F-1.31
sg18
S'yes'
p445
sg20
S'Fe'
p446
sg22
S'None'
p447
sg24
I717
sg25
S'O2'
p448
sg27
Nsg28
S'heterogeneous'
p449
sg30
F54.0
sba(iexpclass
expclass
p450
(dp451
g6
S'Oxide'
p452
sg8
S'glass-beads'
p453
sg10
S'gas'
p454
sg12
F0.001995262314968879
sg13
S'Durante'
p455
sg15
S'US4918249'
p456
sg17
F-2.7
sg18
S'no'
p457
sg20
S'Fe'
p458
sg22
S'None'
p459
sg24
I680
sg25
S'O2'
p460
sg27
Nsg28
S'heterogeneous'
p461
sg30
F47.0
sba(iexpclass
expclass
p462
(dp463
g6
S'Oxide'
p464
sg8
S'glass-beads'
p465
sg10
S'gas'
p466
sg12
F0.01412537544622754
sg13
S'Durante'
p467
sg15
S'US4918249'
p468
sg17
F-1.85
sg18
S'no'
p469
sg20
S'Fe'
p470
sg22
S'None'
p471
sg24
I691
sg25
S'O2'
p472
sg27
Nsg28
S'heterogeneous'
p473
sg30
F44.0
sba(iexpclass
expclass
p474
(dp475
g6
S'Oxide'
p476
sg8
S'glass-beads'
p477
sg10
S'gas'
p478
sg12
F0.025118864315095794
sg13
S'Durante'
p479
sg15
S'US4918249'
p480
sg17
F-1.6
sg18
S'no'
p481
sg20
S'Fe'
p482
sg22
S'None'
p483
sg24
I695
sg25
S'O2'
p484
sg27
Nsg28
S'heterogeneous'
p485
sg30
F56.0
sba(iexpclass
expclass
p486
(dp487
g6
S'Oxide'
p488
sg8
S'glass-beads'
p489
sg10
S'gas'
p490
sg12
F0.04265795188015926
sg13
S'Durante'
p491
sg15
S'US4918249'
p492
sg17
F-1.37
sg18
S'no'
p493
sg20
S'Fe'
p494
sg22
S'None'
p495
sg24
I703
sg25
S'O2'
p496
sg27
Nsg28
S'heterogeneous'
p497
sg30
F56.0
sba(iexpclass
expclass
p498
(dp499
g6
S'Sodalite'
p500
sg8
S'hydroxysodalite'
p501
sg10
S'gas'
p502
sg12
F0.003019951720402016
sg13
S'Durante'
p503
sg15
S'US4918249'
p504
sg17
F-2.52
sg18
S'yes'
p505
sg20
S'Fe'
p506
sg22
S'None'
p507
sg24
I708
sg25
S'O2'
p508
sg27
Nsg28
S'heterogeneous'
p509
sg30
F59.0
sba(iexpclass
expclass
p510
(dp511
g6
S'Sodalite'
p512
sg8
S'hydroxysodalite'
p513
sg10
S'gas'
p514
sg12
F0.05128613839913648
sg13
S'Durante'
p515
sg15
S'US4918249'
p516
sg17
F-1.29
sg18
S'yes'
p517
sg20
S'Fe'
p518
sg22
S'None'
p519
sg24
I718
sg25
S'O2'
p520
sg27
Nsg28
S'heterogeneous'
p521
sg30
F24.0
sba(iexpclass
expclass
p522
(dp523
g6
S'Sodalite'
p524
sg8
S'hydroxysodalite'
p525
sg10
S'gas'
p526
sg12
F0.05248074602497726
sg13
S'Durante'
p527
sg15
S'US4918249'
p528
sg17
F-1.28
sg18
S'yes'
p529
sg20
S'Fe'
p530
sg22
S'None'
p531
sg24
I707
sg25
S'O2'
p532
sg27
Nsg28
S'heterogeneous'
p533
sg30
F18.0
sba(iexpclass
expclass
p534
(dp535
g6
g7
sg8
S'ZSM-5'
p536
sg10
S'gas'
p537
sg12
F0.003890451449942805
sg13
S'Wang'
p538
sg15
S'10.1039/c39940002209'
p539
sg17
F-2.41
sg18
S'yes'
p540
sg20
S'Fe'
p541
sg22
S'None'
p542
sg24
I700
sg25
S'O2'
p543
sg27
Nsg28
S'heterogeneous'
p544
sg30
F0.0
sba(iexpclass
expclass
p545
(dp546
g6
g7
sg8
S'ZSM-5'
p547
sg10
S'gas'
p548
sg12
F0.009120108393559097
sg13
S'Wang'
p549
sg15
S'10.1039/c39940002209'
p550
sg17
F-2.04
sg18
S'yes'
p551
sg20
S'Fe'
p552
sg22
S'None'
p553
sg24
I700
sg25
S'O2'
p554
sg27
Nsg28
S'heterogeneous'
p555
sg30
F0.0
sba(iexpclass
expclass
p556
(dp557
g6
g7
sg8
S'ferrisilicate'
p558
sg10
S'gas'
p559
sg12
F0.003019951720402016
sg13
S'Wang'
p560
sg15
S'10.1039/c39940002209'
p561
sg17
F-2.52
sg18
S'yes'
p562
sg20
S'Fe'
p563
sg22
S'None'
p564
sg24
I700
sg25
S'O2'
p565
sg27
Nsg28
S'heterogeneous'
p566
sg30
F0.0
sba(iexpclass
expclass
p567
(dp568
g6
g7
sg8
S'ferrisilicate'
p569
sg10
S'gas'
p570
sg12
F0.01513561248436208
sg13
S'Wang'
p571
sg15
S'10.1039/c39940002209'
p572
sg17
F-1.82
sg18
S'yes'
p573
sg20
S'Fe'
p574
sg22
S'None'
p575
sg24
I700
sg25
S'O2'
p576
sg27
Nsg28
S'heterogeneous'
p577
sg30
F0.0
sba(iexpclass
expclass
p578
(dp579
g6
g7
sg8
S'FAPO-5'
p580
sg10
S'gas'
p581
sg12
F0.007943282347242814
sg13
S'Wang'
p582
sg15
S'10.1039/c39940002209'
p583
sg17
F-2.1
sg18
S'yes'
p584
sg20
S'Fe'
p585
sg22
S'None'
p586
sg24
I700
sg25
S'O2'
p587
sg27
Nsg28
S'heterogeneous'
p588
sg30
F0.0
sba(iexpclass
expclass
p589
(dp590
g6
g7
sg8
S'FAPO-5'
p591
sg10
S'gas'
p592
sg12
F0.014791083881682071
sg13
S'Wang'
p593
sg15
S'10.1039/c39940002209'
p594
sg17
F-1.83
sg18
S'yes'
p595
sg20
S'Fe'
p596
sg22
S'None'
p597
sg24
I700
sg25
S'O2'
p598
sg27
Nsg28
S'heterogeneous'
p599
sg30
F1.9
sba(iexpclass
expclass
p600
(dp601
g6
S'Phosphate'
p602
sg8
S'phosphate'
p603
sg10
S'gas'
p604
sg12
F0.0007943282347242813
sg13
S'Wang'
p605
sg15
S'10.1039/c39940002209'
p606
sg17
F-3.1
sg18
S'no'
p607
sg20
S'Fe'
p608
sg22
S'None'
p609
sg24
I700
sg25
S'O2'
p610
sg27
Nsg28
S'heterogeneous'
p611
sg30
F1.6
sba(iexpclass
expclass
p612
(dp613
g6
S'Phosphate'
p614
sg8
S'phosphate'
p615
sg10
S'gas'
p616
sg12
F0.0019054607179632462
sg13
S'Wang'
p617
sg15
S'10.1039/c39940002209'
p618
sg17
F-2.72
sg18
S'no'
p619
sg20
S'Fe'
p620
sg22
S'None'
p621
sg24
I700
sg25
S'O2'
p622
sg27
Nsg28
S'heterogeneous'
p623
sg30
F20.3
sba(iexpclass
expclass
p624
(dp625
g6
S'Phosphate'
p626
sg8
S'phosphate'
p627
sg10
S'gas'
p628
sg12
F0.005128613839913648
sg13
S'Wang'
p629
sg15
S'10.1039/c39940002209'
p630
sg17
F-2.29
sg18
S'no'
p631
sg20
S'Fe'
p632
sg22
S'None'
p633
sg24
I700
sg25
S'O2'
p634
sg27
Nsg28
S'heterogeneous'
p635
sg30
F25.7
sba(iexpclass
expclass
p636
(dp637
g6
S'Phosphate'
p638
sg8
S'FePO4/MCM-41/PO4'
p639
sg10
S'gas'
p640
sg12
F0.0005011872336272725
sg13
S'Wang'
p641
sg15
S'10.1016/S0021-9517(03)00077-0'
p642
sg17
F-3.3
sg18
S'yes'
p643
sg20
S'Fe'
p644
sg22
S'None'
p645
sg24
I673
sg25
S'N2O'
p646
sg27
Nsg28
S'heterogeneous'
p647
sg30
F0.0
sba(iexpclass
expclass
p648
(dp649
g6
S'Phosphate'
p650
sg8
S'FePO4/MCM-41/PO5'
p651
sg10
S'gas'
p652
sg12
F0.0010964781961431851
sg13
S'Wang'
p653
sg15
S'10.1016/S0021-9517(03)00077-0'
p654
sg17
F-2.96
sg18
S'yes'
p655
sg20
S'Fe'
p656
sg22
S'None'
p657
sg24
I723
sg25
S'N2O'
p658
sg27
Nsg28
S'heterogeneous'
p659
sg30
F0.0
sba(iexpclass
expclass
p660
(dp661
g6
S'Phosphate'
p662
sg8
S'FePO4/MCM-41/PO6'
p663
sg10
S'gas'
p664
sg12
F0.003019951720402016
sg13
S'Wang'
p665
sg15
S'10.1016/S0021-9517(03)00077-0'
p666
sg17
F-2.52
sg18
S'yes'
p667
sg20
S'Fe'
p668
sg22
S'None'
p669
sg24
I673
sg25
S'N2O'
p670
sg27
Nsg28
S'heterogeneous'
p671
sg30
F15.0
sba(iexpclass
expclass
p672
(dp673
g6
S'Phosphate'
p674
sg8
S'FePO4/MCM-41/PO7'
p675
sg10
S'gas'
p676
sg12
F0.01148153621496883
sg13
S'Wang'
p677
sg15
S'10.1016/S0021-9517(03)00077-0'
p678
sg17
F-1.94
sg18
S'yes'
p679
sg20
S'Fe'
p680
sg22
S'None'
p681
sg24
I723
sg25
S'N2O'
p682
sg27
Nsg28
S'heterogeneous'
p683
sg30
F15.1
sba(iexpclass
expclass
p684
(dp685
g6
S'Phosphate'
p686
sg8
S'FePO4/MCM-41/PO8'
p687
sg10
S'gas'
p688
sg12
F0.008317637711026709
sg13
S'Wang'
p689
sg15
S'10.1016/S0021-9517(03)00077-0'
p690
sg17
F-2.08
sg18
S'yes'
p691
sg20
S'Fe'
p692
sg22
S'None'
p693
sg24
I673
sg25
S'N2O'
p694
sg27
Nsg28
S'heterogeneous'
p695
sg30
F23.6
sba(iexpclass
expclass
p696
(dp697
g6
S'Phosphate'
p698
sg8
S'FePO4/MCM-41/PO9'
p699
sg10
S'gas'
p700
sg12
F0.023988329190194897
sg13
S'Wang'
p701
sg15
S'10.1016/S0021-9517(03)00077-0'
p702
sg17
F-1.62
sg18
S'yes'
p703
sg20
S'Fe'
p704
sg22
S'None'
p705
sg24
I723
sg25
S'N2O'
p706
sg27
Nsg28
S'heterogeneous'
p707
sg30
F20.5
sba(iexpclass
expclass
p708
(dp709
g6
S'Phosphate'
p710
sg8
S'FePO4/MCM-41/PO10'
p711
sg10
S'gas'
p712
sg12
F0.009772372209558112
sg13
S'Wang'
p713
sg15
S'10.1016/S0021-9517(03)00077-0'
p714
sg17
F-2.01
sg18
S'yes'
p715
sg20
S'Fe'
p716
sg22
S'None'
p717
sg24
I673
sg25
S'N2O'
p718
sg27
Nsg28
S'heterogeneous'
p719
sg30
F23.7
sba(iexpclass
expclass
p720
(dp721
g6
S'Phosphate'
p722
sg8
S'FePO4/MCM-41/PO11'
p723
sg10
S'gas'
p724
sg12
F0.03019951720402016
sg13
S'Wang'
p725
sg15
S'10.1016/S0021-9517(03)00077-0'
p726
sg17
F-1.52
sg18
S'yes'
p727
sg20
S'Fe'
p728
sg22
S'None'
p729
sg24
I723
sg25
S'N2O'
p730
sg27
Nsg28
S'heterogeneous'
p731
sg30
F17.3
sba(iexpclass
expclass
p732
(dp733
g6
S'Phosphate'
p734
sg8
S'FePO4/MCM-41/PO12'
p735
sg10
S'gas'
p736
sg12
F0.008709635899560805
sg13
S'Wang'
p737
sg15
S'10.1016/S0021-9517(03)00077-0'
p738
sg17
F-2.06
sg18
S'yes'
p739
sg20
S'Fe'
p740
sg22
S'None'
p741
sg24
I673
sg25
S'N2O'
p742
sg27
Nsg28
S'heterogeneous'
p743
sg30
F20.2
sba(iexpclass
expclass
p744
(dp745
g6
S'Phosphate'
p746
sg8
S'FePO4/MCM-41/PO13'
p747
sg10
S'gas'
p748
sg12
F0.033884415613920256
sg13
S'Wang'
p749
sg15
S'10.1016/S0021-9517(03)00077-0'
p750
sg17
F-1.47
sg18
S'yes'
p751
sg20
S'Fe'
p752
sg22
S'None'
p753
sg24
I723
sg25
S'N2O'
p754
sg27
Nsg28
S'heterogeneous'
p755
sg30
F15.8
sba(iexpclass
expclass
p756
(dp757
g6
S'Phosphate'
p758
sg8
S'FePO4/MCM-41/PO14'
p759
sg10
S'gas'
p760
sg12
F0.008709635899560805
sg13
S'Wang'
p761
sg15
S'10.1016/S0021-9517(03)00077-0'
p762
sg17
F-2.06
sg18
S'yes'
p763
sg20
S'Fe'
p764
sg22
S'None'
p765
sg24
I673
sg25
S'N2O'
p766
sg27
Nsg28
S'heterogeneous'
p767
sg30
F35.3
sba(iexpclass
expclass
p768
(dp769
g6
S'Phosphate'
p770
sg8
S'FePO4/MCM-41/PO15'
p771
sg10
S'gas'
p772
sg12
F0.0199526231496888
sg13
S'Wang'
p773
sg15
S'10.1016/S0021-9517(03)00077-0'
p774
sg17
F-1.7
sg18
S'yes'
p775
sg20
S'Fe'
p776
sg22
S'None'
p777
sg24
I723
sg25
S'N2O'
p778
sg27
Nsg28
S'heterogeneous'
p779
sg30
F32.9
sba(iexpclass
expclass
p780
(dp781
g6
S'Oxide'
p782
sg8
S'V2O5/silicate'
p783
sg10
S'gas'
p784
sg12
F0.0005011872336272725
sg13
S'Chen'
p785
sg15
S'10.1021/ie00016a002'
p786
sg17
F-3.3
sg18
S'no'
p787
sg20
S'V'
p788
sg22
S'None'
p789
sg24
I713
sg25
S'N2O'
p790
sg27
Nsg28
S'heterogeneous'
p791
sg30
F13.3
sba(iexpclass
expclass
p792
(dp793
g6
S'Oxide'
p794
sg8
S'V2O5/silicate'
p795
sg10
S'gas'
p796
sg12
F0.0012882495516931337
sg13
S'Chen'
p797
sg15
S'10.1021/ie00016a002'
p798
sg17
F-2.89
sg18
S'no'
p799
sg20
g788
sg22
S'None'
p800
sg24
I733
sg25
S'N2O'
p801
sg27
Nsg28
S'heterogeneous'
p802
sg30
F27.7
sba(iexpclass
expclass
p803
(dp804
g6
S'Oxide'
p805
sg8
S'V2O5/silicate'
p806
sg10
S'gas'
p807
sg12
F0.01148153621496883
sg13
S'Chen'
p808
sg15
S'10.1021/ie00016a002'
p809
sg17
F-1.94
sg18
S'no'
p810
sg20
g788
sg22
S'None'
p811
sg24
I763
sg25
S'N2O'
p812
sg27
Nsg28
S'heterogeneous'
p813
sg30
F10.1
sba(iexpclass
expclass
p814
(dp815
g6
S'Oxide'
p816
sg8
S'V2O5/silicate'
p817
sg10
S'gas'
p818
sg12
F0.000707945784384138
sg13
S'Chen'
p819
sg15
S'10.1021/ie00016a002'
p820
sg17
F-3.15
sg18
S'no'
p821
sg20
g788
sg22
S'None'
p822
sg24
I713
sg25
S'N2O'
p823
sg27
Nsg28
S'heterogeneous'
p824
sg30
F56.7
sba(iexpclass
expclass
p825
(dp826
g6
S'Oxide'
p827
sg8
S'V2O5/silicate'
p828
sg10
S'gas'
p829
sg12
F0.0028840315031266055
sg13
S'Chen'
p830
sg15
S'10.1021/ie00016a002'
p831
sg17
F-2.54
sg18
S'no'
p832
sg20
g788
sg22
S'None'
p833
sg24
I733
sg25
S'N2O'
p834
sg27
Nsg28
S'heterogeneous'
p835
sg30
F31.3
sba(iexpclass
expclass
p836
(dp837
g6
S'Oxide'
p838
sg8
S'V2O5/silicate'
p839
sg10
S'gas'
p840
sg12
F0.016982436524617443
sg13
S'Chen'
p841
sg15
S'10.1021/ie00016a002'
p842
sg17
F-1.77
sg18
S'no'
p843
sg20
g788
sg22
S'None'
p844
sg24
I763
sg25
S'N2O'
p845
sg27
Nsg28
S'heterogeneous'
p846
sg30
F10.2
sba(iexpclass
expclass
p847
(dp848
g6
S'Oxide'
p849
sg8
S'V2O5/silicate'
p850
sg10
S'gas'
p851
sg12
F0.002818382931264455
sg13
S'Chen'
p852
sg15
S'10.1021/ie00016a002'
p853
sg17
F-2.55
sg18
S'no'
p854
sg20
g788
sg22
S'None'
p855
sg24
I713
sg25
S'N2O'
p856
sg27
Nsg28
S'heterogeneous'
p857
sg30
F18.4
sba(iexpclass
expclass
p858
(dp859
g6
S'Oxide'
p860
sg8
S'V2O5/silicate'
p861
sg10
S'gas'
p862
sg12
F0.009120108393559097
sg13
S'Chen'
p863
sg15
S'10.1021/ie00016a002'
p864
sg17
F-2.04
sg18
S'no'
p865
sg20
g788
sg22
S'None'
p866
sg24
I733
sg25
S'N2O'
p867
sg27
Nsg28
S'heterogeneous'
p868
sg30
F8.7
sba(iexpclass
expclass
p869
(dp870
g6
S'Oxide'
p871
sg8
S'V2O5/silicate'
p872
sg10
S'gas'
p873
sg12
F0.046773514128719815
sg13
S'Chen'
p874
sg15
S'10.1021/ie00016a002'
p875
sg17
F-1.33
sg18
S'no'
p876
sg20
g788
sg22
S'None'
p877
sg24
I763
sg25
S'N2O'
p878
sg27
Nsg28
S'heterogeneous'
p879
sg30
F2.7
sba(iexpclass
expclass
p880
(dp881
g6
S'Oxide'
p882
sg8
S'V2O5/silicate'
p883
sg10
S'gas'
p884
sg12
F0.004897788193684461
sg13
S'Chen'
p885
sg15
S'10.1021/ie00016a002'
p886
sg17
F-2.31
sg18
S'no'
p887
sg20
g788
sg22
S'None'
p888
sg24
I713
sg25
S'N2O'
p889
sg27
Nsg28
S'heterogeneous'
p890
sg30
F6.8
sba(iexpclass
expclass
p891
(dp892
g6
S'Oxide'
p893
sg8
S'V2O5/silicate'
p894
sg10
S'gas'
p895
sg12
F0.01778279410038923
sg13
S'Chen'
p896
sg15
S'10.1021/ie00016a002'
p897
sg17
F-1.75
sg18
S'no'
p898
sg20
g788
sg22
S'None'
p899
sg24
I733
sg25
S'N2O'
p900
sg27
Nsg28
S'heterogeneous'
p901
sg30
F3.1
sba(iexpclass
expclass
p902
(dp903
g6
S'Oxide'
p904
sg8
S'V2O5/silicate'
p905
sg10
S'gas'
p906
sg12
F0.08709635899560805
sg13
S'Chen'
p907
sg15
S'10.1021/ie00016a002'
p908
sg17
F-1.06
sg18
S'no'
p909
sg20
g788
sg22
S'None'
p910
sg24
I763
sg25
S'N2O'
p911
sg27
Nsg28
S'heterogeneous'
p912
sg30
F0.2
sba(iexpclass
expclass
p913
(dp914
g6
S'ZSM-5'
p915
sg8
S'ZSM-5'
p916
sg10
S'gas'
p917
sg12
F0.11220184543019636
sg13
S'Michalkiewicz'
p918
sg15
S'10.1016/j.apcata.2004.09.005'
p919
sg17
F-0.95
sg18
S'yes'
p920
sg20
S'Fe'
p921
sg22
S'None'
p922
sg24
I903
sg25
S'O2'
p923
sg27
Nsg28
S'heterogeneous'
p924
sg30
F16.51
sba(iexpclass
expclass
p925
(dp926
g6
S'ZSM-5'
p927
sg8
S'ZSM-5'
p928
sg10
S'gas'
p929
sg12
F0.19054607179632474
sg13
S'Michalkiewicz'
p930
sg15
S'10.1016/j.apcata.2004.09.005'
p931
sg17
F-0.72
sg18
S'yes'
p932
sg20
S'Fe'
p933
sg22
S'None'
p934
sg24
I903
sg25
S'O2'
p935
sg27
Nsg28
S'heterogeneous'
p936
sg30
F14.17
sba(iexpclass
expclass
p937
(dp938
g6
S'ZSM-5'
p939
sg8
S'ZSM-5'
p940
sg10
S'gas'
p941
sg12
F0.31622776601683794
sg13
S'Michalkiewicz'
p942
sg15
S'10.1016/j.apcata.2004.09.005'
p943
sg17
F-0.5
sg18
S'yes'
p944
sg20
S'Fe'
p945
sg22
S'None'
p946
sg24
I903
sg25
S'O2'
p947
sg27
Nsg28
S'heterogeneous'
p948
sg30
F10.79
sba(iexpclass
expclass
p949
(dp950
g6
S'ZSM-5'
p951
sg8
S'ZSM-5'
p952
sg10
S'gas'
p953
sg12
F0.0006025595860743575
sg13
S'Michalkiewicz'
p954
sg15
S'10.1016/j.apcata.2004.09.005'
p955
sg17
F-3.22
sg18
S'yes'
p956
sg20
S'Fe'
p957
sg22
S'None'
p958
sg24
I623
sg25
S'O2'
p959
sg27
Nsg28
S'heterogeneous'
p960
sg30
F74.37
sba(iexpclass
expclass
p961
(dp962
g6
S'ZSM-5'
p963
sg8
S'ZSM-5'
p964
sg10
S'gas'
p965
sg12
F0.000707945784384138
sg13
S'Michalkiewicz'
p966
sg15
S'10.1016/j.apcata.2004.09.005'
p967
sg17
F-3.15
sg18
S'yes'
p968
sg20
S'Fe'
p969
sg22
S'None'
p970
sg24
I623
sg25
S'O2'
p971
sg27
Nsg28
S'heterogeneous'
p972
sg30
F69.13
sba(iexpclass
expclass
p973
(dp974
g6
S'ZSM-5'
p975
sg8
S'ZSM-5'
p976
sg10
S'gas'
p977
sg12
F0.001
sg13
S'Michalkiewicz'
p978
sg15
S'10.1016/j.apcata.2004.09.005'
p979
sg17
F-3.0
sg18
S'yes'
p980
sg20
S'Fe'
p981
sg22
S'None'
p982
sg24
I623
sg25
S'O2'
p983
sg27
Nsg28
S'heterogeneous'
p984
sg30
F63.47
sba(iexpclass
expclass
p985
(dp986
g6
S'Phosphate'
p987
sg8
S'pyrophosphate'
p988
sg10
S'gas'
p989
sg12
F0.030902954325135904
sg13
S'Polniser'
p990
sg15
S'10.1016/j.apcata.2011.04.022'
p991
sg17
F-1.51
sg18
S'no'
p992
sg20
S'Cu-Fe'
p993
sg22
S'None'
p994
sg24
I903
sg25
S'N2O'
p995
sg27
Nsg28
S'heterogeneous'
p996
sg30
F2.1
sba(iexpclass
expclass
p997
(dp998
g6
S'Phosphate'
p999
sg8
S'pyrophosphate'
p1000
sg10
S'gas'
p1001
sg12
F0.043651583224016584
sg13
S'Polniser'
p1002
sg15
S'10.1016/j.apcata.2011.04.022'
p1003
sg17
F-1.36
sg18
S'no'
p1004
sg20
S'Cu-Fe'
p1005
sg22
S'None'
p1006
sg24
I903
sg25
S'N2O'
p1007
sg27
Nsg28
S'heterogeneous'
p1008
sg30
F1.9
sba(iexpclass
expclass
p1009
(dp1010
g6
S'Phosphate'
p1011
sg8
S'pyrophosphate'
p1012
sg10
S'gas'
p1013
sg12
F0.0446683592150963
sg13
S'Polniser'
p1014
sg15
S'10.1016/j.apcata.2011.04.022'
p1015
sg17
F-1.35
sg18
S'no'
p1016
sg20
S'Cu-Fe'
p1017
sg22
S'None'
p1018
sg24
I903
sg25
S'N2O'
p1019
sg27
Nsg28
S'heterogeneous'
p1020
sg30
F2.5
sba(iexpclass
expclass
p1021
(dp1022
g6
S'Phosphate'
p1023
sg8
S'pyrophosphate'
p1024
sg10
S'gas'
p1025
sg12
F0.06456542290346556
sg13
S'Polniser'
p1026
sg15
S'10.1016/j.apcata.2011.04.022'
p1027
sg17
F-1.19
sg18
S'no'
p1028
sg20
S'Cu-Fe'
p1029
sg22
S'None'
p1030
sg24
I903
sg25
S'N2O'
p1031
sg27
Nsg28
S'heterogeneous'
p1032
sg30
F1.8
sba(iexpclass
expclass
p1033
(dp1034
g6
S'Phosphate'
p1035
sg8
S'pyrophosphate'
p1036
sg10
S'gas'
p1037
sg12
F0.06918309709189366
sg13
S'Polniser'
p1038
sg15
S'10.1016/j.apcata.2011.04.022'
p1039
sg17
F-1.16
sg18
S'no'
p1040
sg20
S'Cu-Fe'
p1041
sg22
S'None'
p1042
sg24
I903
sg25
S'N2O'
p1043
sg27
Nsg28
S'heterogeneous'
p1044
sg30
F1.2
sba(iexpclass
expclass
p1045
(dp1046
g6
S'Phosphate'
p1047
sg8
S'pyrophosphate'
p1048
sg10
S'gas'
p1049
sg12
F0.0446683592150963
sg13
S'Polniser'
p1050
sg15
S'10.1016/j.apcata.2011.04.022'
p1051
sg17
F-1.35
sg18
S'no'
p1052
sg20
S'Cu-Fe'
p1053
sg22
S'None'
p1054
sg24
I903
sg25
S'N2O'
p1055
sg27
Nsg28
S'heterogeneous'
p1056
sg30
F1.9
sba(iexpclass
expclass
p1057
(dp1058
g6
S'Phosphate'
p1059
sg8
S'pyrophosphate'
p1060
sg10
S'gas'
p1061
sg12
F0.047863009232263824
sg13
S'Polniser'
p1062
sg15
S'10.1016/j.apcata.2011.04.022'
p1063
sg17
F-1.32
sg18
S'no'
p1064
sg20
S'Cu-Fe'
p1065
sg22
S'None'
p1066
sg24
I903
sg25
S'N2O'
p1067
sg27
Nsg28
S'heterogeneous'
p1068
sg30
F2.6
sba(iexpclass
expclass
p1069
(dp1070
g6
S'Phosphate'
p1071
sg8
S'pyrophosphate'
p1072
sg10
S'gas'
p1073
sg12
F0.05128613839913648
sg13
S'Polniser'
p1074
sg15
S'10.1016/j.apcata.2011.04.022'
p1075
sg17
F-1.29
sg18
S'no'
p1076
sg20
S'Cu-Fe'
p1077
sg22
S'None'
p1078
sg24
I903
sg25
S'N2O'
p1079
sg27
Nsg28
S'heterogeneous'
p1080
sg30
F2.5
sba(iexpclass
expclass
p1081
(dp1082
g6
S'Phosphate'
p1083
sg8
S'pyrophosphate'
p1084
sg10
S'gas'
p1085
sg12
F0.05370317963702527
sg13
S'Polniser'
p1086
sg15
S'10.1016/j.apcata.2011.04.022'
p1087
sg17
F-1.27
sg18
S'no'
p1088
sg20
S'Cu-Fe'
p1089
sg22
S'None'
p1090
sg24
I903
sg25
S'N2O'
p1091
sg27
Nsg28
S'heterogeneous'
p1092
sg30
F2.3
sba(iexpclass
expclass
p1093
(dp1094
g6
S'Phosphate'
p1095
sg8
S'pyrophosphate'
p1096
sg10
S'gas'
p1097
sg12
F0.01513561248436208
sg13
S'Polniser'
p1098
sg15
S'10.1016/j.apcata.2011.04.022'
p1099
sg17
F-1.82
sg18
S'no'
p1100
sg20
S'Cu-Fe'
p1101
sg22
S'None'
p1102
sg24
I903
sg25
S'N2O'
p1103
sg27
Nsg28
S'heterogeneous'
p1104
sg30
F9.1
sba(iexpclass
expclass
p1105
(dp1106
g6
S'Phosphate'
p1107
sg8
S'pyrophosphate'
p1108
sg10
S'gas'
p1109
sg12
F0.012882495516931342
sg13
S'Polniser'
p1110
sg15
S'10.1016/j.apcata.2011.04.022'
p1111
sg17
F-1.89
sg18
S'no'
p1112
sg20
S'Cu-Fe'
p1113
sg22
S'None'
p1114
sg24
I903
sg25
S'N2O'
p1115
sg27
Nsg28
S'heterogeneous'
p1116
sg30
F10.1
sba(iexpclass
expclass
p1117
(dp1118
g6
S'Oxide'
p1119
sg8
S'MoO3'
p1120
sg10
S'gas'
p1121
sg12
F0.003019951720402016
sg13
S'Taylor'
p1122
sg15
S'10.1016/S0920-5861(98)00095-9'
p1123
sg17
F-2.52
sg18
S'no'
p1124
sg20
S'Mo'
p1125
sg22
S'None'
p1126
sg24
I723
sg25
S'O2'
p1127
sg27
Nsg28
S'heterogeneous'
p1128
sg30
F11.0
sba(iexpclass
expclass
p1129
(dp1130
g6
S'Oxide'
p1131
sg8
S'MoO3'
p1132
sg10
S'gas'
p1133
sg12
F0.012022644346174132
sg13
S'Taylor'
p1134
sg15
S'10.1016/S0920-5861(98)00095-9'
p1135
sg17
F-1.92
sg18
S'no'
p1136
sg20
S'Mo'
p1137
sg22
S'None'
p1138
sg24
I773
sg25
S'O2'
p1139
sg27
Nsg28
S'heterogeneous'
p1140
sg30
F0.0
sba(iexpclass
expclass
p1141
(dp1142
g6
S'Oxide'
p1143
sg8
S'MoO3'
p1144
sg10
S'gas'
p1145
sg12
F0.006025595860743574
sg13
S'Taylor'
p1146
sg15
S'10.1016/S0920-5861(98)00095-9'
p1147
sg17
F-2.22
sg18
S'no'
p1148
sg20
S'Cu'
p1149
sg22
S'None'
p1150
sg24
I723
sg25
S'O2'
p1151
sg27
Nsg28
S'heterogeneous'
p1152
sg30
F19.0
sba(iexpclass
expclass
p1153
(dp1154
g6
S'Oxide'
p1155
sg8
S'MoO3'
p1156
sg10
S'gas'
p1157
sg12
F0.04168693834703355
sg13
S'Taylor'
p1158
sg15
S'10.1016/S0920-5861(98)00095-9'
p1159
sg17
F-1.38
sg18
S'no'
p1160
sg20
S'Cu'
p1161
sg22
S'None'
p1162
sg24
I773
sg25
S'O2'
p1163
sg27
Nsg28
S'heterogeneous'
p1164
sg30
F0.0
sba(iexpclass
expclass
p1165
(dp1166
g6
S'Oxide'
p1167
sg8
S'MoO3'
p1168
sg10
S'gas'
p1169
sg12
F0.005011872336272725
sg13
S'Taylor'
p1170
sg15
S'10.1016/S0920-5861(98)00095-9'
p1171
sg17
F-2.3
sg18
S'no'
p1172
sg20
S'Co'
p1173
sg22
S'None'
p1174
sg24
I723
sg25
S'O2'
p1175
sg27
Nsg28
S'heterogeneous'
p1176
sg30
F14.0
sba(iexpclass
expclass
p1177
(dp1178
g6
S'Oxide'
p1179
sg8
S'MoO3'
p1180
sg10
S'gas'
p1181
sg12
F0.028840315031266057
sg13
S'Taylor'
p1182
sg15
S'10.1016/S0920-5861(98)00095-9'
p1183
sg17
F-1.54
sg18
S'no'
p1184
sg20
S'Co'
p1185
sg22
S'None'
p1186
sg24
I773
sg25
S'O2'
p1187
sg27
Nsg28
S'heterogeneous'
p1188
sg30
F0.0
sba(iexpclass
expclass
p1189
(dp1190
g6
S'Oxide'
p1191
sg8
S'MoO3'
p1192
sg10
S'gas'
p1193
sg12
F0.005011872336272725
sg13
S'Taylor'
p1194
sg15
S'10.1016/S0920-5861(98)00095-9'
p1195
sg17
F-2.3
sg18
S'no'
p1196
sg20
S'Fe'
p1197
sg22
S'None'
p1198
sg24
I723
sg25
S'O2'
p1199
sg27
Nsg28
S'heterogeneous'
p1200
sg30
F14.0
sba(iexpclass
expclass
p1201
(dp1202
g6
S'Oxide'
p1203
sg8
S'MoO3'
p1204
sg10
S'gas'
p1205
sg12
F0.03890451449942807
sg13
S'Taylor'
p1206
sg15
S'10.1016/S0920-5861(98)00095-9'
p1207
sg17
F-1.41
sg18
S'no'
p1208
sg20
S'Fe'
p1209
sg22
S'None'
p1210
sg24
I773
sg25
S'O2'
p1211
sg27
Nsg28
S'heterogeneous'
p1212
sg30
F0.0
sba(iexpclass
expclass
p1213
(dp1214
g6
S'Oxide'
p1215
sg8
S'MoO3'
p1216
sg10
S'gas'
p1217
sg12
F0.006025595860743574
sg13
S'Taylor'
p1218
sg15
S'10.1016/S0920-5861(98)00095-9'
p1219
sg17
F-2.22
sg18
S'no'
p1220
sg20
g788
sg22
S'None'
p1221
sg24
I723
sg25
S'O2'
p1222
sg27
Nsg28
S'heterogeneous'
p1223
sg30
F0.0
sba(iexpclass
expclass
p1224
(dp1225
g6
S'Oxide'
p1226
sg8
S'MoO3'
p1227
sg10
S'gas'
p1228
sg12
F0.006025595860743574
sg13
S'Taylor'
p1229
sg15
S'10.1016/S0920-5861(98)00095-9'
p1230
sg17
F-2.22
sg18
S'no'
p1231
sg20
g788
sg22
S'None'
p1232
sg24
I773
sg25
S'O2'
p1233
sg27
Nsg28
S'heterogeneous'
p1234
sg30
F0.0
sba(iexpclass
expclass
p1235
(dp1236
g6
S'Oxide'
p1237
sg8
S'MoO3'
p1238
sg10
S'gas'
p1239
sg12
F0.012882495516931342
sg13
S'Taylor'
p1240
sg15
S'10.1016/S0920-5861(98)00095-9'
p1241
sg17
F-1.89
sg18
S'no'
p1242
sg20
S'Ga'
p1243
sg22
S'None'
p1244
sg24
I723
sg25
S'O2'
p1245
sg27
Nsg28
S'heterogeneous'
p1246
sg30
F10.0
sba(iexpclass
expclass
p1247
(dp1248
g6
S'Oxide'
p1249
sg8
S'MoO3'
p1250
sg10
S'gas'
p1251
sg12
F0.03235936569296283
sg13
S'Taylor'
p1252
sg15
S'10.1016/S0920-5861(98)00095-9'
p1253
sg17
F-1.49
sg18
S'no'
p1254
sg20
S'Ga'
p1255
sg22
S'None'
p1256
sg24
I773
sg25
S'O2'
p1257
sg27
Nsg28
S'heterogeneous'
p1258
sg30
F0.0
sba(iexpclass
expclass
p1259
(dp1260
g6
S'Oxide'
p1261
sg8
S'WO3'
p1262
sg10
S'gas'
p1263
sg12
F0.005011872336272725
sg13
S'Taylor'
p1264
sg15
S'10.1016/S0920-5861(98)00095-9'
p1265
sg17
F-2.3
sg18
S'no'
p1266
sg20
S'W'
p1267
sg22
S'None'
p1268
sg24
I723
sg25
S'O2'
p1269
sg27
Nsg28
S'heterogeneous'
p1270
sg30
F6.0
sba(iexpclass
expclass
p1271
(dp1272
g6
S'Oxide'
p1273
sg8
S'WO3'
p1274
sg10
S'gas'
p1275
sg12
F0.003981071705534973
sg13
S'Taylor'
p1276
sg15
S'10.1016/S0920-5861(98)00095-9'
p1277
sg17
F-2.4
sg18
S'no'
p1278
sg20
g1267
sg22
S'None'
p1279
sg24
I773
sg25
S'O2'
p1280
sg27
Nsg28
S'heterogeneous'
p1281
sg30
F0.0
sba(iexpclass
expclass
p1282
(dp1283
g6
S'Oxide'
p1284
sg8
S'WO3'
p1285
sg10
S'gas'
p1286
sg12
F0.003019951720402016
sg13
S'Taylor'
p1287
sg15
S'10.1016/S0920-5861(98)00095-9'
p1288
sg17
F-2.52
sg18
S'no'
p1289
sg20
S'Cu'
p1290
sg22
S'None'
p1291
sg24
I723
sg25
S'O2'
p1292
sg27
Nsg28
S'heterogeneous'
p1293
sg30
F0.0
sba(iexpclass
expclass
p1294
(dp1295
g6
S'Oxide'
p1296
sg8
S'WO3'
p1297
sg10
S'gas'
p1298
sg12
F0.003981071705534973
sg13
S'Taylor'
p1299
sg15
S'10.1016/S0920-5861(98)00095-9'
p1300
sg17
F-2.4
sg18
S'no'
p1301
sg20
S'Cu'
p1302
sg22
S'None'
p1303
sg24
I773
sg25
S'O2'
p1304
sg27
Nsg28
S'heterogeneous'
p1305
sg30
F0.0
sba(iexpclass
expclass
p1306
(dp1307
g6
S'Oxide'
p1308
sg8
S'WO3'
p1309
sg10
S'gas'
p1310
sg12
F0.012022644346174132
sg13
S'Taylor'
p1311
sg15
S'10.1016/S0920-5861(98)00095-9'
p1312
sg17
F-1.92
sg18
S'no'
p1313
sg20
S'Co'
p1314
sg22
S'None'
p1315
sg24
I723
sg25
S'O2'
p1316
sg27
Nsg28
S'heterogeneous'
p1317
sg30
F0.0
sba(iexpclass
expclass
p1318
(dp1319
g6
S'Oxide'
p1320
sg8
S'WO3'
p1321
sg10
S'gas'
p1322
sg12
F0.003981071705534973
sg13
S'Taylor'
p1323
sg15
S'10.1016/S0920-5861(98)00095-9'
p1324
sg17
F-2.4
sg18
S'no'
p1325
sg20
S'Co'
p1326
sg22
S'None'
p1327
sg24
I773
sg25
S'O2'
p1328
sg27
Nsg28
S'heterogeneous'
p1329
sg30
F0.0
sba(iexpclass
expclass
p1330
(dp1331
g6
S'Oxide'
p1332
sg8
S'WO3'
p1333
sg10
S'gas'
p1334
sg12
F0.001995262314968879
sg13
S'Taylor'
p1335
sg15
S'10.1016/S0920-5861(98)00095-9'
p1336
sg17
F-2.7
sg18
S'no'
p1337
sg20
S'Fe'
p1338
sg22
S'None'
p1339
sg24
I723
sg25
S'O2'
p1340
sg27
Nsg28
S'heterogeneous'
p1341
sg30
F0.0
sba(iexpclass
expclass
p1342
(dp1343
g6
S'Oxide'
p1344
sg8
S'WO3'
p1345
sg10
S'gas'
p1346
sg12
F0.006025595860743574
sg13
S'Taylor'
p1347
sg15
S'10.1016/S0920-5861(98)00095-9'
p1348
sg17
F-2.22
sg18
S'no'
p1349
sg20
S'Fe'
p1350
sg22
S'None'
p1351
sg24
I773
sg25
S'O2'
p1352
sg27
Nsg28
S'heterogeneous'
p1353
sg30
F0.0
sba(iexpclass
expclass
p1354
(dp1355
g6
S'Oxide'
p1356
sg8
S'WO3'
p1357
sg10
S'gas'
p1358
sg12
F0.007943282347242814
sg13
S'Taylor'
p1359
sg15
S'10.1016/S0920-5861(98)00095-9'
p1360
sg17
F-2.1
sg18
S'no'
p1361
sg20
g788
sg22
S'None'
p1362
sg24
I723
sg25
S'O2'
p1363
sg27
Nsg28
S'heterogeneous'
p1364
sg30
F16.0
sba(iexpclass
expclass
p1365
(dp1366
g6
S'Oxide'
p1367
sg8
S'WO3'
p1368
sg10
S'gas'
p1369
sg12
F0.012022644346174132
sg13
S'Taylor'
p1370
sg15
S'10.1016/S0920-5861(98)00095-9'
p1371
sg17
F-1.92
sg18
S'no'
p1372
sg20
g788
sg22
S'None'
p1373
sg24
I773
sg25
S'O2'
p1374
sg27
Nsg28
S'heterogeneous'
p1375
sg30
F0.0
sba(iexpclass
expclass
p1376
(dp1377
g6
S'Oxide'
p1378
sg8
S'WO3'
p1379
sg10
S'gas'
p1380
sg12
F0.003981071705534973
sg13
S'Taylor'
p1381
sg15
S'10.1016/S0920-5861(98)00095-9'
p1382
sg17
F-2.4
sg18
S'no'
p1383
sg20
S'Ga'
p1384
sg22
S'None'
p1385
sg24
I723
sg25
S'O2'
p1386
sg27
Nsg28
S'heterogeneous'
p1387
sg30
F11.0
sba(iexpclass
expclass
p1388
(dp1389
g6
S'Oxide'
p1390
sg8
S'WO3'
p1391
sg10
S'gas'
p1392
sg12
F0.018197008586099836
sg13
S'Taylor'
p1393
sg15
S'10.1016/S0920-5861(98)00095-9'
p1394
sg17
F-1.74
sg18
S'no'
p1395
sg20
S'Ga'
p1396
sg22
S'None'
p1397
sg24
I773
sg25
S'O2'
p1398
sg27
Nsg28
S'heterogeneous'
p1399
sg30
F0.0
sba(iexpclass
expclass
p1400
(dp1401
g6
S'Oxide'
p1402
sg8
S'Ga2O3/MoO3'
p1403
sg10
S'gas'
p1404
sg12
F0.03019951720402016
sg13
S'Taylor'
p1405
sg15
S'10.1016/S0920-5861(98)00095-9'
p1406
sg17
F-1.52
sg18
S'no'
p1407
sg20
S'Ga'
p1408
sg22
S'None'
p1409
sg24
I723
sg25
S'O2'
p1410
sg27
Nsg28
S'heterogeneous'
p1411
sg30
F22.0
sba(iexpclass
expclass
p1412
(dp1413
g6
S'Oxide'
p1414
sg8
S'Ga2O3/MoO4'
p1415
sg10
S'gas'
p1416
sg12
F0.030902954325135904
sg13
S'Taylor'
p1417
sg15
S'10.1016/S0920-5861(98)00095-9'
p1418
sg17
F-1.51
sg18
S'no'
p1419
sg20
S'Ga'
p1420
sg22
S'None'
p1421
sg24
I773
sg25
S'O2'
p1422
sg27
Nsg28
S'heterogeneous'
p1423
sg30
F0.0
sba(iexpclass
expclass
p1424
(dp1425
g6
S'Oxide'
p1426
sg8
S'ZnO/MoO3'
p1427
sg10
S'gas'
p1428
sg12
F0.003981071705534973
sg13
S'Taylor'
p1429
sg15
S'10.1016/S0920-5861(98)00095-9'
p1430
sg17
F-2.4
sg18
S'no'
p1431
sg20
S'Zn'
p1432
sg22
S'None'
p1433
sg24
I728
sg25
S'O2'
p1434
sg27
Nsg28
S'heterogeneous'
p1435
sg30
F0.0
sba(iexpclass
expclass
p1436
(dp1437
g6
S'Oxide'
p1438
sg8
S'ZnO/MoO4'
p1439
sg10
S'gas'
p1440
sg12
F0.03630780547701014
sg13
S'Taylor'
p1441
sg15
S'10.1016/S0920-5861(98)00095-9'
p1442
sg17
F-1.44
sg18
S'no'
p1443
sg20
S'Zn'
p1444
sg22
S'None'
p1445
sg24
I773
sg25
S'O2'
p1446
sg27
Nsg28
S'heterogeneous'
p1447
sg30
F0.0
sba(iexpclass
expclass
p1448
(dp1449
g6
S'Oxide'
p1450
sg8
S'Ga2O3'
p1451
sg10
S'gas'
p1452
sg12
F0.01513561248436208
sg13
S'Taylor'
p1453
sg15
S'10.1016/S0920-5861(98)00095-9'
p1454
sg17
F-1.82
sg18
S'no'
p1455
sg20
S'Ga'
p1456
sg22
S'None'
p1457
sg24
I723
sg25
S'O2'
p1458
sg27
Nsg28
S'heterogeneous'
p1459
sg30
F3.0
sba(iexpclass
expclass
p1460
(dp1461
g6
S'Oxide'
p1462
sg8
S'Ga2O3'
p1463
sg10
S'gas'
p1464
sg12
F0.030902954325135904
sg13
S'Taylor'
p1465
sg15
S'10.1016/S0920-5861(98)00095-9'
p1466
sg17
F-1.51
sg18
S'no'
p1467
sg20
S'Ga'
p1468
sg22
S'None'
p1469
sg24
I773
sg25
S'O2'
p1470
sg27
Nsg28
S'heterogeneous'
p1471
sg30
F0.0
sba(iexpclass
expclass
p1472
(dp1473
g6
S'Gas-phase'
p1474
sg8
S'quartz-packing'
p1475
sg10
S'gas'
p1476
sg12
F0.003981071705534973
sg13
S'Taylor'
p1477
sg15
S'10.1016/S0920-5861(98)00095-9'
p1478
sg17
F-2.4
sg18
S'yes'
p1479
sg20
S'Gas-Phase(Radical)'
p1480
sg22
S'None'
p1481
sg24
I723
sg25
S'O2'
p1482
sg27
Nsg28
S'heterogeneous'
p1483
sg30
F0.0
sba(iexpclass
expclass
p1484
(dp1485
g6
S'Gas-phase'
p1486
sg8
S'quartz-packing'
p1487
sg10
S'gas'
p1488
sg12
F0.034673685045253165
sg13
S'Taylor'
p1489
sg15
S'10.1016/S0920-5861(98)00095-9'
p1490
sg17
F-1.46
sg18
S'yes'
p1491
sg20
g1480
sg22
S'None'
p1492
sg24
I748
sg25
S'O2'
p1493
sg27
Nsg28
S'heterogeneous'
p1494
sg30
F15.0
sba(iexpclass
expclass
p1495
(dp1496
g6
S'Gas-phase'
p1497
sg8
S'quartz-packing'
p1498
sg10
S'gas'
p1499
sg12
F0.034673685045253165
sg13
S'Taylor'
p1500
sg15
S'10.1016/S0920-5861(98)00095-9'
p1501
sg17
F-1.46
sg18
S'yes'
p1502
sg20
g1480
sg22
S'None'
p1503
sg24
I773
sg25
S'O2'
p1504
sg27
Nsg28
S'heterogeneous'
p1505
sg30
F15.0
sba(iexpclass
expclass
p1506
(dp1507
g6
S'Gas-phase'
p1508
sg8
S'quartz-packing'
p1509
sg10
S'gas'
p1510
sg12
F0.0812830516164099
sg13
S'Taylor'
p1511
sg15
S'10.1016/S0920-5861(98)00095-9'
p1512
sg17
F-1.09
sg18
S'yes'
p1513
sg20
g1480
sg22
S'None'
p1514
sg24
I723
sg25
S'O2'
p1515
sg27
Nsg28
S'heterogeneous'
p1516
sg30
F29.0
sba(iexpclass
expclass
p1517
(dp1518
g6
S'Gas-phase'
p1519
sg8
S'empty-tube'
p1520
sg10
S'gas'
p1521
sg12
F0.07943282347242814
sg13
S'Taylor'
p1522
sg15
S'10.1016/S0920-5861(98)00095-9'
p1523
sg17
F-1.1
sg18
S'yes'
p1524
sg20
g1480
sg22
S'None'
p1525
sg24
I773
sg25
S'O2'
p1526
sg27
Nsg28
S'heterogeneous'
p1527
sg30
F19.0
sba(iexpclass
expclass
p1528
(dp1529
g6
S'Phosphate'
p1530
sg8
S'FePO4/SiO2'
p1531
sg10
S'gas'
p1532
sg12
F0.015848931924611134
sg13
S'McCormick'
p1533
sg15
S'10.1016/S0920-5861(99)00243-6'
p1534
sg17
F-1.8
sg18
S'no'
p1535
sg20
S'Fe'
p1536
sg22
S'None'
p1537
sg24
I873
sg25
S'O2'
p1538
sg27
Nsg28
S'heterogeneous'
p1539
sg30
F2.0
sba(iexpclass
expclass
p1540
(dp1541
g6
S'Phosphate'
p1542
sg8
S'FePO4/SiO2'
p1543
sg10
S'gas'
p1544
sg12
F0.016982436524617443
sg13
S'McCormick'
p1545
sg15
S'10.1016/S0920-5861(99)00243-6'
p1546
sg17
F-1.77
sg18
S'no'
p1547
sg20
S'Fe'
p1548
sg22
S'None'
p1549
sg24
I873
sg25
S'O2'
p1550
sg27
Nsg28
S'heterogeneous'
p1551
sg30
F1.0
sba(iexpclass
expclass
p1552
(dp1553
g6
S'Phosphate'
p1554
sg8
S'FePO4/SiO2'
p1555
sg10
S'gas'
p1556
sg12
F0.00707945784384138
sg13
S'McCormick'
p1557
sg15
S'10.1016/S0920-5861(99)00243-6'
p1558
sg17
F-2.15
sg18
S'no'
p1559
sg20
S'Fe'
p1560
sg22
S'None'
p1561
sg24
I873
sg25
S'O2'
p1562
sg27
Nsg28
S'heterogeneous'
p1563
sg30
F5.75
sba(iexpclass
expclass
p1564
(dp1565
g6
S'Phosphate'
p1566
sg8
S'FePO4/SiO2'
p1567
sg10
S'gas'
p1568
sg12
F0.011220184543019636
sg13
S'McCormick'
p1569
sg15
S'10.1016/S0920-5861(99)00243-6'
p1570
sg17
F-1.95
sg18
S'no'
p1571
sg20
S'Fe'
p1572
sg22
S'None'
p1573
sg24
I873
sg25
S'O2'
p1574
sg27
Nsg28
S'heterogeneous'
p1575
sg30
F4.37
sba(iexpclass
expclass
p1576
(dp1577
g6
S'Phosphate'
p1578
sg8
S'FePO4/SiO2'
p1579
sg10
S'gas'
p1580
sg12
F0.018197008586099836
sg13
S'McCormick'
p1581
sg15
S'10.1016/S0920-5861(99)00243-6'
p1582
sg17
F-1.74
sg18
S'no'
p1583
sg20
S'Fe'
p1584
sg22
S'None'
p1585
sg24
I873
sg25
S'O2'
p1586
sg27
Nsg28
S'heterogeneous'
p1587
sg30
F1.78
sba(iexpclass
expclass
p1588
(dp1589
g6
S'Phosphate'
p1590
sg8
S'FePO4/SiO2'
p1591
sg10
S'gas'
p1592
sg12
F0.024547089156850298
sg13
S'McCormick'
p1593
sg15
S'10.1016/S0920-5861(99)00243-6'
p1594
sg17
F-1.61
sg18
S'no'
p1595
sg20
S'Fe'
p1596
sg22
S'None'
p1597
sg24
I873
sg25
S'O2'
p1598
sg27
Nsg28
S'heterogeneous'
p1599
sg30
F1.62
sba(iexpclass
expclass
p1600
(dp1601
g6
S'Phosphate'
p1602
sg8
S'FePO4/SiO2'
p1603
sg10
S'gas'
p1604
sg12
F0.030902954325135904
sg13
S'McCormick'
p1605
sg15
S'10.1016/S0920-5861(99)00243-6'
p1606
sg17
F-1.51
sg18
S'no'
p1607
sg20
S'Fe'
p1608
sg22
S'None'
p1609
sg24
I873
sg25
S'O2'
p1610
sg27
Nsg28
S'heterogeneous'
p1611
sg30
F1.29
sba(iexpclass
expclass
p1612
(dp1613
g6
S'Phosphate'
p1614
sg8
S'FePO4/SiO2'
p1615
sg10
S'gas'
p1616
sg12
F0.03311311214825911
sg13
S'McCormick'
p1617
sg15
S'10.1016/S0920-5861(99)00243-6'
p1618
sg17
F-1.48
sg18
S'no'
p1619
sg20
S'Fe'
p1620
sg22
S'None'
p1621
sg24
I873
sg25
S'O2'
p1622
sg27
Nsg28
S'heterogeneous'
p1623
sg30
F1.12
sba(iexpclass
expclass
p1624
(dp1625
g6
S'Oxide'
p1626
sg8
S'V2O5/silicate'
p1627
sg10
S'gas'
p1628
sg12
F0.03019951720402016
sg13
S'Berndt'
p1629
sg15
S'10.1006/jcat.1999.2786'
p1630
sg17
F-1.52
sg18
S'no'
p1631
sg20
g788
sg22
S'None'
p1632
sg24
I868
sg25
S'O2'
p1633
sg27
Nsg28
S'heterogeneous'
p1634
sg30
F0.7
sba(iexpclass
expclass
p1635
(dp1636
g6
S'Oxide'
p1637
sg8
S'V2O5/silicate'
p1638
sg10
S'gas'
p1639
sg12
F0.06606934480075961
sg13
S'Berndt'
p1640
sg15
S'10.1006/jcat.1999.2786'
p1641
sg17
F-1.18
sg18
S'no'
p1642
sg20
g788
sg22
S'None'
p1643
sg24
I897
sg25
S'O2'
p1644
sg27
Nsg28
S'heterogeneous'
p1645
sg30
F0.4
sba(iexpclass
expclass
p1646
(dp1647
g6
S'Oxide'
p1648
sg8
S'V2O5/silicate'
p1649
sg10
S'gas'
p1650
sg12
F0.0933254300796991
sg13
S'Berndt'
p1651
sg15
S'10.1006/jcat.1999.2786'
p1652
sg17
F-1.03
sg18
S'no'
p1653
sg20
g788
sg22
S'None'
p1654
sg24
I924
sg25
S'O2'
p1655
sg27
Nsg28
S'heterogeneous'
p1656
sg30
F0.3
sba(iexpclass
expclass
p1657
(dp1658
g6
S'Oxide'
p1659
sg8
S'V2O5/silicate'
p1660
sg10
S'gas'
p1661
sg12
F0.03235936569296283
sg13
S'Berndt'
p1662
sg15
S'10.1006/jcat.1999.2786'
p1663
sg17
F-1.49
sg18
S'no'
p1664
sg20
g788
sg22
S'None'
p1665
sg24
I868
sg25
S'O2'
p1666
sg27
Nsg28
S'heterogeneous'
p1667
sg30
F0.6
sba(iexpclass
expclass
p1668
(dp1669
g6
S'Oxide'
p1670
sg8
S'V2O5/silicate'
p1671
sg10
S'gas'
p1672
sg12
F0.05370317963702527
sg13
S'Berndt'
p1673
sg15
S'10.1006/jcat.1999.2786'
p1674
sg17
F-1.27
sg18
S'no'
p1675
sg20
g788
sg22
S'None'
p1676
sg24
I899
sg25
S'O2'
p1677
sg27
Nsg28
S'heterogeneous'
p1678
sg30
F0.2
sba(iexpclass
expclass
p1679
(dp1680
g6
S'Oxide'
p1681
sg8
S'V2O5/silicate'
p1682
sg10
S'gas'
p1683
sg12
F0.1
sg13
S'Berndt'
p1684
sg15
S'10.1006/jcat.1999.2786'
p1685
sg17
F-1.0
sg18
S'no'
p1686
sg20
g788
sg22
S'None'
p1687
sg24
I906
sg25
S'O2'
p1688
sg27
Nsg28
S'heterogeneous'
p1689
sg30
F2.0
sba(iexpclass
expclass
p1690
(dp1691
g6
S'Oxide'
p1692
sg8
S'V2O5/silicate'
p1693
sg10
S'gas'
p1694
sg12
F0.1096478196143185
sg13
S'Berndt'
p1695
sg15
S'10.1006/jcat.1999.2786'
p1696
sg17
F-0.96
sg18
S'no'
p1697
sg20
g788
sg22
S'None'
p1698
sg24
I929
sg25
S'O2'
p1699
sg27
Nsg28
S'heterogeneous'
p1700
sg30
F0.2
sba(iexpclass
expclass
p1701
(dp1702
g6
S'Oxide'
p1703
sg8
S'V2O5/silicate'
p1704
sg10
S'gas'
p1705
sg12
F0.03162277660168379
sg13
S'Fornes'
p1706
sg15
S'10.1016/S0926-860X(03)00226-6'
p1707
sg17
F-1.5
sg18
S'no'
p1708
sg20
g788
sg22
S'None'
p1709
sg24
I873
sg25
S'O2'
p1710
sg27
Nsg28
S'heterogeneous'
p1711
sg30
F0.2
sba(iexpclass
expclass
p1712
(dp1713
g6
S'Oxide'
p1714
sg8
S'V2O5/silicate'
p1715
sg10
S'gas'
p1716
sg12
F0.01412537544622754
sg13
S'Fornes'
p1717
sg15
S'10.1016/S0926-860X(03)00226-6'
p1718
sg17
F-1.85
sg18
S'no'
p1719
sg20
g788
sg22
S'None'
p1720
sg24
I873
sg25
S'O2'
p1721
sg27
Nsg28
S'heterogeneous'
p1722
sg30
F0.2
sba(iexpclass
expclass
p1723
(dp1724
g6
S'Oxide'
p1725
sg8
S'V2O5/silicate'
p1726
sg10
S'gas'
p1727
sg12
F0.009120108393559097
sg13
S'Fornes'
p1728
sg15
S'10.1016/S0926-860X(03)00226-6'
p1729
sg17
F-2.04
sg18
S'no'
p1730
sg20
g788
sg22
S'None'
p1731
sg24
I873
sg25
S'O2'
p1732
sg27
Nsg28
S'heterogeneous'
p1733
sg30
F0.4
sba(iexpclass
expclass
p1734
(dp1735
g6
S'Oxide'
p1736
sg8
S'V2O5/silicate'
p1737
sg10
S'gas'
p1738
sg12
F0.018197008586099836
sg13
S'Fornes'
p1739
sg15
S'10.1016/S0926-860X(03)00226-6'
p1740
sg17
F-1.74
sg18
S'no'
p1741
sg20
g788
sg22
S'None'
p1742
sg24
I873
sg25
S'O2'
p1743
sg27
Nsg28
S'heterogeneous'
p1744
sg30
F0.4
sba(iexpclass
expclass
p1745
(dp1746
g6
S'Oxide'
p1747
sg8
S'V2O5/silicate'
p1748
sg10
S'gas'
p1749
sg12
F0.011748975549395297
sg13
S'Fornes'
p1750
sg15
S'10.1016/S0926-860X(03)00226-6'
p1751
sg17
F-1.93
sg18
S'no'
p1752
sg20
g788
sg22
S'None'
p1753
sg24
I873
sg25
S'O2'
p1754
sg27
Nsg28
S'heterogeneous'
p1755
sg30
F0.5
sba(iexpclass
expclass
p1756
(dp1757
g6
S'Oxide'
p1758
sg8
S'V2O5/silicate'
p1759
sg10
S'gas'
p1760
sg12
F0.005754399373371567
sg13
S'Fornes'
p1761
sg15
S'10.1016/S0926-860X(03)00226-6'
p1762
sg17
F-2.24
sg18
S'no'
p1763
sg20
g788
sg22
S'None'
p1764
sg24
I873
sg25
S'O2'
p1765
sg27
Nsg28
S'heterogeneous'
p1766
sg30
F0.8
sba(iexpclass
expclass
p1767
(dp1768
g6
S'Oxide'
p1769
sg8
S'MoO3/silica'
p1770
sg10
S'gas'
p1771
sg12
F0.005754399373371567
sg13
S'Sugino'
p1772
sg15
S'10.1006/jcat.1999.2732'
p1773
sg17
F-2.24
sg18
S'no'
p1774
sg20
S'Mo'
p1775
sg22
S'None'
p1776
sg24
I773
sg25
S'O2'
p1777
sg27
Nsg28
S'heterogeneous'
p1778
sg30
F2.0
sba(iexpclass
expclass
p1779
(dp1780
g6
S'Oxide'
p1781
sg8
S'MoO3/silica'
p1782
sg10
S'gas'
p1783
sg12
F0.012022644346174132
sg13
S'Sugino'
p1784
sg15
S'10.1006/jcat.1999.2732'
p1785
sg17
F-1.92
sg18
S'no'
p1786
sg20
S'Mo'
p1787
sg22
S'None'
p1788
sg24
I823
sg25
S'O2'
p1789
sg27
Nsg28
S'heterogeneous'
p1790
sg30
F1.0
sba(iexpclass
expclass
p1791
(dp1792
g6
S'Oxide'
p1793
sg8
S'MoO3/silica'
p1794
sg10
S'gas'
p1795
sg12
F0.039810717055349734
sg13
S'Sugino'
p1796
sg15
S'10.1006/jcat.1999.2732'
p1797
sg17
F-1.4
sg18
S'no'
p1798
sg20
S'Mo'
p1799
sg22
S'None'
p1800
sg24
I873
sg25
S'O2'
p1801
sg27
Nsg28
S'heterogeneous'
p1802
sg30
F1.0
sba(iexpclass
expclass
p1803
(dp1804
g6
S'Oxide'
p1805
sg8
S'MoO3/silica'
p1806
sg10
S'gas'
p1807
sg12
F0.06606934480075961
sg13
S'Sugino'
p1808
sg15
S'10.1006/jcat.1999.2732'
p1809
sg17
F-1.18
sg18
S'no'
p1810
sg20
S'Mo'
p1811
sg22
S'None'
p1812
sg24
I923
sg25
S'O2'
p1813
sg27
Nsg28
S'heterogeneous'
p1814
sg30
F0.0
sba(iexpclass
expclass
p1815
(dp1816
g6
S'Oxide'
p1817
sg8
S'MoO3/silica'
p1818
sg10
S'gas'
p1819
sg12
F0.01
sg13
S'Sugino'
p1820
sg15
S'10.1006/jcat.1999.2732'
p1821
sg17
F-2.0
sg18
S'no'
p1822
sg20
S'Mo'
p1823
sg22
S'None'
p1824
sg24
I773
sg25
S'O2'
p1825
sg27
Nsg28
S'heterogeneous'
p1826
sg30
F13.0
sba(iexpclass
expclass
p1827
(dp1828
g6
S'Oxide'
p1829
sg8
S'MoO3/silica'
p1830
sg10
S'gas'
p1831
sg12
F0.028840315031266057
sg13
S'Sugino'
p1832
sg15
S'10.1006/jcat.1999.2732'
p1833
sg17
F-1.54
sg18
S'no'
p1834
sg20
S'Mo'
p1835
sg22
S'None'
p1836
sg24
I823
sg25
S'O2'
p1837
sg27
Nsg28
S'heterogeneous'
p1838
sg30
F8.0
sba(iexpclass
expclass
p1839
(dp1840
g6
S'Oxide'
p1841
sg8
S'MoO3/silica'
p1842
sg10
S'gas'
p1843
sg12
F0.0812830516164099
sg13
S'Sugino'
p1844
sg15
S'10.1006/jcat.1999.2732'
p1845
sg17
F-1.09
sg18
S'no'
p1846
sg20
S'Mo'
p1847
sg22
S'None'
p1848
sg24
I873
sg25
S'O2'
p1849
sg27
Nsg28
S'heterogeneous'
p1850
sg30
F11.0
sba(iexpclass
expclass
p1851
(dp1852
g6
S'Oxide'
p1853
sg8
S'MoO3/silica'
p1854
sg10
S'gas'
p1855
sg12
F0.12022644346174129
sg13
S'Sugino'
p1856
sg15
S'10.1006/jcat.1999.2732'
p1857
sg17
F-0.92
sg18
S'no'
p1858
sg20
S'Mo'
p1859
sg22
S'None'
p1860
sg24
I923
sg25
S'O2'
p1861
sg27
Nsg28
S'heterogeneous'
p1862
sg30
F4.0
sba(iexpclass
expclass
p1863
(dp1864
g6
S'Oxide'
p1865
sg8
S'MoO3-ZnO/alumina-silicate'
p1866
sg10
S'gas'
p1867
sg12
F0.022908676527677734
sg13
S'dowden'
p1868
sg15
S'GB1244001A'
p1869
sg17
F-1.64
sg18
S'no'
p1870
sg20
S'Mo'
p1871
sg22
S'None'
p1872
sg24
I766
sg25
S'O2'
p1873
sg27
Nsg28
S'heterogeneous'
p1874
sg30
F51.0
sba(iexpclass
expclass
p1875
(dp1876
g6
S'Oxide'
p1877
sg8
S'(MoO3)3-Fe2O3/alumina-silica'
p1878
sg10
S'gas'
p1879
sg12
F0.020892961308540396
sg13
S'dowden'
p1880
sg15
S'GB1244001A'
p1881
sg17
F-1.68
sg18
S'no'
p1882
sg20
S'Mo'
p1883
sg22
S'None'
p1884
sg24
I712
sg25
S'O2'
p1885
sg27
Nsg28
S'heterogeneous'
p1886
sg30
F65.0
sba(iexpclass
expclass
p1887
(dp1888
g6
S'Oxide'
p1889
sg8
S'MoO3-UO2/alumina-silica'
p1890
sg10
S'gas'
p1891
sg12
F0.034673685045253165
sg13
S'dowden'
p1892
sg15
S'GB1244001A'
p1893
sg17
F-1.46
sg18
S'no'
p1894
sg20
S'Mo'
p1895
sg22
S'None'
p1896
sg24
I743
sg25
S'O2'
p1897
sg27
Nsg28
S'heterogeneous'
p1898
sg30
F75.0
sba(iexpclass
expclass
p1899
(dp1900
g6
S'Oxide'
p1901
sg8
S'MoO3-VO2/alumina-silica'
p1902
sg10
S'gas'
p1903
sg12
F0.025703957827688632
sg13
S'dowden'
p1904
sg15
S'GB1244001A'
p1905
sg17
F-1.59
sg18
S'no'
p1906
sg20
S'Mo'
p1907
sg22
S'None'
p1908
sg24
I766
sg25
S'O2'
p1909
sg27
Nsg28
S'heterogeneous'
p1910
sg30
F49.0
sba(iexpclass
expclass
p1911
(dp1912
g6
S'Oxide'
p1913
sg8
S'MoO3/alumina-silica'
p1914
sg10
S'gas'
p1915
sg12
F0.022908676527677734
sg13
S'dowden'
p1916
sg15
S'GB1244001A'
p1917
sg17
F-1.64
sg18
S'no'
p1918
sg20
S'Mo'
p1919
sg22
S'None'
p1920
sg24
I733
sg25
S'O2'
p1921
sg27
Nsg28
S'heterogeneous'
p1922
sg30
F19.0
sba(iexpclass
expclass
p1923
(dp1924
g6
S'Oxide'
p1925
sg8
S'MoOx/La-Co-O'
p1926
sg10
S'gas'
p1927
sg12
F0.08912509381337455
sg13
S'Zhang'
p1928
sg15
S'10.1007/s11244-005-2894-5'
p1929
sg17
F-1.05
sg18
S'no'
p1930
sg20
S'Mo'
p1931
sg22
S'None'
p1932
sg24
I693
sg25
S'O2'
p1933
sg27
Nsg28
S'heterogeneous'
p1934
sg30
F28.8
sba(iexpclass
expclass
p1935
(dp1936
g6
S'Oxide'
p1937
sg8
S'MoOx/La-Co-O'
p1938
sg10
S'gas'
p1939
sg12
F0.11220184543019636
sg13
S'Zhang'
p1940
sg15
S'10.1007/s11244-005-2894-6'
p1941
sg17
F-0.95
sg18
S'no'
p1942
sg20
S'Mo'
p1943
sg22
S'None'
p1944
sg24
I693
sg25
S'O2'
p1945
sg27
Nsg28
S'heterogeneous'
p1946
sg30
F60.0
sba(iexpclass
expclass
p1947
(dp1948
g6
S'Oxide'
p1949
sg8
S'MoOx/La-Co-O'
p1950
sg10
S'gas'
p1951
sg12
F0.1148153621496883
sg13
S'Zhang'
p1952
sg15
S'10.1007/s11244-005-2894-7'
p1953
sg17
F-0.94
sg18
S'no'
p1954
sg20
S'Mo'
p1955
sg22
S'None'
p1956
sg24
I693
sg25
S'O2'
p1957
sg27
Nsg28
S'heterogeneous'
p1958
sg30
F33.2
sba(iexpclass
expclass
p1959
(dp1960
g6
S'Oxide'
p1961
sg8
S'Mo-V-Cr-Bi'
p1962
sg10
S'gas'
p1963
sg12
F0.1
sg13
S'Zhang'
p1964
sg15
S'10.1016/S1003-9953(08)60021-3'
p1965
sg17
F-1.0
sg18
S'no'
p1966
sg20
S'Mo'
p1967
sg22
S'None'
p1968
sg24
I753
sg25
S'O2'
p1969
sg27
Nsg28
S'heterogeneous'
p1970
sg30
F41.0
sba(iexpclass
expclass
p1971
(dp1972
g6
S'SSZ-13'
p1973
sg8
S'SSZ-13'
p1974
sg10
S'gas'
p1975
sg12
F0.00015848931924611142
sg13
S'Lobo'
p1976
sg15
S'10.1039/C6CC07893A'
p1977
sg17
F-3.8
sg18
S'yes'
p1978
sg20
S'Cu'
p1979
sg22
S'None'
p1980
sg24
I523
sg25
S'N2O'
p1981
sg27
Nsg28
S'heterogeneous'
p1982
sg30
F24.0
sba(iexpclass
expclass
p1983
(dp1984
g6
S'SSZ-13'
p1985
sg8
S'SSZ-13'
p1986
sg10
S'gas'
p1987
sg12
F0.00021877616239495518
sg13
S'Lobo'
p1988
sg15
S'10.1039/C6CC07893A'
p1989
sg17
F-3.66
sg18
S'yes'
p1990
sg20
S'Cu'
p1991
sg22
S'None'
p1992
sg24
I533
sg25
S'N2O'
p1993
sg27
Nsg28
S'heterogeneous'
p1994
sg30
F27.0
sba(iexpclass
expclass
p1995
(dp1996
g6
S'SSZ-13'
p1997
sg8
S'SSZ-13'
p1998
sg10
S'gas'
p1999
sg12
F0.0003235936569296281
sg13
S'Lobo'
p2000
sg15
S'10.1039/C6CC07893A'
p2001
sg17
F-3.49
sg18
S'yes'
p2002
sg20
S'Cu'
p2003
sg22
S'None'
p2004
sg24
I538
sg25
S'N2O'
p2005
sg27
Nsg28
S'heterogeneous'
p2006
sg30
F20.7
sba(iexpclass
expclass
p2007
(dp2008
g6
S'SSZ-13'
p2009
sg8
S'SSZ-13'
p2010
sg10
S'gas'
p2011
sg12
F0.0005495408738576248
sg13
S'Lobo'
p2012
sg15
S'10.1039/C6CC07893A'
p2013
sg17
F-3.26
sg18
S'yes'
p2014
sg20
S'Cu'
p2015
sg22
S'None'
p2016
sg24
I543
sg25
S'N2O'
p2017
sg27
Nsg28
S'heterogeneous'
p2018
sg30
F15.8
sba(iexpclass
expclass
p2019
(dp2020
g6
S'SSZ-13'
p2021
sg8
S'SSZ-13'
p2022
sg10
S'gas'
p2023
sg12
F0.0009332543007969915
sg13
S'Lobo'
p2024
sg15
S'10.1039/C6CC07893A'
p2025
sg17
F-3.03
sg18
S'yes'
p2026
sg20
S'Cu'
p2027
sg22
S'None'
p2028
sg24
I548
sg25
S'N2O'
p2029
sg27
Nsg28
S'heterogeneous'
p2030
sg30
F11.4
sba(iexpclass
expclass
p2031
(dp2032
g6
S'SSZ-13'
p2033
sg8
S'SSZ-13'
p2034
sg10
S'gas'
p2035
sg12
F0.007585775750291836
sg13
S'Lobo'
p2036
sg15
S'10.1039/C6CC07893A'
p2037
sg17
F-2.12
sg18
S'yes'
p2038
sg20
S'Cu'
p2039
sg22
S'None'
p2040
sg24
I573
sg25
S'N2O'
p2041
sg27
Nsg28
S'heterogeneous'
p2042
sg30
F2.3
sba(iexpclass
expclass
p2043
(dp2044
g6
S'SSZ-13'
p2045
sg8
S'SSZ-13'
p2046
sg10
S'gas'
p2047
sg12
F0.001202264434617413
sg13
S'Lobo'
p2048
sg15
S'10.1039/C6CC07893A'
p2049
sg17
F-2.92
sg18
S'yes'
p2050
sg20
S'Cu'
p2051
sg22
S'None'
p2052
sg24
I573
sg25
S'N2O'
p2053
sg27
Nsg28
S'heterogeneous'
p2054
sg30
F12.5
sba(iexpclass
expclass
p2055
(dp2056
g6
S'SSZ-13'
p2057
sg8
S'SSZ-13'
p2058
sg10
S'gas'
p2059
sg12
F0.0012882495516931337
sg13
S'Lobo'
p2060
sg15
S'10.1039/C6CC07893A'
p2061
sg17
F-2.89
sg18
S'yes'
p2062
sg20
S'Cu'
p2063
sg22
S'None'
p2064
sg24
I543
sg25
S'N2O'
p2065
sg27
Nsg28
S'heterogeneous'
p2066
sg30
F3.0
sba(iexpclass
expclass
p2067
(dp2068
g6
S'SSZ-13'
p2069
sg8
S'SSZ-13'
p2070
sg10
S'gas'
p2071
sg12
F0.001202264434617413
sg13
S'Lobo'
p2072
sg15
S'10.1039/C6CC07893A'
p2073
sg17
F-2.92
sg18
S'yes'
p2074
sg20
S'Cu'
p2075
sg22
S'None'
p2076
sg24
I573
sg25
S'N2O'
p2077
sg27
Nsg28
S'heterogeneous'
p2078
sg30
F2.0
sba(iexpclass
expclass
p2079
(dp2080
g6
S'SSZ-13'
p2081
sg8
S'SSZ-13'
p2082
sg10
S'gas'
p2083
sg12
F0.00021877616239495518
sg13
S'Lobo'
p2084
sg15
S'10.1039/C6CC07893A'
p2085
sg17
F-3.66
sg18
S'yes'
p2086
sg20
S'Cu'
p2087
sg22
S'None'
p2088
sg24
I543
sg25
S'N2O'
p2089
sg27
Nsg28
S'heterogeneous'
p2090
sg30
F39.7
sba(iexpclass
expclass
p2091
(dp2092
g6
S'MOR'
p2093
sg8
S'MOR'
p2094
sg10
S'gas'
p2095
sg12
F0.00012882495516931337
sg13
S'Lobo'
p2096
sg15
S'10.1039/C6CC07893A'
p2097
sg17
F-3.89
sg18
S'yes'
p2098
sg20
S'Cu'
p2099
sg22
S'None'
p2100
sg24
I543
sg25
S'N2O'
p2101
sg27
Nsg28
S'heterogeneous'
p2102
sg30
F24.0
sba(iexpclass
expclass
p2103
(dp2104
g6
S'MOR'
p2105
sg8
S'MOR'
p2106
sg10
S'gas'
p2107
sg12
F0.000630957344480193
sg13
S'Lobo'
p2108
sg15
S'10.1039/C6CC07893A'
p2109
sg17
F-3.2
sg18
S'yes'
p2110
sg20
S'Cu'
p2111
sg22
S'None'
p2112
sg24
I543
sg25
S'N2O'
p2113
sg27
Nsg28
S'heterogeneous'
p2114
sg30
F1.1
sba(iexpclass
expclass
p2115
(dp2116
g6
S'ZSM-5'
p2117
sg8
S'ZSM-5'
p2118
sg10
S'gas'
p2119
sg12
F0.006760829753919818
sg13
S'Lobo'
p2120
sg15
S'10.1039/C6CC07893A'
p2121
sg17
F-2.17
sg18
S'yes'
p2122
sg20
S'Cu'
p2123
sg22
S'None'
p2124
sg24
I543
sg25
S'N2O'
p2125
sg27
Nsg28
S'heterogeneous'
p2126
sg30
F0.3
sba(iexpclass
expclass
p2127
(dp2128
g6
S'ZSM-5'
p2129
sg8
S'ZSM-5'
p2130
sg10
S'gas'
p2131
sg12
F1e-05
sg13
S'Leshkov'
p2132
sg15
S'10.1021/acscentsci.6b00139'
p2133
sg17
F-5.0
sg18
S'yes'
p2134
sg20
S'Cu'
p2135
sg22
S'None'
p2136
sg24
I483
sg25
S'O2'
p2137
sg27
Nsg28
S'heterogeneous'
p2138
sg30
F71.0
sba(iexpclass
expclass
p2139
(dp2140
g6
S'SSZ-13'
p2141
sg8
S'SSZ-13'
p2142
sg10
S'gas'
p2143
sg12
F0.001
sg13
S'Leshkov'
p2144
sg15
S'None'
p2145
sg17
F-3.0
sg18
S'yes'
p2146
sg20
S'Cu'
p2147
sg22
S'thesis'
p2148
sg24
I623
sg25
S'O2'
p2149
sg27
Nsg28
S'heterogeneous'
p2150
sg30
F90.0
sba(iexpclass
expclass
p2151
(dp2152
g6
S'ZSM-5'
p2153
sg8
S'ZSM-5'
p2154
sg10
S'aqueous'
p2155
sg12
F0.003019951720402016
sg13
S'Hutchings'
p2156
sg15
S'10.1002/anie.201108706'
p2157
sg17
F-2.52
sg18
S'yes'
p2158
sg20
S'Cu'
p2159
sg22
S'None'
p2160
sg24
I323
sg25
S'H2O2'
p2161
sg27
Nsg28
S'heterogeneous'
p2162
sg30
F83.0
sba(iexpclass
expclass
p2163
(dp2164
g6
S'ZSM-5'
p2165
sg8
S'Cu-Fe/ZSM-5'
p2166
sg10
S'aqueous'
p2167
sg12
F0.00707945784384138
sg13
S'Hutchings'
p2168
sg15
S'10.1002/anie.201108706'
p2169
sg17
F-2.15
sg18
S'yes'
p2170
sg20
S'Fe'
p2171
sg22
S'None'
p2172
sg24
I323
sg25
S'H2O2'
p2173
sg27
Nsg28
S'heterogeneous'
p2174
sg30
F85.0
sba(iexpclass
expclass
p2175
(dp2176
g6
S'ZSM-5'
p2177
sg8
S'Cu-Fe/ZSM-5'
p2178
sg10
S'aqueous'
p2179
sg12
F0.005011872336272725
sg13
S'Hutchings'
p2180
sg15
S'10.1002/anie.201108706'
p2181
sg17
F-2.3
sg18
S'yes'
p2182
sg20
S'Fe'
p2183
sg22
S'None'
p2184
sg24
I323
sg25
S'H2O2'
p2185
sg27
Nsg28
S'heterogeneous'
p2186
sg30
F88.0
sba(iexpclass
expclass
p2187
(dp2188
g6
S'Silicalite'
p2189
sg8
S'Cu-Fe/silicalite'
p2190
sg10
S'aqueous'
p2191
sg12
F0.1
sg13
S'Hutchings'
p2192
sg15
S'10.1002/anie.201108706'
p2193
sg17
F-1.0
sg18
S'yes'
p2194
sg20
S'Fe'
p2195
sg22
S'None'
p2196
sg24
I323
sg25
S'H2O2'
p2197
sg27
Nsg28
S'heterogeneous'
p2198
sg30
F93.0
sba(iexpclass
expclass
p2199
(dp2200
g6
S'MMO'
p2201
sg8
S'MMO'
p2202
sg10
S'aqueous'
p2203
sg12
F0.01513561248436208
sg13
S'Dalton'
p2204
sg15
S'10.1042/bj1650395'
p2205
sg17
F-1.82
sg18
S'yes'
p2206
sg20
S'Fe'
p2207
sg22
S'enzyme'
p2208
sg24
I300
sg25
S'O2'
p2209
sg27
Nsg28
S'homogeneous'
p2210
sg30
F99.0
sba(iexpclass
expclass
p2211
(dp2212
g6
S'ZSM-5'
p2213
sg8
S'ZSM-5'
p2214
sg10
S'gas'
p2215
sg12
F0.03630780547701014
sg13
S'Panov'
p2216
sg15
S'10.1016/j.jcat.2014.07.009'
p2217
sg17
F-1.44
sg18
S'yes'
p2218
sg20
S'Fe'
p2219
sg22
S'None'
p2220
sg24
I573
sg25
S'N2O'
p2221
sg27
Nsg28
S'heterogeneous'
p2222
sg30
F1.9
sba(iexpclass
expclass
p2223
(dp2224
g6
S'ZSM-5'
p2225
sg8
S'ZSM-5'
p2226
sg10
S'gas'
p2227
sg12
F0.019054607179632473
sg13
S'Panov'
p2228
sg15
S'10.1016/j.jcat.2014.07.009'
p2229
sg17
F-1.72
sg18
S'yes'
p2230
sg20
S'Fe'
p2231
sg22
S'None'
p2232
sg24
I573
sg25
S'N2O'
p2233
sg27
Nsg28
S'heterogeneous'
p2234
sg30
F9.3
sba(iexpclass
expclass
p2235
(dp2236
g6
S'ZSM-5'
p2237
sg8
S'ZSM-5'
p2238
sg10
S'gas'
p2239
sg12
F0.012882495516931342
sg13
S'Panov'
p2240
sg15
S'10.1016/j.jcat.2014.07.009'
p2241
sg17
F-1.89
sg18
S'yes'
p2242
sg20
S'Fe'
p2243
sg22
S'None'
p2244
sg24
I573
sg25
S'N2O'
p2245
sg27
Nsg28
S'heterogeneous'
p2246
sg30
F19.0
sba(iexpclass
expclass
p2247
(dp2248
g6
S'ZSM-5'
p2249
sg8
S'ZSM-5'
p2250
sg10
S'gas'
p2251
sg12
F0.007585775750291836
sg13
S'Panov'
p2252
sg15
S'10.1016/j.jcat.2014.07.009'
p2253
sg17
F-2.12
sg18
S'yes'
p2254
sg20
S'Fe'
p2255
sg22
S'None'
p2256
sg24
I573
sg25
S'N2O'
p2257
sg27
Nsg28
S'heterogeneous'
p2258
sg30
F42.0
sba(iexpclass
expclass
p2259
(dp2260
g6
S'ZSM-5'
p2261
sg8
S'ZSM-5'
p2262
sg10
S'gas'
p2263
sg12
F0.02187761623949553
sg13
S'Panov'
p2264
sg15
S'10.1016/j.jcat.2014.07.009'
p2265
sg17
F-1.66
sg18
S'yes'
p2266
sg20
S'Fe'
p2267
sg22
S'None'
p2268
sg24
I548
sg25
S'N2O'
p2269
sg27
Nsg28
S'heterogeneous'
p2270
sg30
F2.7
sba(iexpclass
expclass
p2271
(dp2272
g6
S'ZSM-5'
p2273
sg8
S'ZSM-5'
p2274
sg10
S'gas'
p2275
sg12
F0.006456542290346556
sg13
S'Panov'
p2276
sg15
S'10.1016/j.jcat.2014.07.009'
p2277
sg17
F-2.19
sg18
S'yes'
p2278
sg20
S'Fe'
p2279
sg22
S'None'
p2280
sg24
I548
sg25
S'N2O'
p2281
sg27
Nsg28
S'heterogeneous'
p2282
sg30
F31.0
sba(iexpclass
expclass
p2283
(dp2284
g6
S'ZSM-5'
p2285
sg8
S'ZSM-5'
p2286
sg10
S'gas'
p2287
sg12
F0.0026915348039269166
sg13
S'Panov'
p2288
sg15
S'10.1016/j.jcat.2014.07.009'
p2289
sg17
F-2.57
sg18
S'yes'
p2290
sg20
S'Fe'
p2291
sg22
S'None'
p2292
sg24
I548
sg25
S'N2O'
p2293
sg27
Nsg28
S'heterogeneous'
p2294
sg30
F57.0
sba(iexpclass
expclass
p2295
(dp2296
g6
S'ZSM-5'
p2297
sg8
S'ZSM-5'
p2298
sg10
S'gas'
p2299
sg12
F0.0019054607179632462
sg13
S'Panov'
p2300
sg15
S'10.1016/j.jcat.2014.07.009'
p2301
sg17
F-2.72
sg18
S'yes'
p2302
sg20
S'Fe'
p2303
sg22
S'None'
p2304
sg24
I548
sg25
S'N2O'
p2305
sg27
Nsg28
S'heterogeneous'
p2306
sg30
F62.0
sba(iexpclass
expclass
p2307
(dp2308
g6
S'Phthalocyanine'
p2309
sg8
S'CuCl16Pc'
p2310
sg10
S'aqueous'
p2311
sg12
F0.047863009232263824
sg13
S'Raja'
p2312
sg15
S'10.1016/S0926-860X(97)00105-1'
p2313
sg17
F-1.32
sg18
S'yes'
p2314
sg20
S'Cu'
p2315
sg22
S'None'
p2316
sg24
I273
sg25
S'O2/TBHP'
p2317
sg27
Nsg28
S'homogeneous'
p2318
sg30
F40.2
sba(iexpclass
expclass
p2319
(dp2320
g6
S'Phthalocyanine'
p2321
sg8
S'CoCl16Pc'
p2322
sg10
S'aqueous'
p2323
sg12
F0.030902954325135904
sg13
S'Raja'
p2324
sg15
S'10.1016/S0926-860X(97)00105-2'
p2325
sg17
F-1.51
sg18
S'yes'
p2326
sg20
S'Co'
p2327
sg22
S'None'
p2328
sg24
I273
sg25
S'O2/TBHP'
p2329
sg27
Nsg28
S'homogeneous'
p2330
sg30
F10.2
sba(iexpclass
expclass
p2331
(dp2332
g6
S'Phthalocyanine'
p2333
sg8
S'FeCl16Pc'
p2334
sg10
S'aqueous'
p2335
sg12
F0.05248074602497726
sg13
S'Raja'
p2336
sg15
S'10.1016/S0926-860X(97)00105-3'
p2337
sg17
F-1.28
sg18
S'yes'
p2338
sg20
S'Fe'
p2339
sg22
S'None'
p2340
sg24
I273
sg25
S'O2/TBHP'
p2341
sg27
Nsg28
S'homogeneous'
p2342
sg30
F41.2
sba(iexpclass
expclass
p2343
(dp2344
g6
S'Phthalocyanine'
p2345
sg8
S'CuCl16Pc/FAU-X'
p2346
sg10
S'aqueous'
p2347
sg12
F0.04168693834703355
sg13
S'Raja'
p2348
sg15
S'10.1016/S0926-860X(97)00105-4'
p2349
sg17
F-1.38
sg18
S'yes'
p2350
sg20
S'Cu'
p2351
sg22
S'None'
p2352
sg24
I273
sg25
S'O2/TBHP'
p2353
sg27
Nsg28
S'heterogeneous'
p2354
sg30
F51.5
sba(iexpclass
expclass
p2355
(dp2356
g6
S'Phthalocyanine'
p2357
sg8
S'CuCl16Pc/FAU-Y'
p2358
sg10
S'aqueous'
p2359
sg12
F0.03890451449942807
sg13
S'Raja'
p2360
sg15
S'10.1016/S0926-860X(97)00105-5'
p2361
sg17
F-1.41
sg18
S'yes'
p2362
sg20
S'Cu'
p2363
sg22
S'None'
p2364
sg24
I273
sg25
S'O2/TBHP'
p2365
sg27
Nsg28
S'heterogeneous'
p2366
sg30
F53.5
sba(iexpclass
expclass
p2367
(dp2368
g6
S'Phthalocyanine'
p2369
sg8
S'CuCl16Pc/L'
p2370
sg10
S'aqueous'
p2371
sg12
F0.01096478196143185
sg13
S'Raja'
p2372
sg15
S'10.1016/S0926-860X(97)00105-6'
p2373
sg17
F-1.96
sg18
S'yes'
p2374
sg20
S'Cu'
p2375
sg22
S'None'
p2376
sg24
I273
sg25
S'O2/TBHP'
p2377
sg27
Nsg28
S'heterogeneous'
p2378
sg30
F10.7
sba(iexpclass
expclass
p2379
(dp2380
g6
S'Phthalocyanine'
p2381
sg8
S'CoCl16Pc/FAU-X'
p2382
sg10
S'aqueous'
p2383
sg12
F0.028183829312644536
sg13
S'Raja'
p2384
sg15
S'10.1016/S0926-860X(97)00105-7'
p2385
sg17
F-1.55
sg18
S'yes'
p2386
sg20
S'Co'
p2387
sg22
S'None'
p2388
sg24
I273
sg25
S'O2/TBHP'
p2389
sg27
Nsg28
S'heterogeneous'
p2390
sg30
F12.5
sba(iexpclass
expclass
p2391
(dp2392
g6
S'Phthalocyanine'
p2393
sg8
S'FeCl16Pc/FAU-X'
p2394
sg10
S'aqueous'
p2395
sg12
F0.04897788193684462
sg13
S'Raja'
p2396
sg15
S'10.1016/S0926-860X(97)00105-8'
p2397
sg17
F-1.31
sg18
S'yes'
p2398
sg20
S'Fe'
p2399
sg22
S'None'
p2400
sg24
I273
sg25
S'O2/TBHP'
p2401
sg27
Nsg28
S'heterogeneous'
p2402
sg30
F52.6
sba(iexpclass
expclass
p2403
(dp2404
g6
S'Oxide'
p2405
sg8
S'H4PV1Mo11O40'
p2406
sg10
S'aqueous'
p2407
sg12
F0.046773514128719815
sg13
S'Seki'
p2408
sg15
S'10.1021/jp000406y'
p2409
sg17
F-1.33
sg18
S'yes'
p2410
sg20
S'Mo'
p2411
sg22
S'None'
p2412
sg24
I353
sg25
S'H2O2'
p2413
sg27
Nsg28
S'homogeneous'
p2414
sg30
F1.0
sba(iexpclass
expclass
p2415
(dp2416
g6
S'Oxide'
p2417
sg8
S'H4PV1Mo11O40'
p2418
sg10
S'aqueous'
p2419
sg12
F0.0004365158322401661
sg13
S'Seki'
p2420
sg15
S'10.1021/jp000406y'
p2421
sg17
F-3.36
sg18
S'yes'
p2422
sg20
S'Mo'
p2423
sg22
S'None'
p2424
sg24
I353
sg25
S'H2O2'
p2425
sg27
Nsg28
S'homogeneous'
p2426
sg30
F99.12
sba(iexpclass
expclass
p2427
(dp2428
g6
S'Oxide'
p2429
sg8
S'H4PV1Mo11O40'
p2430
sg10
S'aqueous'
p2431
sg12
F0.009120108393559097
sg13
S'Seki'
p2432
sg15
S'10.1021/jp000406y'
p2433
sg17
F-2.04
sg18
S'yes'
p2434
sg20
S'Mo'
p2435
sg22
S'None'
p2436
sg24
I353
sg25
S'H2O2'
p2437
sg27
Nsg28
S'homogeneous'
p2438
sg30
F44.79
sba(iexpclass
expclass
p2439
(dp2440
g6
S'Oxide'
p2441
sg8
S'H4PV1Mo11O40'
p2442
sg10
S'aqueous'
p2443
sg12
F0.0162181009735893
sg13
S'Seki'
p2444
sg15
S'10.1021/jp000406y'
p2445
sg17
F-1.79
sg18
S'yes'
p2446
sg20
S'Mo'
p2447
sg22
S'None'
p2448
sg24
I353
sg25
S'H2O2'
p2449
sg27
Nsg28
S'homogeneous'
p2450
sg30
F23.2
sba(iexpclass
expclass
p2451
(dp2452
g6
S'Oxide'
p2453
sg8
S'H4PV1Mo11O40'
p2454
sg10
S'aqueous'
p2455
sg12
F0.019054607179632473
sg13
S'Seki'
p2456
sg15
S'10.1021/jp000406y'
p2457
sg17
F-1.72
sg18
S'yes'
p2458
sg20
S'Mo'
p2459
sg22
S'None'
p2460
sg24
I353
sg25
S'H2O2'
p2461
sg27
Nsg28
S'homogeneous'
p2462
sg30
F18.21
sba(iexpclass
expclass
p2463
(dp2464
g6
S'Oxide'
p2465
sg8
S'H4PV1Mo11O40'
p2466
sg10
S'aqueous'
p2467
sg12
F0.02187761623949553
sg13
S'Seki'
p2468
sg15
S'10.1021/jp000406y'
p2469
sg17
F-1.66
sg18
S'yes'
p2470
sg20
S'Mo'
p2471
sg22
S'None'
p2472
sg24
I353
sg25
S'H2O2'
p2473
sg27
Nsg28
S'homogeneous'
p2474
sg30
F14.54
sba(iexpclass
expclass
p2475
(dp2476
g6
S'Oxide'
p2477
sg8
S'H4PV1Mo11O40'
p2478
sg10
S'aqueous'
p2479
sg12
F0.025703957827688632
sg13
S'Seki'
p2480
sg15
S'10.1021/jp000406y'
p2481
sg17
F-1.59
sg18
S'yes'
p2482
sg20
S'Mo'
p2483
sg22
S'None'
p2484
sg24
I353
sg25
S'H2O2'
p2485
sg27
Nsg28
S'homogeneous'
p2486
sg30
F11.89
sba(iexpclass
expclass
p2487
(dp2488
g6
S'Phosphate'
p2489
sg8
S'APO-5'
p2490
sg10
S'gas'
p2491
sg12
F0.01513561248436208
sg13
S'Wang'
p2492
sg15
S'10.1006/jcat.1995.1208'
p2493
sg17
F-1.82
sg18
S'yes'
p2494
sg20
S'Fe'
p2495
sg22
S'None'
p2496
sg24
I673
sg25
S'O2/H2'
p2497
sg27
Nsg28
S'heterogeneous'
p2498
sg30
F2.5
sba(iexpclass
expclass
p2499
(dp2500
g6
S'Phosphate'
p2501
sg8
S'PO4'
p2502
sg10
S'gas'
p2503
sg12
F0.0025118864315095794
sg13
S'Wang'
p2504
sg15
S'10.1006/jcat.1995.1208'
p2505
sg17
F-2.6
sg18
S'yes'
p2506
sg20
S'Fe'
p2507
sg22
S'None'
p2508
sg24
I673
sg25
S'O2/H2'
p2509
sg27
Nsg28
S'heterogeneous'
p2510
sg30
F21.0
sba(iexpclass
expclass
p2511
(dp2512
g6
S'Phosphate'
p2513
sg8
S'PO4'
p2514
sg10
S'gas'
p2515
sg12
F0.006025595860743574
sg13
S'Wang'
p2516
sg15
S'10.1006/jcat.1995.1208'
p2517
sg17
F-2.22
sg18
S'yes'
p2518
sg20
S'Fe'
p2519
sg22
S'None'
p2520
sg24
I673
sg25
S'O2/H2'
p2521
sg27
Nsg28
S'heterogeneous'
p2522
sg30
F24.0
sba(iexpclass
expclass
p2523
(dp2524
g6
S'Phosphate'
p2525
sg8
S'PO4'
p2526
sg10
S'gas'
p2527
sg12
F0.00015848931924611142
sg13
S'Wang'
p2528
sg15
S'10.1006/jcat.1995.1208'
p2529
sg17
F-3.8
sg18
S'yes'
p2530
sg20
S'Fe'
p2531
sg22
S'None'
p2532
sg24
I633
sg25
S'O2/H2'
p2533
sg27
Nsg28
S'heterogeneous'
p2534
sg30
F77.92
sba(iexpclass
expclass
p2535
(dp2536
g6
S'Phosphate'
p2537
sg8
S'PO4'
p2538
sg10
S'gas'
p2539
sg12
F0.0003467368504525317
sg13
S'Wang'
p2540
sg15
S'10.1006/jcat.1995.1208'
p2541
sg17
F-3.46
sg18
S'yes'
p2542
sg20
S'Fe'
p2543
sg22
S'None'
p2544
sg24
I648
sg25
S'O2/H2'
p2545
sg27
Nsg28
S'heterogeneous'
p2546
sg30
F67.16
sba(iexpclass
expclass
p2547
(dp2548
g6
S'Phosphate'
p2549
sg8
S'PO4'
p2550
sg10
S'gas'
p2551
sg12
F0.0020417379446695297
sg13
S'Wang'
p2552
sg15
S'10.1006/jcat.1995.1208'
p2553
sg17
F-2.69
sg18
S'yes'
p2554
sg20
S'Fe'
p2555
sg22
S'None'
p2556
sg24
I690
sg25
S'O2/H2'
p2557
sg27
Nsg28
S'heterogeneous'
p2558
sg30
F34.85
sba(iexpclass
expclass
p2559
(dp2560
g6
S'Phosphate'
p2561
sg8
S'PO4'
p2562
sg10
S'gas'
p2563
sg12
F0.005370317963702527
sg13
S'Wang'
p2564
sg15
S'10.1006/jcat.1995.1208'
p2565
sg17
F-2.27
sg18
S'yes'
p2566
sg20
S'Fe'
p2567
sg22
S'None'
p2568
sg24
I710
sg25
S'O2/H2'
p2569
sg27
Nsg28
S'heterogeneous'
p2570
sg30
F25.54
sba(iexpclass
expclass
p2571
(dp2572
g6
S'Phosphate'
p2573
sg8
S'PO4'
p2574
sg10
S'gas'
p2575
sg12
F0.008709635899560805
sg13
S'Wang'
p2576
sg15
S'10.1006/jcat.1995.1208'
p2577
sg17
F-2.06
sg18
S'yes'
p2578
sg20
S'Fe'
p2579
sg22
S'None'
p2580
sg24
I717
sg25
S'O2/H2'
p2581
sg27
Nsg28
S'heterogeneous'
p2582
sg30
F20.86
sba(iexpclass
expclass
p2583
(dp2584
g6
S'Phosphate'
p2585
sg8
S'PO4'
p2586
sg10
S'gas'
p2587
sg12
F0.01096478196143185
sg13
S'Wang'
p2588
sg15
S'10.1006/jcat.1995.1208'
p2589
sg17
F-1.96
sg18
S'yes'
p2590
sg20
S'Fe'
p2591
sg22
S'None'
p2592
sg24
I723
sg25
S'O2/H2'
p2593
sg27
Nsg28
S'heterogeneous'
p2594
sg30
F18.6
sba(iexpclass
expclass
p2595
(dp2596
g6
S'Phosphate'
p2597
sg8
S'PO4'
p2598
sg10
S'gas'
p2599
sg12
F0.0007585775750291835
sg13
S'Wang'
p2600
sg15
S'10.1006/jcat.1995.1208'
p2601
sg17
F-3.12
sg18
S'yes'
p2602
sg20
S'Fe'
p2603
sg22
S'None'
p2604
sg24
I666
sg25
S'O2/H2'
p2605
sg27
Nsg28
S'heterogeneous'
p2606
sg30
F49.53
sba(iexpclass
expclass
p2607
(dp2608
g6
S'Phosphate'
p2609
sg8
S'PO4'
p2610
sg10
S'gas'
p2611
sg12
F0.0010232929922807535
sg13
S'Wang'
p2612
sg15
S'10.1039/Ft9959103953'
p2613
sg17
F-2.99
sg18
S'no'
p2614
sg20
S'Fe'
p2615
sg22
S'None'
p2616
sg24
I625
sg25
S'N2O'
p2617
sg27
Nsg28
S'heterogeneous'
p2618
sg30
F80.01
sba(iexpclass
expclass
p2619
(dp2620
g6
S'Phosphate'
p2621
sg8
S'PO4'
p2622
sg10
S'gas'
p2623
sg12
F0.002187761623949552
sg13
S'Wang'
p2624
sg15
S'10.1039/Ft9959103953'
p2625
sg17
F-2.66
sg18
S'no'
p2626
sg20
S'Fe'
p2627
sg22
S'None'
p2628
sg24
I650
sg25
S'N2O'
p2629
sg27
Nsg28
S'heterogeneous'
p2630
sg30
F64.5
sba(iexpclass
expclass
p2631
(dp2632
g6
S'Phosphate'
p2633
sg8
S'PO4'
p2634
sg10
S'gas'
p2635
sg12
F0.007585775750291836
sg13
S'Wang'
p2636
sg15
S'10.1039/Ft9959103953'
p2637
sg17
F-2.12
sg18
S'no'
p2638
sg20
S'Fe'
p2639
sg22
S'None'
p2640
sg24
I674
sg25
S'N2O'
p2641
sg27
Nsg28
S'heterogeneous'
p2642
sg30
F40.03
sba(iexpclass
expclass
p2643
(dp2644
g6
S'Phosphate'
p2645
sg8
S'PO4'
p2646
sg10
S'gas'
p2647
sg12
F0.021379620895022326
sg13
S'Wang'
p2648
sg15
S'10.1039/Ft9959103953'
p2649
sg17
F-1.67
sg18
S'no'
p2650
sg20
S'Fe'
p2651
sg22
S'None'
p2652
sg24
I699
sg25
S'N2O'
p2653
sg27
Nsg28
S'heterogeneous'
p2654
sg30
F25.0
sba(iexpclass
expclass
p2655
(dp2656
g6
S'Phosphate'
p2657
sg8
S'PO4'
p2658
sg10
S'gas'
p2659
sg12
F0.06760829753919818
sg13
S'Wang'
p2660
sg15
S'10.1039/Ft9959103953'
p2661
sg17
F-1.17
sg18
S'yes'
p2662
sg20
S'Fe'
p2663
sg22
S'None'
p2664
sg24
I723
sg25
S'N2O'
p2665
sg27
Nsg28
S'heterogeneous'
p2666
sg30
F16.82
sba(iexpclass
expclass
p2667
(dp2668
g6
S'Phosphate'
p2669
sg8
S'PO4'
p2670
sg10
S'gas'
p2671
sg12
F0.0022908676527677724
sg13
S'Wang'
p2672
sg15
S'10.1039/Ft9959103953'
p2673
sg17
F-2.64
sg18
S'yes'
p2674
sg20
S'Fe'
p2675
sg22
S'None'
p2676
sg24
I648
sg25
S'N2O'
p2677
sg27
Nsg28
S'heterogeneous'
p2678
sg30
F52.09
sba(iexpclass
expclass
p2679
(dp2680
g6
S'Phosphate'
p2681
sg8
S'PO4'
p2682
sg10
S'gas'
p2683
sg12
F0.005011872336272725
sg13
S'Wang'
p2684
sg15
S'10.1039/Ft9959103953'
p2685
sg17
F-2.3
sg18
S'yes'
p2686
sg20
S'Fe'
p2687
sg22
S'None'
p2688
sg24
I648
sg25
S'N2O'
p2689
sg27
Nsg28
S'heterogeneous'
p2690
sg30
F48.74
sba(iexpclass
expclass
p2691
(dp2692
g6
S'Phosphate'
p2693
sg8
S'PO4'
p2694
sg10
S'gas'
p2695
sg12
F0.006918309709189363
sg13
S'Wang'
p2696
sg15
S'10.1039/Ft9959103953'
p2697
sg17
F-2.16
sg18
S'yes'
p2698
sg20
S'Fe'
p2699
sg22
S'None'
p2700
sg24
I648
sg25
S'N2O'
p2701
sg27
Nsg28
S'heterogeneous'
p2702
sg30
F45.4
sba(iexpclass
expclass
p2703
(dp2704
g6
S'Phosphate'
p2705
sg8
S'PO4'
p2706
sg10
S'gas'
p2707
sg12
F0.008511380382023767
sg13
S'Wang'
p2708
sg15
S'10.1039/Ft9959103953'
p2709
sg17
F-2.07
sg18
S'yes'
p2710
sg20
S'Fe'
p2711
sg22
S'None'
p2712
sg24
I648
sg25
S'N2O'
p2713
sg27
Nsg28
S'heterogeneous'
p2714
sg30
F46.88
sba(iexpclass
expclass
p2715
(dp2716
g6
S'Phosphate'
p2717
sg8
S'PO4'
p2718
sg10
S'gas'
p2719
sg12
F0.007413102413009177
sg13
S'Wang'
p2720
sg15
S'10.1039/Ft9959103953'
p2721
sg17
F-2.13
sg18
S'yes'
p2722
sg20
S'Fe'
p2723
sg22
S'None'
p2724
sg24
I648
sg25
S'N2O'
p2725
sg27
Nsg28
S'heterogeneous'
p2726
sg30
F44.37
sba(iexpclass
expclass
p2727
(dp2728
g6
S'Phosphate'
p2729
sg8
S'PO4'
p2730
sg10
S'gas'
p2731
sg12
F0.006025595860743574
sg13
S'Wang'
p2732
sg15
S'10.1039/Ft9959103953'
p2733
sg17
F-2.22
sg18
S'yes'
p2734
sg20
S'Fe'
p2735
sg22
S'None'
p2736
sg24
I648
sg25
S'N2O'
p2737
sg27
Nsg28
S'heterogeneous'
p2738
sg30
F42.76
sba(iexpclass
expclass
p2739
(dp2740
g6
S'Oxide'
p2741
sg8
S'K7PW9Fe2NiO37'
p2742
sg10
S'gas'
p2743
sg12
F0.04073802778041128
sg13
S'Lyons'
p2744
sg15
S'10.1016/S0167-2991(08)61930-8'
p2745
sg17
F-1.39
sg18
S'yes'
p2746
sg20
S'Fe'
p2747
sg22
S'None'
p2748
sg24
I683
sg25
S'O2'
p2749
sg27
Nsg28
S'heterogeneous'
p2750
sg30
F42.0
sba(iexpclass
expclass
p2751
(dp2752
g6
S'Sodalite'
p2753
sg8
S'SOD'
p2754
sg10
S'gas'
p2755
sg12
F0.04570881896148749
sg13
S'Lyons'
p2756
sg15
S'10.1016/S0167-2991(08)61930-8'
p2757
sg17
F-1.34
sg18
S'yes'
p2758
sg20
S'Fe'
p2759
sg22
S'None'
p2760
sg24
I680
sg25
S'O2'
p2761
sg27
Nsg28
S'heterogeneous'
p2762
sg30
F64.0
sba(iexpclass
expclass
p2763
(dp2764
g6
S'Sodalite'
p2765
sg8
S'SOD'
p2766
sg10
S'gas'
p2767
sg12
F0.057543993733715694
sg13
S'Lyons'
p2768
sg15
S'10.1016/S0167-2991(08)61930-8'
p2769
sg17
F-1.24
sg18
S'yes'
p2770
sg20
S'Fe'
p2771
sg22
S'None'
p2772
sg24
I689
sg25
S'O2'
p2773
sg27
Nsg28
S'heterogeneous'
p2774
sg30
F70.0
sba(iexpclass
expclass
p2775
(dp2776
g6
S'Sodalite'
p2777
sg8
S'SOD'
p2778
sg10
S'gas'
p2779
sg12
F0.05370317963702527
sg13
S'Lyons'
p2780
sg15
S'10.1016/S0167-2991(08)61930-8'
p2781
sg17
F-1.27
sg18
S'yes'
p2782
sg20
S'Fe'
p2783
sg22
S'None'
p2784
sg24
I691
sg25
S'O2'
p2785
sg27
Nsg28
S'heterogeneous'
p2786
sg30
F68.0
sba(iexpclass
expclass
p2787
(dp2788
g6
S'Sodalite'
p2789
sg8
S'SOD'
p2790
sg10
S'gas'
p2791
sg12
F0.05370317963702527
sg13
S'Lyons'
p2792
sg15
S'10.1016/S0167-2991(08)61930-8'
p2793
sg17
F-1.27
sg18
S'yes'
p2794
sg20
S'Fe'
p2795
sg22
S'None'
p2796
sg24
I695
sg25
S'O2'
p2797
sg27
Nsg28
S'heterogeneous'
p2798
sg30
F65.0
sba(iexpclass
expclass
p2799
(dp2800
g6
S'Sodalite'
p2801
sg8
S'SOD'
p2802
sg10
S'gas'
p2803
sg12
F0.054954087385762455
sg13
S'Lyons'
p2804
sg15
S'10.1016/S0167-2991(08)61930-8'
p2805
sg17
F-1.26
sg18
S'yes'
p2806
sg20
S'Fe'
p2807
sg22
S'None'
p2808
sg24
I705
sg25
S'O2'
p2809
sg27
Nsg28
S'heterogeneous'
p2810
sg30
F63.0
sba(iexpclass
expclass
p2811
(dp2812
g6
S'Sodalite'
p2813
sg8
S'SOD'
p2814
sg10
S'gas'
p2815
sg12
F0.06165950018614822
sg13
S'Lyons'
p2816
sg15
S'10.1016/S0167-2991(08)61930-8'
p2817
sg17
F-1.21
sg18
S'yes'
p2818
sg20
S'Fe'
p2819
sg22
S'None'
p2820
sg24
I715
sg25
S'O2'
p2821
sg27
Nsg28
S'heterogeneous'
p2822
sg30
F64.0
sba(iexpclass
expclass
p2823
(dp2824
g6
S'Sodalite'
p2825
sg8
S'SOD'
p2826
sg10
S'gas'
p2827
sg12
F0.001995262314968879
sg13
S'Lyons'
p2828
sg15
S'10.1016/S0167-2991(08)61930-8'
p2829
sg17
F-2.7
sg18
S'yes'
p2830
sg20
S'Fe'
p2831
sg22
S'None'
p2832
sg24
I693
sg25
S'O2'
p2833
sg27
Nsg28
S'heterogeneous'
p2834
sg30
F27.0
sba(iexpclass
expclass
p2835
(dp2836
g6
S'Sodalite'
p2837
sg8
S'hydroxysodalite'
p2838
sg10
S'gas'
p2839
sg12
F0.003019951720402016
sg13
S'Lyons'
p2840
sg15
S'10.1016/S0167-2991(08)61930-8'
p2841
sg17
F-2.52
sg18
S'yes'
p2842
sg20
S'Fe'
p2843
sg22
S'None'
p2844
sg24
I703
sg25
S'O2'
p2845
sg27
Nsg28
S'heterogeneous'
p2846
sg30
F9.0
sba(iexpclass
expclass
p2847
(dp2848
g6
S'Sodalite'
p2849
sg8
S'hydroxysodalite'
p2850
sg10
S'gas'
p2851
sg12
F0.05128613839913648
sg13
S'Lyons'
p2852
sg15
S'10.1016/S0167-2991(08)61930-8'
p2853
sg17
F-1.29
sg18
S'yes'
p2854
sg20
S'Fe'
p2855
sg22
S'None'
p2856
sg24
I718
sg25
S'O2'
p2857
sg27
Nsg28
S'heterogeneous'
p2858
sg30
F24.0
sba(iexpclass
expclass
p2859
(dp2860
g6
S'Sodalite'
p2861
sg8
S'hydroxysodalite'
p2862
sg10
S'gas'
p2863
sg12
F0.05128613839913648
sg13
S'Lyons'
p2864
sg15
S'10.1016/S0167-2991(08)61930-8'
p2865
sg17
F-1.29
sg18
S'yes'
p2866
sg20
S'Fe'
p2867
sg22
S'None'
p2868
sg24
I704
sg25
S'O2'
p2869
sg27
Nsg28
S'heterogeneous'
p2870
sg30
F26.0
sba(iexpclass
expclass
p2871
(dp2872
g6
S'Oxide'
p2873
sg8
S'SiO2'
p2874
sg10
S'gas'
p2875
sg12
F0.005011872336272725
sg13
S'Lyons'
p2876
sg15
S'10.1016/S0167-2991(08)61930-8'
p2877
sg17
F-2.3
sg18
S'no'
p2878
sg20
S'Fe'
p2879
sg22
S'None'
p2880
sg24
I671
sg25
S'O2'
p2881
sg27
Nsg28
S'heterogeneous'
p2882
sg30
F10.0
sba(iexpclass
expclass
p2883
(dp2884
g6
S'Oxide'
p2885
sg8
S'SiO2'
p2886
sg10
S'gas'
p2887
sg12
F0.012022644346174132
sg13
S'Lyons'
p2888
sg15
S'10.1016/S0167-2991(08)61930-8'
p2889
sg17
F-1.92
sg18
S'no'
p2890
sg20
S'Fe'
p2891
sg22
S'None'
p2892
sg24
I682
sg25
S'O2'
p2893
sg27
Nsg28
S'heterogeneous'
p2894
sg30
F18.0
sba(iexpclass
expclass
p2895
(dp2896
g6
S'Oxide'
p2897
sg8
S'SiO2'
p2898
sg10
S'gas'
p2899
sg12
F0.026915348039269153
sg13
S'Lyons'
p2900
sg15
S'10.1016/S0167-2991(08)61930-8'
p2901
sg17
F-1.57
sg18
S'no'
p2902
sg20
S'Fe'
p2903
sg22
S'None'
p2904
sg24
I693
sg25
S'O2'
p2905
sg27
Nsg28
S'heterogeneous'
p2906
sg30
F20.0
sba(iexpclass
expclass
p2907
(dp2908
g6
S'Oxide'
p2909
sg8
S'SiO2'
p2910
sg10
S'gas'
p2911
sg12
F0.03890451449942807
sg13
S'Lyons'
p2912
sg15
S'10.1016/S0167-2991(08)61930-8'
p2913
sg17
F-1.41
sg18
S'no'
p2914
sg20
S'Fe'
p2915
sg22
S'None'
p2916
sg24
I701
sg25
S'O2'
p2917
sg27
Nsg28
S'heterogeneous'
p2918
sg30
F23.0
sba(iexpclass
expclass
p2919
(dp2920
g6
g7
sg8
S'ZEOL'
p2921
sg10
S'gas'
p2922
sg12
F0.023988329190194897
sg13
S'Lyons'
p2923
sg15
S'10.1016/S0167-2991(08)61930-8'
p2924
sg17
F-1.62
sg18
S'yes'
p2925
sg20
S'Fe'
p2926
sg22
S'None'
p2927
sg24
I673
sg25
S'O2'
p2928
sg27
Nsg28
S'heterogeneous'
p2929
sg30
F33.0
sba(iexpclass
expclass
p2930
(dp2931
g6
g7
sg8
S'ZEOL'
p2932
sg10
S'gas'
p2933
sg12
F0.038018939632056124
sg13
S'Lyons'
p2934
sg15
S'10.1016/S0167-2991(08)61930-8'
p2935
sg17
F-1.42
sg18
S'yes'
p2936
sg20
S'Fe'
p2937
sg22
S'None'
p2938
sg24
I703
sg25
S'O2'
p2939
sg27
Nsg28
S'heterogeneous'
p2940
sg30
F34.0
sba(iexpclass
expclass
p2941
(dp2942
g6
S'Oxide'
p2943
sg8
S'MoO3/SiO2'
p2944
sg10
S'gas'
p2945
sg12
F0.0006025595860743575
sg13
S'Khan'
p2946
sg15
S'10.1016/0021-9517(85)90340-9'
p2947
sg17
F-3.22
sg18
S'no'
p2948
sg20
S'Mo'
p2949
sg22
S'None'
p2950
sg24
I753
sg25
S'N2O'
p2951
sg27
Nsg28
S'heterogeneous'
p2952
sg30
F96.0
sba(iexpclass
expclass
p2953
(dp2954
g6
S'Oxide'
p2955
sg8
S'MoO3/SiO2'
p2956
sg10
S'gas'
p2957
sg12
F0.001
sg13
S'Khan'
p2958
sg15
S'10.1016/0021-9517(85)90340-9'
p2959
sg17
F-3.0
sg18
S'no'
p2960
sg20
S'Mo'
p2961
sg22
S'None'
p2962
sg24
I763
sg25
S'N2O'
p2963
sg27
Nsg28
S'heterogeneous'
p2964
sg30
F96.0
sba(iexpclass
expclass
p2965
(dp2966
g6
S'Oxide'
p2967
sg8
S'MoO3/SiO2'
p2968
sg10
S'gas'
p2969
sg12
F0.0016982436524617442
sg13
S'Khan'
p2970
sg15
S'10.1016/0021-9517(85)90340-9'
p2971
sg17
F-2.77
sg18
S'no'
p2972
sg20
S'Mo'
p2973
sg22
S'None'
p2974
sg24
I773
sg25
S'N2O'
p2975
sg27
Nsg28
S'heterogeneous'
p2976
sg30
F85.0
sba(iexpclass
expclass
p2977
(dp2978
g6
S'Oxide'
p2979
sg8
S'MoO3/SiO2'
p2980
sg10
S'gas'
p2981
sg12
F0.002187761623949552
sg13
S'Khan'
p2982
sg15
S'10.1016/0021-9517(85)90340-9'
p2983
sg17
F-2.66
sg18
S'no'
p2984
sg20
S'Mo'
p2985
sg22
S'None'
p2986
sg24
I783
sg25
S'N2O'
p2987
sg27
Nsg28
S'heterogeneous'
p2988
sg30
F72.0
sba(iexpclass
expclass
p2989
(dp2990
g6
S'Oxide'
p2991
sg8
S'MoO3/SiO2'
p2992
sg10
S'gas'
p2993
sg12
F0.0025703957827688645
sg13
S'Khan'
p2994
sg15
S'10.1016/0021-9517(85)90340-9'
p2995
sg17
F-2.59
sg18
S'no'
p2996
sg20
S'Mo'
p2997
sg22
S'None'
p2998
sg24
I793
sg25
S'N2O'
p2999
sg27
Nsg28
S'heterogeneous'
p3000
sg30
F66.0
sba(iexpclass
expclass
p3001
(dp3002
g6
S'Oxide'
p3003
sg8
S'MoO3/SiO2'
p3004
sg10
S'gas'
p3005
sg12
F0.003090295432513592
sg13
S'Khan'
p3006
sg15
S'10.1016/0021-9517(85)90340-9'
p3007
sg17
F-2.51
sg18
S'no'
p3008
sg20
S'Mo'
p3009
sg22
S'None'
p3010
sg24
I803
sg25
S'N2O'
p3011
sg27
Nsg28
S'heterogeneous'
p3012
sg30
F59.0
sba(iexpclass
expclass
p3013
(dp3014
g6
S'Oxide'
p3015
sg8
S'MoO3/SiO2'
p3016
sg10
S'gas'
p3017
sg12
F0.004677351412871981
sg13
S'Khan'
p3018
sg15
S'10.1016/0021-9517(85)90340-9'
p3019
sg17
F-2.33
sg18
S'no'
p3020
sg20
S'Mo'
p3021
sg22
S'None'
p3022
sg24
I813
sg25
S'N2O'
p3023
sg27
Nsg28
S'heterogeneous'
p3024
sg30
F54.0
sba(iexpclass
expclass
p3025
(dp3026
g6
S'Oxide'
p3027
sg8
S'MoO3/SiO2'
p3028
sg10
S'gas'
p3029
sg12
F0.00707945784384138
sg13
S'Khan'
p3030
sg15
S'10.1016/0021-9517(85)90340-9'
p3031
sg17
F-2.15
sg18
S'no'
p3032
sg20
S'Mo'
p3033
sg22
S'None'
p3034
sg24
I823
sg25
S'N2O'
p3035
sg27
Nsg28
S'heterogeneous'
p3036
sg30
F46.0
sba(iexpclass
expclass
p3037
(dp3038
g6
S'Oxide'
p3039
sg8
S'MoO3/SiO2'
p3040
sg10
S'gas'
p3041
sg12
F0.012022644346174132
sg13
S'Khan'
p3042
sg15
S'10.1016/0021-9517(85)90340-9'
p3043
sg17
F-1.92
sg18
S'no'
p3044
sg20
S'Mo'
p3045
sg22
S'None'
p3046
sg24
I843
sg25
S'N2O'
p3047
sg27
Nsg28
S'heterogeneous'
p3048
sg30
F18.0
sba(iexpclass
expclass
p3049
(dp3050
g6
S'Oxide'
p3051
sg8
S'MoO3/SiO2'
p3052
sg10
S'gas'
p3053
sg12
F0.028840315031266057
sg13
S'Khan'
p3054
sg15
S'10.1016/0021-9517(85)90340-9'
p3055
sg17
F-1.54
sg18
S'no'
p3056
sg20
S'Mo'
p3057
sg22
S'None'
p3058
sg24
I843
sg25
S'N2O'
p3059
sg27
Nsg28
S'heterogeneous'
p3060
sg30
F13.8
sba(iexpclass
expclass
p3061
(dp3062
g6
S'Oxide'
p3063
sg8
S'MoO3/SiO2'
p3064
sg10
S'gas'
p3065
sg12
F0.025703957827688632
sg13
S'Khan'
p3066
sg15
S'10.1016/0021-9517(85)90340-9'
p3067
sg17
F-1.59
sg18
S'no'
p3068
sg20
S'Mo'
p3069
sg22
S'None'
p3070
sg24
I863
sg25
S'N2O'
p3071
sg27
Nsg28
S'heterogeneous'
p3072
sg30
F16.0
sba(iexpclass
expclass
p3073
(dp3074
g6
S'Gas-phase'
p3075
sg8
S'-'
p3076
sg10
S'gas'
p3077
sg12
F0.013803842646028845
sg13
S'Casey'
p3078
sg15
S'10.1021/ie00029a008'
p3079
sg17
F-1.86
sg18
S'yes'
p3080
sg20
g1480
sg22
S'Radical'
p3081
sg24
I673
sg25
S'O2'
p3082
sg27
Nsg28
S'heterogeneous'
p3083
sg30
F44.07
sba(iexpclass
expclass
p3084
(dp3085
g6
S'Gas-phase'
p3086
sg8
g3076
sg10
S'gas'
p3087
sg12
F0.024547089156850298
sg13
S'Casey'
p3088
sg15
S'10.1021/ie00029a008'
p3089
sg17
F-1.61
sg18
S'yes'
p3090
sg20
g1480
sg22
S'Radical'
p3091
sg24
I673
sg25
S'O2'
p3092
sg27
Nsg28
S'heterogeneous'
p3093
sg30
F32.42
sba(iexpclass
expclass
p3094
(dp3095
g6
S'Gas-phase'
p3096
sg8
g3076
sg10
S'gas'
p3097
sg12
F0.046773514128719815
sg13
S'Casey'
p3098
sg15
S'10.1021/ie00029a008'
p3099
sg17
F-1.33
sg18
S'yes'
p3100
sg20
g1480
sg22
S'Radical'
p3101
sg24
I673
sg25
S'O2'
p3102
sg27
Nsg28
S'heterogeneous'
p3103
sg30
F22.2
sba(iexpclass
expclass
p3104
(dp3105
g6
S'Gas-phase'
p3106
sg8
g3076
sg10
S'gas'
p3107
sg12
F0.0812830516164099
sg13
S'Casey'
p3108
sg15
S'10.1021/ie00029a008'
p3109
sg17
F-1.09
sg18
S'yes'
p3110
sg20
g1480
sg22
S'Radical'
p3111
sg24
I673
sg25
S'O2'
p3112
sg27
Nsg28
S'heterogeneous'
p3113
sg30
F15.04
sba(iexpclass
expclass
p3114
(dp3115
g6
S'Gas-phase'
p3116
sg8
g3076
sg10
S'gas'
p3117
sg12
F0.007585775750291836
sg13
S'Chun'
p3118
sg15
S'10.1021/ie00017a004'
p3119
sg17
F-2.12
sg18
S'yes'
p3120
sg20
g1480
sg22
S'Radical'
p3121
sg24
I682
sg25
S'O2'
p3122
sg27
Nsg28
S'heterogeneous'
p3123
sg30
F54.18
sba(iexpclass
expclass
p3124
(dp3125
g6
S'Gas-phase'
p3126
sg8
g3076
sg10
S'gas'
p3127
sg12
F0.014791083881682071
sg13
S'Chun'
p3128
sg15
S'10.1021/ie00017a004'
p3129
sg17
F-1.83
sg18
S'yes'
p3130
sg20
g1480
sg22
S'Radical'
p3131
sg24
I691
sg25
S'O2'
p3132
sg27
Nsg28
S'heterogeneous'
p3133
sg30
F51.17
sba(iexpclass
expclass
p3134
(dp3135
g6
S'Gas-phase'
p3136
sg8
g3076
sg10
S'gas'
p3137
sg12
F0.019498445997580455
sg13
S'Chun'
p3138
sg15
S'10.1021/ie00017a004'
p3139
sg17
F-1.71
sg18
S'yes'
p3140
sg20
g1480
sg22
S'Radical'
p3141
sg24
I696
sg25
S'O2'
p3142
sg27
Nsg28
S'heterogeneous'
p3143
sg30
F50.9
sba(iexpclass
expclass
p3144
(dp3145
g6
S'Gas-phase'
p3146
sg8
g3076
sg10
S'gas'
p3147
sg12
F0.03715352290971726
sg13
S'Chun'
p3148
sg15
S'10.1021/ie00017a004'
p3149
sg17
F-1.43
sg18
S'yes'
p3150
sg20
g1480
sg22
S'Radical'
p3151
sg24
I708
sg25
S'O2'
p3152
sg27
Nsg28
S'heterogeneous'
p3153
sg30
F47.62
sba(iexpclass
expclass
p3154
(dp3155
g6
S'Gas-phase'
p3156
sg8
g3076
sg10
S'gas'
p3157
sg12
F0.04073802778041128
sg13
S'Chun'
p3158
sg15
S'10.1021/ie00017a004'
p3159
sg17
F-1.39
sg18
S'yes'
p3160
sg20
g1480
sg22
S'Radical'
p3161
sg24
I714
sg25
S'O2'
p3162
sg27
Nsg28
S'heterogeneous'
p3163
sg30
F38.94
sba(iexpclass
expclass
p3164
(dp3165
g6
S'Gas-phase'
p3166
sg8
g3076
sg10
S'gas'
p3167
sg12
F0.04168693834703355
sg13
S'Chun'
p3168
sg15
S'10.1021/ie00017a004'
p3169
sg17
F-1.38
sg18
S'yes'
p3170
sg20
g1480
sg22
S'Radical'
p3171
sg24
I732
sg25
S'O2'
p3172
sg27
Nsg28
S'heterogeneous'
p3173
sg30
F34.32
sba(iexpclass
expclass
p3174
(dp3175
g6
S'Gas-phase'
p3176
sg8
g3076
sg10
S'gas'
p3177
sg12
F0.04073802778041128
sg13
S'Chun'
p3178
sg15
S'10.1021/ie00017a004'
p3179
sg17
F-1.39
sg18
S'yes'
p3180
sg20
g1480
sg22
S'Radical'
p3181
sg24
I742
sg25
S'O2'
p3182
sg27
Nsg28
S'heterogeneous'
p3183
sg30
F33.21
sba(iexpclass
expclass
p3184
(dp3185
g6
S'Gas-phase'
p3186
sg8
g3076
sg10
S'gas'
p3187
sg12
F0.030902954325135904
sg13
S'Foulds'
p3188
sg15
S'10.1021/ie00017a003'
p3189
sg17
F-1.51
sg18
S'yes'
p3190
sg20
g1480
sg22
S'Radical'
p3191
sg24
I663
sg25
S'O2'
p3192
sg27
Nsg28
S'heterogeneous'
p3193
sg30
F47.0
sba(iexpclass
expclass
p3194
(dp3195
g6
S'Gas-phase'
p3196
sg8
g3076
sg10
S'gas'
p3197
sg12
F0.0446683592150963
sg13
S'Foulds'
p3198
sg15
S'10.1021/ie00017a003'
p3199
sg17
F-1.35
sg18
S'yes'
p3200
sg20
g1480
sg22
S'Radical'
p3201
sg24
I668
sg25
S'O2'
p3202
sg27
Nsg28
S'heterogeneous'
p3203
sg30
F37.7
sba(iexpclass
expclass
p3204
(dp3205
g6
S'Gas-phase'
p3206
sg8
g3076
sg10
S'gas'
p3207
sg12
F0.06456542290346556
sg13
S'Foulds'
p3208
sg15
S'10.1021/ie00017a003'
p3209
sg17
F-1.19
sg18
S'yes'
p3210
sg20
g1480
sg22
S'Radical'
p3211
sg24
I673
sg25
S'O2'
p3212
sg27
Nsg28
S'heterogeneous'
p3213
sg30
F28.1
sba(iexpclass
expclass
p3214
(dp3215
g6
S'Gas-phase'
p3216
sg8
g3076
sg10
S'gas'
p3217
sg12
F0.08511380382023763
sg13
S'Foulds'
p3218
sg15
S'10.1021/ie00017a003'
p3219
sg17
F-1.07
sg18
S'yes'
p3220
sg20
g1480
sg22
S'Radical'
p3221
sg24
I673
sg25
S'O2'
p3222
sg27
Nsg28
S'heterogeneous'
p3223
sg30
F23.0
sba(iexpclass
expclass
p3224
(dp3225
g6
S'Gas-phase'
p3226
sg8
g3076
sg10
S'gas'
p3227
sg12
F0.04073802778041128
sg13
S'Foulds'
p3228
sg15
S'10.1021/ie00017a003'
p3229
sg17
F-1.39
sg18
S'yes'
p3230
sg20
g1480
sg22
S'Radical'
p3231
sg24
I693
sg25
S'O2'
p3232
sg27
Nsg28
S'heterogeneous'
p3233
sg30
F27.2
sba(iexpclass
expclass
p3234
(dp3235
g6
S'Gas-phase'
p3236
sg8
g3076
sg10
S'gas'
p3237
sg12
F0.04570881896148749
sg13
S'Foulds'
p3238
sg15
S'10.1021/ie00017a003'
p3239
sg17
F-1.34
sg18
S'yes'
p3240
sg20
g1480
sg22
S'Radical'
p3241
sg24
I648
sg25
S'O2'
p3242
sg27
Nsg28
S'heterogeneous'
p3243
sg30
F33.7
sba(iexpclass
expclass
p3244
(dp3245
g6
S'Gas-phase'
p3246
sg8
g3076
sg10
S'gas'
p3247
sg12
F0.057543993733715694
sg13
S'Foulds'
p3248
sg15
S'10.1021/ie00017a003'
p3249
sg17
F-1.24
sg18
S'yes'
p3250
sg20
g1480
sg22
S'Radical'
p3251
sg24
I677
sg25
S'O2'
p3252
sg27
Nsg28
S'heterogeneous'
p3253
sg30
F36.3
sba(iexpclass
expclass
p3254
(dp3255
g6
S'Gas-phase'
p3256
sg8
g3076
sg10
S'gas'
p3257
sg12
F0.06456542290346556
sg13
S'Foulds'
p3258
sg15
S'10.1021/ie00017a003'
p3259
sg17
F-1.19
sg18
S'yes'
p3260
sg20
g1480
sg22
S'Radical'
p3261
sg24
I675
sg25
S'O2'
p3262
sg27
Nsg28
S'heterogeneous'
p3263
sg30
F33.3
sba(iexpclass
expclass
p3264
(dp3265
g6
S'Gas-phase'
p3266
sg8
g3076
sg10
S'gas'
p3267
sg12
F0.08912509381337455
sg13
S'Foulds'
p3268
sg15
S'10.1021/ie00017a003'
p3269
sg17
F-1.05
sg18
S'yes'
p3270
sg20
g1480
sg22
S'Radical'
p3271
sg24
I668
sg25
S'O2'
p3272
sg27
Nsg28
S'heterogeneous'
p3273
sg30
F23.5
sba(iexpclass
expclass
p3274
(dp3275
g6
S'Gas-phase'
p3276
sg8
g3076
sg10
S'gas'
p3277
sg12
F0.07762471166286916
sg13
S'Foulds'
p3278
sg15
S'10.1021/ie00017a003'
p3279
sg17
F-1.11
sg18
S'yes'
p3280
sg20
g1480
sg22
S'Radical'
p3281
sg24
I678
sg25
S'O2'
p3282
sg27
Nsg28
S'heterogeneous'
p3283
sg30
F17.9
sba(iexpclass
expclass
p3284
(dp3285
g6
S'Gas-phase'
p3286
sg8
g3076
sg10
S'gas'
p3287
sg12
F0.06760829753919818
sg13
S'Foulds'
p3288
sg15
S'10.1021/ie00017a003'
p3289
sg17
F-1.17
sg18
S'yes'
p3290
sg20
g1480
sg22
S'Radical'
p3291
sg24
I658
sg25
S'O2'
p3292
sg27
Nsg28
S'heterogeneous'
p3293
sg30
F23.6
sba(iexpclass
expclass
p3294
(dp3295
g6
S'Oxide'
p3296
sg8
S'Ceria-Zirconia'
p3297
sg10
S'gas'
p3298
sg12
F0.15135612484362082
sg13
S'Okolie'
p3299
sg15
S'10.1002/anie.201704704'
p3300
sg17
F-0.82
sg18
S'no'
p3301
sg20
S'Ni'
p3302
sg22
S'None'
p3303
sg24
I723
sg25
S'O2'
p3304
sg27
Nsg28
S'heterogeneous'
p3305
sg30
F43.0
sba(iexpclass
expclass
p3306
(dp3307
g6
S'Oxide'
p3308
sg8
S'Zirconia'
p3309
sg10
S'aqueous'
p3310
sg12
F1.3803842646028839e-05
sg13
S'Kwon'
p3311
sg15
S'10.1021/jacs.7b11010'
p3312
sg17
F-4.86
sg18
S'yes'
p3313
sg20
S'Rh'
p3314
sg22
S'None'
p3315
sg24
I343
sg25
S'H2O2'
p3316
sg27
Nsg28
S'heterogeneous'
p3317
sg30
F71.0
sba(iexpclass
expclass
p3318
(dp3319
g6
S'Au-Pd'
p3320
sg8
g3076
sg10
S'aqueous'
p3321
sg12
F0.0001412537544622754
sg13
S'Hutchings'
p3322
sg15
S'10.1126/science.aan6515'
p3323
sg17
F-3.85
sg18
S'yes'
p3324
sg20
S'Au-Pd'
p3325
sg22
S'Radical'
p3326
sg24
I323
sg25
S'H2O2/O2'
p3327
sg27
Nsg28
S'heterogeneous'
p3328
sg30
F100.0
sba(iexpclass
expclass
p3329
(dp3330
g6
S'Au-Pd'
p3331
sg8
g3076
sg10
S'aqueous'
p3332
sg12
F0.0003235936569296281
sg13
S'Hutchings'
p3333
sg15
S'10.1126/science.aan6515'
p3334
sg17
F-3.49
sg18
S'yes'
p3335
sg20
S'Au-Pd'
p3336
sg22
S'Radical'
p3337
sg24
I323
sg25
S'H2O2/O2'
p3338
sg27
Nsg28
S'heterogeneous'
p3339
sg30
F97.1
sba(iexpclass
expclass
p3340
(dp3341
g6
S'Au-Pd'
p3342
sg8
g3076
sg10
S'aqueous'
p3343
sg12
F0.0004365158322401661
sg13
S'Hutchings'
p3344
sg15
S'10.1126/science.aan6515'
p3345
sg17
F-3.36
sg18
S'yes'
p3346
sg20
S'Au-Pd'
p3347
sg22
S'Radical'
p3348
sg24
I323
sg25
S'H2O2/O2'
p3349
sg27
Nsg28
S'heterogeneous'
p3350
sg30
F95.19
sba(iexpclass
expclass
p3351
(dp3352
g6
S'Au-Pd'
p3353
sg8
g3076
sg10
S'aqueous'
p3354
sg12
F0.0005754399373371566
sg13
S'Hutchings'
p3355
sg15
S'10.1126/science.aan6515'
p3356
sg17
F-3.24
sg18
S'yes'
p3357
sg20
S'Au-Pd'
p3358
sg22
S'Radical'
p3359
sg24
I323
sg25
S'H2O2/O2'
p3360
sg27
Nsg28
S'heterogeneous'
p3361
sg30
F92.34
sba(iexpclass
expclass
p3362
(dp3363
g6
S'Au-Pd'
p3364
sg8
g3076
sg10
S'aqueous'
p3365
sg12
F0.0006606934480075957
sg13
S'Hutchings'
p3366
sg15
S'10.1126/science.aan6515'
p3367
sg17
F-3.18
sg18
S'yes'
p3368
sg20
S'Au-Pd'
p3369
sg22
S'Radical'
p3370
sg24
I323
sg25
S'H2O2/O2'
p3371
sg27
Nsg28
S'heterogeneous'
p3372
sg30
F91.58
sba(iexpclass
expclass
p3373
(dp3374
g6
S'Au-Pd'
p3375
sg8
g3076
sg10
S'aqueous'
p3376
sg12
F0.0006606934480075957
sg13
S'Hutchings'
p3377
sg15
S'10.1126/science.aan6515'
p3378
sg17
F-3.18
sg18
S'yes'
p3379
sg20
S'Au-Pd'
p3380
sg22
S'Radical'
p3381
sg24
I323
sg25
S'H2O2/O2'
p3382
sg27
Nsg28
S'heterogeneous'
p3383
sg30
F81.75
sba(iexpclass
expclass
p3384
(dp3385
g6
S'Au-Pd'
p3386
sg8
g3076
sg10
S'aqueous'
p3387
sg12
F0.0007943282347242813
sg13
S'Hutchings'
p3388
sg15
S'10.1126/science.aan6515'
p3389
sg17
F-3.1
sg18
S'yes'
p3390
sg20
S'Au-Pd'
p3391
sg22
S'Radical'
p3392
sg24
I323
sg25
S'H2O2/O2'
p3393
sg27
Nsg28
S'heterogeneous'
p3394
sg30
F86.39
sba(iexpclass
expclass
p3395
(dp3396
g6
S'Au-Pd'
p3397
sg8
g3076
sg10
S'aqueous'
p3398
sg12
F0.0008912509381337459
sg13
S'Hutchings'
p3399
sg15
S'10.1126/science.aan6515'
p3400
sg17
F-3.05
sg18
S'yes'
p3401
sg20
S'Au-Pd'
p3402
sg22
S'Radical'
p3403
sg24
I323
sg25
S'H2O2/O2'
p3404
sg27
Nsg28
S'heterogeneous'
p3405
sg30
F84.38
sba(iexpclass
expclass
p3406
(dp3407
g6
S'Au-Pd'
p3408
sg8
g3076
sg10
S'aqueous'
p3409
sg12
F0.001
sg13
S'Hutchings'
p3410
sg15
S'10.1126/science.aan6515'
p3411
sg17
F-3.0
sg18
S'yes'
p3412
sg20
S'Au-Pd'
p3413
sg22
S'Radical'
p3414
sg24
I323
sg25
S'H2O2/O2'
p3415
sg27
Nsg28
S'heterogeneous'
p3416
sg30
F79.86
sba(iexpclass
expclass
p3417
(dp3418
g6
S'Au-Pd'
p3419
sg8
g3076
sg10
S'aqueous'
p3420
sg12
F0.001174897554939529
sg13
S'Hutchings'
p3421
sg15
S'10.1126/science.aan6515'
p3422
sg17
F-2.93
sg18
S'yes'
p3423
sg20
S'Au-Pd'
p3424
sg22
S'Radical'
p3425
sg24
I323
sg25
S'H2O2/O2'
p3426
sg27
Nsg28
S'heterogeneous'
p3427
sg30
F77.56
sba(iexpclass
expclass
p3428
(dp3429
g6
S'MMO'
p3430
sg8
S'MMO'
p3431
sg10
S'aqueous'
p3432
sg12
F0.33884415613920255
sg13
S'Mountfort'
p3433
sg15
S'10.1016/0141-0229(90)90162-J'
p3434
sg17
F-0.47
sg18
S'yes'
p3435
sg20
S'Fe'
p3436
sg22
S'MMO'
p3437
sg24
I303
sg25
S'O2'
p3438
sg27
Nsg28
S'homogeneous'
p3439
sg30
F0.0
sba(iexpclass
expclass
p3440
(dp3441
g6
S'MMO'
p3442
sg8
S'MMO'
p3443
sg10
S'aqueous'
p3444
sg12
F0.08709635899560805
sg13
S'Mountfort'
p3445
sg15
S'10.1016/0141-0229(90)90162-J'
p3446
sg17
F-1.06
sg18
S'yes'
p3447
sg20
S'Fe'
p3448
sg22
S'MMO'
p3449
sg24
I303
sg25
S'O2'
p3450
sg27
Nsg28
S'homogeneous'
p3451
sg30
F36.36
sba(iexpclass
expclass
p3452
(dp3453
g6
S'MMO'
p3454
sg8
S'MMO'
p3455
sg10
S'aqueous'
p3456
sg12
F0.08317637711026708
sg13
S'Mountfort'
p3457
sg15
S'10.1016/0141-0229(90)90162-J'
p3458
sg17
F-1.08
sg18
S'yes'
p3459
sg20
S'Fe'
p3460
sg22
S'MMO'
p3461
sg24
I303
sg25
S'O2'
p3462
sg27
Nsg28
S'homogeneous'
p3463
sg30
F61.37
sba(iexpclass
expclass
p3464
(dp3465
g6
S'MMO'
p3466
sg8
S'MMO'
p3467
sg10
S'aqueous'
p3468
sg12
F0.09120108393559097
sg13
S'Mountfort'
p3469
sg15
S'10.1016/0141-0229(90)90162-J'
p3470
sg17
F-1.04
sg18
S'yes'
p3471
sg20
S'Fe'
p3472
sg22
S'MMO'
p3473
sg24
I303
sg25
S'O2'
p3474
sg27
Nsg28
S'homogeneous'
p3475
sg30
F15.38
sba(iexpclass
expclass
p3476
(dp3477
g6
S'MMO'
p3478
sg8
S'MMO'
p3479
sg10
S'aqueous'
p3480
sg12
F0.33884415613920255
sg13
S'Mountfort'
p3481
sg15
S'10.1016/0141-0229(90)90162-J'
p3482
sg17
F-0.47
sg18
S'yes'
p3483
sg20
S'Fe'
p3484
sg22
S'MMO'
p3485
sg24
I303
sg25
S'O2'
p3486
sg27
Nsg28
S'homogeneous'
p3487
sg30
F0.0
sba(iexpclass
expclass
p3488
(dp3489
g6
S'ZSM-5'
p3490
sg8
S'ZSM-5'
p3491
sg10
S'aqueous'
p3492
sg12
F0.003981071705534973
sg13
S'Shan'
p3493
sg15
S'10.1038/nature24640'
p3494
sg17
F-2.4
sg18
S'yes'
p3495
sg20
S'Rh'
p3496
sg22
S'None'
p3497
sg24
I423
sg25
S'O2/CO'
p3498
sg27
Nsg28
S'heterogeneous'
p3499
sg30
F71.43
sba(iexpclass
expclass
p3500
(dp3501
g6
S'ZSM-5'
p3502
sg8
S'ZSM-5'
p3503
sg10
S'aqueous'
p3504
sg12
F0.005011872336272725
sg13
S'Shan'
p3505
sg15
S'10.1038/nature24640'
p3506
sg17
F-2.3
sg18
S'yes'
p3507
sg20
S'Rh'
p3508
sg22
S'None'
p3509
sg24
I423
sg25
S'O2/CO'
p3510
sg27
Nsg28
S'heterogeneous'
p3511
sg30
F71.09
sba(iexpclass
expclass
p3512
(dp3513
g6
S'ZSM-5'
p3514
sg8
S'ZSM-5'
p3515
sg10
S'aqueous'
p3516
sg12
F0.01412537544622754
sg13
S'Shan'
p3517
sg15
S'10.1038/nature24640'
p3518
sg17
F-1.85
sg18
S'yes'
p3519
sg20
S'Rh'
p3520
sg22
S'None'
p3521
sg24
I423
sg25
S'O2/CO'
p3522
sg27
Nsg28
S'heterogeneous'
p3523
sg30
F73.06
sba(iexpclass
expclass
p3524
(dp3525
g6
S'ZSM-5'
p3526
sg8
S'ZSM-5'
p3527
sg10
S'aqueous'
p3528
sg12
F0.039810717055349734
sg13
S'Shan'
p3529
sg15
S'10.1038/nature24640'
p3530
sg17
F-1.4
sg18
S'yes'
p3531
sg20
S'Rh'
p3532
sg22
S'None'
p3533
sg24
I423
sg25
S'O2/CO'
p3534
sg27
Nsg28
S'heterogeneous'
p3535
sg30
F63.69
sbasb.