(iexpclass
expclasses
p0
(dp1
S'data'
p2
(lp3
(iexpclass
expclass
p4
(dp5
S'cattype'
p6
S'MFI'
p7
sS'rxntype'
p8
S'gas'
p9
sS'conv'
p10
F0.6165950018614822
sS'author'
p11
S'Wood'
p12
sS'DOI'
p13
S'10.1016/j.jcat.2004.04.010'
p14
sS'log_conv'
p15
F-0.21
sS'single_site'
p16
S'yes'
p17
sS'cat'
p18
S'Fe'
p19
sS'shape'
p20
S'o'
p21
sS'tag'
p22
S'None'
p23
sS'T'
p24
I673
sS'oxidant'
p25
S'N2O'
p26
sS'dEa'
p27
NsS'catalysis'
p28
S'heterogeneous'
p29
sS'sel'
p30
F2.0
sS'clr'
p31
S'firebrick'
p32
sS'fill'
p33
S'full'
p34
sba(iexpclass
expclass
p35
(dp36
g6
S'sodalite'
p37
sg8
S'gas'
p38
sg10
F0.038018939632056124
sg11
S'Durante'
p39
sg13
S'US4918249'
p40
sg15
F-1.42
sg16
S'yes'
p41
sg18
S'Fe'
p42
sg20
g21
sg22
S'None'
p43
sg24
I670
sg25
S'O2'
p44
sg27
Nsg28
S'heterogeneous'
p45
sg30
F59.0
sg31
g32
sg33
g34
sba(iexpclass
expclass
p46
(dp47
g6
S'sodalite'
p48
sg8
S'gas'
p49
sg10
F0.04265795188015926
sg11
S'Durante'
p50
sg13
S'US4918249'
p51
sg15
F-1.37
sg16
S'yes'
p52
sg18
S'Fe'
p53
sg20
g21
sg22
S'None'
p54
sg24
I675
sg25
S'O2'
p55
sg27
Nsg28
S'heterogeneous'
p56
sg30
F63.0
sg31
g32
sg33
g34
sba(iexpclass
expclass
p57
(dp58
g6
S'sodalite'
p59
sg8
S'gas'
p60
sg10
F0.04570881896148749
sg11
S'Durante'
p61
sg13
S'US4918249'
p62
sg15
F-1.34
sg16
S'yes'
p63
sg18
S'Fe'
p64
sg20
g21
sg22
S'None'
p65
sg24
I680
sg25
S'O2'
p66
sg27
Nsg28
S'heterogeneous'
p67
sg30
F64.0
sg31
g32
sg33
g34
sba(iexpclass
expclass
p68
(dp69
g6
S'sodalite'
p70
sg8
S'gas'
p71
sg10
F0.054954087385762455
sg11
S'Durante'
p72
sg13
S'US4918249'
p73
sg15
F-1.26
sg16
S'yes'
p74
sg18
S'Fe'
p75
sg20
g21
sg22
S'None'
p76
sg24
I686
sg25
S'O2'
p77
sg27
Nsg28
S'heterogeneous'
p78
sg30
F66.0
sg31
g32
sg33
g34
sba(iexpclass
expclass
p79
(dp80
g6
S'sodalite'
p81
sg8
S'gas'
p82
sg10
F0.05248074602497726
sg11
S'Durante'
p83
sg13
S'US4918249'
p84
sg15
F-1.28
sg16
S'yes'
p85
sg18
S'Fe'
p86
sg20
g21
sg22
S'None'
p87
sg24
I687
sg25
S'O2'
p88
sg27
Nsg28
S'heterogeneous'
p89
sg30
F70.0
sg31
g32
sg33
g34
sba(iexpclass
expclass
p90
(dp91
g6
S'sodalite'
p92
sg8
S'gas'
p93
sg10
F0.057543993733715694
sg11
S'Durante'
p94
sg13
S'US4918249'
p95
sg15
F-1.24
sg16
S'yes'
p96
sg18
S'Fe'
p97
sg20
g21
sg22
S'None'
p98
sg24
I689
sg25
S'O2'
p99
sg27
Nsg28
S'heterogeneous'
p100
sg30
F70.0
sg31
g32
sg33
g34
sba(iexpclass
expclass
p101
(dp102
g6
S'sodalite'
p103
sg8
S'gas'
p104
sg10
F0.05370317963702527
sg11
S'Durante'
p105
sg13
S'US4918249'
p106
sg15
F-1.27
sg16
S'yes'
p107
sg18
S'Fe'
p108
sg20
g21
sg22
S'None'
p109
sg24
I691
sg25
S'O2'
p110
sg27
Nsg28
S'heterogeneous'
p111
sg30
F68.0
sg31
g32
sg33
g34
sba(iexpclass
expclass
p112
(dp113
g6
S'sodalite'
p114
sg8
S'gas'
p115
sg10
F0.05370317963702527
sg11
S'Durante'
p116
sg13
S'US4918249'
p117
sg15
F-1.27
sg16
S'yes'
p118
sg18
S'Fe'
p119
sg20
g21
sg22
S'None'
p120
sg24
I695
sg25
S'O2'
p121
sg27
Nsg28
S'heterogeneous'
p122
sg30
F65.0
sg31
g32
sg33
g34
sba(iexpclass
expclass
p123
(dp124
g6
S'sodalite'
p125
sg8
S'gas'
p126
sg10
F0.05128613839913648
sg11
S'Durante'
p127
sg13
S'US4918249'
p128
sg15
F-1.29
sg16
S'yes'
p129
sg18
S'Fe'
p130
sg20
g21
sg22
S'None'
p131
sg24
I700
sg25
S'O2'
p132
sg27
Nsg28
S'heterogeneous'
p133
sg30
F66.0
sg31
g32
sg33
g34
sba(iexpclass
expclass
p134
(dp135
g6
S'sodalite'
p136
sg8
S'gas'
p137
sg10
F0.054954087385762455
sg11
S'Durante'
p138
sg13
S'US4918249'
p139
sg15
F-1.26
sg16
S'yes'
p140
sg18
S'Fe'
p141
sg20
g21
sg22
S'None'
p142
sg24
I705
sg25
S'O2'
p143
sg27
Nsg28
S'heterogeneous'
p144
sg30
F63.0
sg31
g32
sg33
g34
sba(iexpclass
expclass
p145
(dp146
g6
S'sodalite'
p147
sg8
S'gas'
p148
sg10
F0.06165950018614822
sg11
S'Durante'
p149
sg13
S'US4918249'
p150
sg15
F-1.21
sg16
S'yes'
p151
sg18
S'Fe'
p152
sg20
g21
sg22
S'None'
p153
sg24
I715
sg25
S'O2'
p154
sg27
Nsg28
S'heterogeneous'
p155
sg30
F64.0
sg31
g32
sg33
g34
sba(iexpclass
expclass
p156
(dp157
g6
S'sodalite'
p158
sg8
S'gas'
p159
sg10
F0.05623413251903491
sg11
S'Durante'
p160
sg13
S'US4918249'
p161
sg15
F-1.25
sg16
S'yes'
p162
sg18
S'Fe'
p163
sg20
g21
sg22
S'None'
p164
sg24
I725
sg25
S'O2'
p165
sg27
Nsg28
S'heterogeneous'
p166
sg30
F59.0
sg31
g32
sg33
g34
sba(iexpclass
expclass
p167
(dp168
g6
S'sodalite'
p169
sg8
S'gas'
p170
sg10
F0.057543993733715694
sg11
S'Durante'
p171
sg13
S'US4918249'
p172
sg15
F-1.24
sg16
S'yes'
p173
sg18
S'Fe'
p174
sg20
g21
sg22
S'None'
p175
sg24
I735
sg25
S'O2'
p176
sg27
Nsg28
S'heterogeneous'
p177
sg30
F58.0
sg31
g32
sg33
g34
sba(iexpclass
expclass
p178
(dp179
g6
S'sodalite'
p180
sg8
S'gas'
p181
sg10
F0.0446683592150963
sg11
S'Durante'
p182
sg13
S'US4918249'
p183
sg15
F-1.35
sg16
S'yes'
p184
sg18
S'Fe'
p185
sg20
g21
sg22
S'None'
p186
sg24
I692
sg25
S'O2'
p187
sg27
Nsg28
S'heterogeneous'
p188
sg30
F59.0
sg31
g32
sg33
g34
sba(iexpclass
expclass
p189
(dp190
g6
S'sodalite'
p191
sg8
S'gas'
p192
sg10
F0.05370317963702527
sg11
S'Durante'
p193
sg13
S'US4918249'
p194
sg15
F-1.27
sg16
S'yes'
p195
sg18
S'Fe'
p196
sg20
g21
sg22
S'None'
p197
sg24
I698
sg25
S'O2'
p198
sg27
Nsg28
S'heterogeneous'
p199
sg30
F63.0
sg31
g32
sg33
g34
sba(iexpclass
expclass
p200
(dp201
g6
S'sodalite'
p202
sg8
S'gas'
p203
sg10
F0.057543993733715694
sg11
S'Durante'
p204
sg13
S'US4918249'
p205
sg15
F-1.24
sg16
S'yes'
p206
sg18
S'Fe'
p207
sg20
g21
sg22
S'None'
p208
sg24
I703
sg25
S'O2'
p209
sg27
Nsg28
S'heterogeneous'
p210
sg30
F62.0
sg31
g32
sg33
g34
sba(iexpclass
expclass
p211
(dp212
g6
S'sodalite'
p213
sg8
S'gas'
p214
sg10
F0.05248074602497726
sg11
S'Durante'
p215
sg13
S'US4918249'
p216
sg15
F-1.28
sg16
S'yes'
p217
sg18
S'Fe'
p218
sg20
g21
sg22
S'None'
p219
sg24
I713
sg25
S'O2'
p220
sg27
Nsg28
S'heterogeneous'
p221
sg30
F59.0
sg31
g32
sg33
g34
sba(iexpclass
expclass
p222
(dp223
g6
S'sodalite'
p224
sg8
S'gas'
p225
sg10
F0.039810717055349734
sg11
S'Durante'
p226
sg13
S'US4918249'
p227
sg15
F-1.4
sg16
S'yes'
p228
sg18
S'Fe'
p229
sg20
g21
sg22
S'None'
p230
sg24
I703
sg25
S'O2'
p231
sg27
Nsg28
S'heterogeneous'
p232
sg30
F52.0
sg31
g32
sg33
g34
sba(iexpclass
expclass
p233
(dp234
g6
S'sodalite'
p235
sg8
S'gas'
p236
sg10
F0.04570881896148749
sg11
S'Durante'
p237
sg13
S'US4918249'
p238
sg15
F-1.34
sg16
S'yes'
p239
sg18
S'Fe'
p240
sg20
g21
sg22
S'None'
p241
sg24
I711
sg25
S'O2'
p242
sg27
Nsg28
S'heterogeneous'
p243
sg30
F55.0
sg31
g32
sg33
g34
sba(iexpclass
expclass
p244
(dp245
g6
S'sodalite'
p246
sg8
S'gas'
p247
sg10
F0.04897788193684462
sg11
S'Durante'
p248
sg13
S'US4918249'
p249
sg15
F-1.31
sg16
S'yes'
p250
sg18
S'Fe'
p251
sg20
g21
sg22
S'None'
p252
sg24
I717
sg25
S'O2'
p253
sg27
Nsg28
S'heterogeneous'
p254
sg30
F54.0
sg31
g32
sg33
g34
sba(iexpclass
expclass
p255
(dp256
g6
S'sodalite'
p257
sg8
S'gas'
p258
sg10
F0.023988329190194897
sg11
S'Durante'
p259
sg13
S'US4918249'
p260
sg15
F-1.62
sg16
S'yes'
p261
sg18
S'Fe'
p262
sg20
g21
sg22
S'None'
p263
sg24
I710
sg25
S'O2'
p264
sg27
Nsg28
S'heterogeneous'
p265
sg30
F43.0
sg31
g32
sg33
g34
sba(iexpclass
expclass
p266
(dp267
g6
S'sodalite'
p268
sg8
S'gas'
p269
sg10
F0.030902954325135904
sg11
S'Durante'
p270
sg13
S'US4918249'
p271
sg15
F-1.51
sg16
S'yes'
p272
sg18
S'Fe'
p273
sg20
g21
sg22
S'None'
p274
sg24
I722
sg25
S'O2'
p275
sg27
Nsg28
S'heterogeneous'
p276
sg30
F45.0
sg31
g32
sg33
g34
sba(iexpclass
expclass
p277
(dp278
g6
S'sodalite'
p279
sg8
S'gas'
p280
sg10
F0.034673685045253165
sg11
S'Durante'
p281
sg13
S'US4918249'
p282
sg15
F-1.46
sg16
S'yes'
p283
sg18
S'Fe'
p284
sg20
g21
sg22
S'None'
p285
sg24
I724
sg25
S'O2'
p286
sg27
Nsg28
S'heterogeneous'
p287
sg30
F46.0
sg31
g32
sg33
g34
sba(iexpclass
expclass
p288
(dp289
g6
S'sodalite'
p290
sg8
S'gas'
p291
sg10
F0.03715352290971726
sg11
S'Durante'
p292
sg13
S'US4918249'
p293
sg15
F-1.43
sg16
S'yes'
p294
sg18
S'Fe'
p295
sg20
g21
sg22
S'None'
p296
sg24
I728
sg25
S'O2'
p297
sg27
Nsg28
S'heterogeneous'
p298
sg30
F45.0
sg31
g32
sg33
g34
sba(iexpclass
expclass
p299
(dp300
g6
S'sodalite'
p301
sg8
S'gas'
p302
sg10
F0.03890451449942807
sg11
S'Durante'
p303
sg13
S'US4918249'
p304
sg15
F-1.41
sg16
S'yes'
p305
sg18
S'Fe'
p306
sg20
g21
sg22
S'None'
p307
sg24
I732
sg25
S'O2'
p308
sg27
Nsg28
S'heterogeneous'
p309
sg30
F44.0
sg31
g32
sg33
g34
sba(iexpclass
expclass
p310
(dp311
g6
S'sodalite'
p312
sg8
S'gas'
p313
sg10
F0.015848931924611134
sg11
S'Durante'
p314
sg13
S'US4918249'
p315
sg15
F-1.8
sg16
S'yes'
p316
sg18
S'Fe'
p317
sg20
g21
sg22
S'None'
p318
sg24
I726
sg25
S'O2'
p319
sg27
Nsg28
S'heterogeneous'
p320
sg30
F38.0
sg31
g32
sg33
g34
sba(iexpclass
expclass
p321
(dp322
g6
S'sodalite'
p323
sg8
S'gas'
p324
sg10
F0.025703957827688632
sg11
S'Durante'
p325
sg13
S'US4918249'
p326
sg15
F-1.59
sg16
S'yes'
p327
sg18
S'Fe'
p328
sg20
g21
sg22
S'None'
p329
sg24
I739
sg25
S'O2'
p330
sg27
Nsg28
S'heterogeneous'
p331
sg30
F40.0
sg31
g32
sg33
g34
sba(iexpclass
expclass
p332
(dp333
g6
S'sodalite'
p334
sg8
S'gas'
p335
sg10
F0.057543993733715694
sg11
S'Durante'
p336
sg13
S'US4918249'
p337
sg15
F-1.24
sg16
S'yes'
p338
sg18
S'Fe'
p339
sg20
g21
sg22
S'None'
p340
sg24
I701
sg25
S'O2'
p341
sg27
Nsg28
S'heterogeneous'
p342
sg30
F24.0
sg31
g32
sg33
g34
sba(iexpclass
expclass
p343
(dp344
g6
S'sodalite'
p345
sg8
S'gas'
p346
sg10
F0.057543993733715694
sg11
S'Durante'
p347
sg13
S'US4918249'
p348
sg15
F-1.24
sg16
S'yes'
p349
sg18
S'Fe'
p350
sg20
g21
sg22
S'None'
p351
sg24
I707
sg25
S'O2'
p352
sg27
Nsg28
S'heterogeneous'
p353
sg30
F25.0
sg31
g32
sg33
g34
sba(iexpclass
expclass
p354
(dp355
g6
S'sodalite'
p356
sg8
S'gas'
p357
sg10
F0.05623413251903491
sg11
S'Durante'
p358
sg13
S'US4918249'
p359
sg15
F-1.25
sg16
S'yes'
p360
sg18
S'Fe'
p361
sg20
g21
sg22
S'None'
p362
sg24
I712
sg25
S'O2'
p363
sg27
Nsg28
S'heterogeneous'
p364
sg30
F21.0
sg31
g32
sg33
g34
sba(iexpclass
expclass
p365
(dp366
g6
S'SiO2'
p367
sg8
S'gas'
p368
sg10
F0.022908676527677734
sg11
S'Durante'
p369
sg13
S'US4918249'
p370
sg15
F-1.64
sg16
S'no'
p371
sg18
S'Fe'
p372
sg20
g21
sg22
S'None'
p373
sg24
I712
sg25
S'O2'
p374
sg27
Nsg28
S'heterogeneous'
p375
sg30
F25.0
sg31
g32
sg33
g34
sba(iexpclass
expclass
p376
(dp377
g6
S'ZSM-5'
p378
sg8
S'gas'
p379
sg10
F0.05128613839913648
sg11
S'Durante'
p380
sg13
S'US4918249'
p381
sg15
F-1.29
sg16
S'yes'
p382
sg18
S'Fe'
p383
sg20
g21
sg22
S'None'
p384
sg24
I709
sg25
S'O2'
p385
sg27
Nsg28
S'heterogeneous'
p386
sg30
F18.0
sg31
g32
sg33
g34
sba(iexpclass
expclass
p387
(dp388
g6
S'sodalite'
p389
sg8
S'gas'
p390
sg10
F0.057543993733715694
sg11
S'Durante'
p391
sg13
S'US4918249'
p392
sg15
F-1.24
sg16
S'yes'
p393
sg18
S'Fe'
p394
sg20
g21
sg22
S'None'
p395
sg24
I708
sg25
S'O2'
p396
sg27
Nsg28
S'heterogeneous'
p397
sg30
F25.0
sg31
g32
sg33
g34
sba(iexpclass
expclass
p398
(dp399
g6
S'MO3/SiO2/Al2O3'
p400
sg8
S'gas'
p401
sg10
F0.022908676527677734
sg11
S'Durante'
p402
sg13
S'US4918249'
p403
sg15
F-1.64
sg16
S'no'
p404
sg18
S'Fe'
p405
sg20
g21
sg22
S'None'
p406
sg24
I723
sg25
S'O2'
p407
sg27
Nsg28
S'heterogeneous'
p408
sg30
F47.0
sg31
g32
sg33
g34
sba(iexpclass
expclass
p409
(dp410
g6
S'Sodalite'
p411
sg8
S'gas'
p412
sg10
F0.04897788193684462
sg11
S'Durante'
p413
sg13
S'US4918249'
p414
sg15
F-1.31
sg16
S'yes'
p415
sg18
S'Fe'
p416
sg20
g21
sg22
S'None'
p417
sg24
I717
sg25
S'O2'
p418
sg27
Nsg28
S'heterogeneous'
p419
sg30
F54.0
sg31
g32
sg33
g34
sba(iexpclass
expclass
p420
(dp421
g6
S'glass-beads'
p422
sg8
S'gas'
p423
sg10
F0.001995262314968879
sg11
S'Durante'
p424
sg13
S'US4918249'
p425
sg15
F-2.7
sg16
S'no'
p426
sg18
S'Fe'
p427
sg20
g21
sg22
S'None'
p428
sg24
I680
sg25
S'O2'
p429
sg27
Nsg28
S'heterogeneous'
p430
sg30
F47.0
sg31
g32
sg33
g34
sba(iexpclass
expclass
p431
(dp432
g6
S'glass-beads'
p433
sg8
S'gas'
p434
sg10
F0.01412537544622754
sg11
S'Durante'
p435
sg13
S'US4918249'
p436
sg15
F-1.85
sg16
S'no'
p437
sg18
S'Fe'
p438
sg20
g21
sg22
S'None'
p439
sg24
I691
sg25
S'O2'
p440
sg27
Nsg28
S'heterogeneous'
p441
sg30
F44.0
sg31
g32
sg33
g34
sba(iexpclass
expclass
p442
(dp443
g6
S'glass-beads'
p444
sg8
S'gas'
p445
sg10
F0.025118864315095794
sg11
S'Durante'
p446
sg13
S'US4918249'
p447
sg15
F-1.6
sg16
S'no'
p448
sg18
S'Fe'
p449
sg20
g21
sg22
S'None'
p450
sg24
I695
sg25
S'O2'
p451
sg27
Nsg28
S'heterogeneous'
p452
sg30
F56.0
sg31
g32
sg33
g34
sba(iexpclass
expclass
p453
(dp454
g6
S'glass-beads'
p455
sg8
S'gas'
p456
sg10
F0.04265795188015926
sg11
S'Durante'
p457
sg13
S'US4918249'
p458
sg15
F-1.37
sg16
S'no'
p459
sg18
S'Fe'
p460
sg20
g21
sg22
S'None'
p461
sg24
I703
sg25
S'O2'
p462
sg27
Nsg28
S'heterogeneous'
p463
sg30
F56.0
sg31
g32
sg33
g34
sba(iexpclass
expclass
p464
(dp465
g6
S'hydroxysodalite'
p466
sg8
S'gas'
p467
sg10
F0.003019951720402016
sg11
S'Durante'
p468
sg13
S'US4918249'
p469
sg15
F-2.52
sg16
S'yes'
p470
sg18
S'Fe'
p471
sg20
g21
sg22
S'None'
p472
sg24
I708
sg25
S'O2'
p473
sg27
Nsg28
S'heterogeneous'
p474
sg30
F59.0
sg31
g32
sg33
g34
sba(iexpclass
expclass
p475
(dp476
g6
S'hydroxysodalite'
p477
sg8
S'gas'
p478
sg10
F0.05128613839913648
sg11
S'Durante'
p479
sg13
S'US4918249'
p480
sg15
F-1.29
sg16
S'yes'
p481
sg18
S'Fe'
p482
sg20
g21
sg22
S'None'
p483
sg24
I718
sg25
S'O2'
p484
sg27
Nsg28
S'heterogeneous'
p485
sg30
F24.0
sg31
g32
sg33
g34
sba(iexpclass
expclass
p486
(dp487
g6
S'hydroxysodalite'
p488
sg8
S'gas'
p489
sg10
F0.05248074602497726
sg11
S'Durante'
p490
sg13
S'US4918249'
p491
sg15
F-1.28
sg16
S'yes'
p492
sg18
S'Fe'
p493
sg20
g21
sg22
S'None'
p494
sg24
I707
sg25
S'O2'
p495
sg27
Nsg28
S'heterogeneous'
p496
sg30
F18.0
sg31
g32
sg33
g34
sba(iexpclass
expclass
p497
(dp498
g6
S'ZSM-5'
p499
sg8
S'gas'
p500
sg10
F0.003890451449942805
sg11
S'Wang'
p501
sg13
S'10.1039/c39940002209'
p502
sg15
F-2.41
sg16
S'yes'
p503
sg18
S'Fe'
p504
sg20
g21
sg22
S'None'
p505
sg24
I700
sg25
S'O2'
p506
sg27
Nsg28
S'heterogeneous'
p507
sg30
F0.0
sg31
g32
sg33
g34
sba(iexpclass
expclass
p508
(dp509
g6
S'ZSM-5'
p510
sg8
S'gas'
p511
sg10
F0.009120108393559097
sg11
S'Wang'
p512
sg13
S'10.1039/c39940002209'
p513
sg15
F-2.04
sg16
S'yes'
p514
sg18
S'Fe'
p515
sg20
g21
sg22
S'None'
p516
sg24
I700
sg25
S'O2'
p517
sg27
Nsg28
S'heterogeneous'
p518
sg30
F0.0
sg31
g32
sg33
g34
sba(iexpclass
expclass
p519
(dp520
g6
S'ferrisilicate'
p521
sg8
S'gas'
p522
sg10
F0.003019951720402016
sg11
S'Wang'
p523
sg13
S'10.1039/c39940002209'
p524
sg15
F-2.52
sg16
S'yes'
p525
sg18
S'Fe'
p526
sg20
g21
sg22
S'None'
p527
sg24
I700
sg25
S'O2'
p528
sg27
Nsg28
S'heterogeneous'
p529
sg30
F0.0
sg31
g32
sg33
g34
sba(iexpclass
expclass
p530
(dp531
g6
S'ferrisilicate'
p532
sg8
S'gas'
p533
sg10
F0.01513561248436208
sg11
S'Wang'
p534
sg13
S'10.1039/c39940002209'
p535
sg15
F-1.82
sg16
S'yes'
p536
sg18
S'Fe'
p537
sg20
g21
sg22
S'None'
p538
sg24
I700
sg25
S'O2'
p539
sg27
Nsg28
S'heterogeneous'
p540
sg30
F0.0
sg31
g32
sg33
g34
sba(iexpclass
expclass
p541
(dp542
g6
S'FAPO-5'
p543
sg8
S'gas'
p544
sg10
F0.007943282347242814
sg11
S'Wang'
p545
sg13
S'10.1039/c39940002209'
p546
sg15
F-2.1
sg16
S'yes'
p547
sg18
S'Fe'
p548
sg20
g21
sg22
S'None'
p549
sg24
I700
sg25
S'O2'
p550
sg27
Nsg28
S'heterogeneous'
p551
sg30
F0.0
sg31
g32
sg33
g34
sba(iexpclass
expclass
p552
(dp553
g6
S'FAPO-5'
p554
sg8
S'gas'
p555
sg10
F0.014791083881682071
sg11
S'Wang'
p556
sg13
S'10.1039/c39940002209'
p557
sg15
F-1.83
sg16
S'yes'
p558
sg18
S'Fe'
p559
sg20
g21
sg22
S'None'
p560
sg24
I700
sg25
S'O2'
p561
sg27
Nsg28
S'heterogeneous'
p562
sg30
F1.9
sg31
g32
sg33
g34
sba(iexpclass
expclass
p563
(dp564
g6
S'phosphate'
p565
sg8
S'gas'
p566
sg10
F0.0007943282347242813
sg11
S'Wang'
p567
sg13
S'10.1039/c39940002209'
p568
sg15
F-3.1
sg16
S'no'
p569
sg18
S'Fe'
p570
sg20
g21
sg22
S'None'
p571
sg24
I700
sg25
S'O2'
p572
sg27
Nsg28
S'heterogeneous'
p573
sg30
F1.6
sg31
g32
sg33
g34
sba(iexpclass
expclass
p574
(dp575
g6
S'phosphate'
p576
sg8
S'gas'
p577
sg10
F0.0019054607179632462
sg11
S'Wang'
p578
sg13
S'10.1039/c39940002209'
p579
sg15
F-2.72
sg16
S'no'
p580
sg18
S'Fe'
p581
sg20
g21
sg22
S'None'
p582
sg24
I700
sg25
S'O2'
p583
sg27
Nsg28
S'heterogeneous'
p584
sg30
F20.3
sg31
g32
sg33
g34
sba(iexpclass
expclass
p585
(dp586
g6
S'phosphate'
p587
sg8
S'gas'
p588
sg10
F0.005128613839913648
sg11
S'Wang'
p589
sg13
S'10.1039/c39940002209'
p590
sg15
F-2.29
sg16
S'no'
p591
sg18
S'Fe'
p592
sg20
g21
sg22
S'None'
p593
sg24
I700
sg25
S'O2'
p594
sg27
Nsg28
S'heterogeneous'
p595
sg30
F25.7
sg31
g32
sg33
g34
sba(iexpclass
expclass
p596
(dp597
g6
S'FePO4/MCM-41/PO4'
p598
sg8
S'gas'
p599
sg10
F0.0005011872336272725
sg11
S'Wang'
p600
sg13
S'10.1016/S0021-9517(03)00077-0'
p601
sg15
F-3.3
sg16
S'yes'
p602
sg18
S'Fe'
p603
sg20
g21
sg22
S'None'
p604
sg24
I673
sg25
S'N2O'
p605
sg27
Nsg28
S'heterogeneous'
p606
sg30
F0.0
sg31
g32
sg33
g34
sba(iexpclass
expclass
p607
(dp608
g6
S'FePO4/MCM-41/PO5'
p609
sg8
S'gas'
p610
sg10
F0.0010964781961431851
sg11
S'Wang'
p611
sg13
S'10.1016/S0021-9517(03)00077-0'
p612
sg15
F-2.96
sg16
S'yes'
p613
sg18
S'Fe'
p614
sg20
g21
sg22
S'None'
p615
sg24
I723
sg25
S'N2O'
p616
sg27
Nsg28
S'heterogeneous'
p617
sg30
F0.0
sg31
g32
sg33
g34
sba(iexpclass
expclass
p618
(dp619
g6
S'FePO4/MCM-41/PO6'
p620
sg8
S'gas'
p621
sg10
F0.003019951720402016
sg11
S'Wang'
p622
sg13
S'10.1016/S0021-9517(03)00077-0'
p623
sg15
F-2.52
sg16
S'yes'
p624
sg18
S'Fe'
p625
sg20
g21
sg22
S'None'
p626
sg24
I673
sg25
S'N2O'
p627
sg27
Nsg28
S'heterogeneous'
p628
sg30
F15.0
sg31
g32
sg33
g34
sba(iexpclass
expclass
p629
(dp630
g6
S'FePO4/MCM-41/PO7'
p631
sg8
S'gas'
p632
sg10
F0.01148153621496883
sg11
S'Wang'
p633
sg13
S'10.1016/S0021-9517(03)00077-0'
p634
sg15
F-1.94
sg16
S'yes'
p635
sg18
S'Fe'
p636
sg20
g21
sg22
S'None'
p637
sg24
I723
sg25
S'N2O'
p638
sg27
Nsg28
S'heterogeneous'
p639
sg30
F15.1
sg31
g32
sg33
g34
sba(iexpclass
expclass
p640
(dp641
g6
S'FePO4/MCM-41/PO8'
p642
sg8
S'gas'
p643
sg10
F0.008317637711026709
sg11
S'Wang'
p644
sg13
S'10.1016/S0021-9517(03)00077-0'
p645
sg15
F-2.08
sg16
S'yes'
p646
sg18
S'Fe'
p647
sg20
g21
sg22
S'None'
p648
sg24
I673
sg25
S'N2O'
p649
sg27
Nsg28
S'heterogeneous'
p650
sg30
F23.6
sg31
g32
sg33
g34
sba(iexpclass
expclass
p651
(dp652
g6
S'FePO4/MCM-41/PO9'
p653
sg8
S'gas'
p654
sg10
F0.023988329190194897
sg11
S'Wang'
p655
sg13
S'10.1016/S0021-9517(03)00077-0'
p656
sg15
F-1.62
sg16
S'yes'
p657
sg18
S'Fe'
p658
sg20
g21
sg22
S'None'
p659
sg24
I723
sg25
S'N2O'
p660
sg27
Nsg28
S'heterogeneous'
p661
sg30
F20.5
sg31
g32
sg33
g34
sba(iexpclass
expclass
p662
(dp663
g6
S'FePO4/MCM-41/PO10'
p664
sg8
S'gas'
p665
sg10
F0.009772372209558112
sg11
S'Wang'
p666
sg13
S'10.1016/S0021-9517(03)00077-0'
p667
sg15
F-2.01
sg16
S'yes'
p668
sg18
S'Fe'
p669
sg20
g21
sg22
S'None'
p670
sg24
I673
sg25
S'N2O'
p671
sg27
Nsg28
S'heterogeneous'
p672
sg30
F23.7
sg31
g32
sg33
g34
sba(iexpclass
expclass
p673
(dp674
g6
S'FePO4/MCM-41/PO11'
p675
sg8
S'gas'
p676
sg10
F0.03019951720402016
sg11
S'Wang'
p677
sg13
S'10.1016/S0021-9517(03)00077-0'
p678
sg15
F-1.52
sg16
S'yes'
p679
sg18
S'Fe'
p680
sg20
g21
sg22
S'None'
p681
sg24
I723
sg25
S'N2O'
p682
sg27
Nsg28
S'heterogeneous'
p683
sg30
F17.3
sg31
g32
sg33
g34
sba(iexpclass
expclass
p684
(dp685
g6
S'FePO4/MCM-41/PO12'
p686
sg8
S'gas'
p687
sg10
F0.008709635899560805
sg11
S'Wang'
p688
sg13
S'10.1016/S0021-9517(03)00077-0'
p689
sg15
F-2.06
sg16
S'yes'
p690
sg18
S'Fe'
p691
sg20
g21
sg22
S'None'
p692
sg24
I673
sg25
S'N2O'
p693
sg27
Nsg28
S'heterogeneous'
p694
sg30
F20.2
sg31
g32
sg33
g34
sba(iexpclass
expclass
p695
(dp696
g6
S'FePO4/MCM-41/PO13'
p697
sg8
S'gas'
p698
sg10
F0.033884415613920256
sg11
S'Wang'
p699
sg13
S'10.1016/S0021-9517(03)00077-0'
p700
sg15
F-1.47
sg16
S'yes'
p701
sg18
S'Fe'
p702
sg20
g21
sg22
S'None'
p703
sg24
I723
sg25
S'N2O'
p704
sg27
Nsg28
S'heterogeneous'
p705
sg30
F15.8
sg31
g32
sg33
g34
sba(iexpclass
expclass
p706
(dp707
g6
S'FePO4/MCM-41/PO14'
p708
sg8
S'gas'
p709
sg10
F0.008709635899560805
sg11
S'Wang'
p710
sg13
S'10.1016/S0021-9517(03)00077-0'
p711
sg15
F-2.06
sg16
S'yes'
p712
sg18
S'Fe'
p713
sg20
g21
sg22
S'None'
p714
sg24
I673
sg25
S'N2O'
p715
sg27
Nsg28
S'heterogeneous'
p716
sg30
F35.3
sg31
g32
sg33
g34
sba(iexpclass
expclass
p717
(dp718
g6
S'FePO4/MCM-41/PO15'
p719
sg8
S'gas'
p720
sg10
F0.0199526231496888
sg11
S'Wang'
p721
sg13
S'10.1016/S0021-9517(03)00077-0'
p722
sg15
F-1.7
sg16
S'yes'
p723
sg18
S'Fe'
p724
sg20
g21
sg22
S'None'
p725
sg24
I723
sg25
S'N2O'
p726
sg27
Nsg28
S'heterogeneous'
p727
sg30
F32.9
sg31
g32
sg33
g34
sba(iexpclass
expclass
p728
(dp729
g6
S'V2O5/silicate'
p730
sg8
S'gas'
p731
sg10
F0.0005011872336272725
sg11
S'Chen'
p732
sg13
S'10.1021/ie00016a002'
p733
sg15
F-3.3
sg16
S'no'
p734
sg18
S'V'
p735
sg20
g21
sg22
S'None'
p736
sg24
I713
sg25
S'N2O'
p737
sg27
Nsg28
S'heterogeneous'
p738
sg30
F13.3
sg31
S'blue'
p739
sg33
g34
sba(iexpclass
expclass
p740
(dp741
g6
S'V2O5/silicate'
p742
sg8
S'gas'
p743
sg10
F0.0012882495516931337
sg11
S'Chen'
p744
sg13
S'10.1021/ie00016a002'
p745
sg15
F-2.89
sg16
S'no'
p746
sg18
g735
sg20
g21
sg22
S'None'
p747
sg24
I733
sg25
S'N2O'
p748
sg27
Nsg28
S'heterogeneous'
p749
sg30
F27.7
sg31
g739
sg33
g34
sba(iexpclass
expclass
p750
(dp751
g6
S'V2O5/silicate'
p752
sg8
S'gas'
p753
sg10
F0.01148153621496883
sg11
S'Chen'
p754
sg13
S'10.1021/ie00016a002'
p755
sg15
F-1.94
sg16
S'no'
p756
sg18
g735
sg20
g21
sg22
S'None'
p757
sg24
I763
sg25
S'N2O'
p758
sg27
Nsg28
S'heterogeneous'
p759
sg30
F10.1
sg31
g739
sg33
g34
sba(iexpclass
expclass
p760
(dp761
g6
S'V2O5/silicate'
p762
sg8
S'gas'
p763
sg10
F0.000707945784384138
sg11
S'Chen'
p764
sg13
S'10.1021/ie00016a002'
p765
sg15
F-3.15
sg16
S'no'
p766
sg18
g735
sg20
g21
sg22
S'None'
p767
sg24
I713
sg25
S'N2O'
p768
sg27
Nsg28
S'heterogeneous'
p769
sg30
F56.7
sg31
g739
sg33
g34
sba(iexpclass
expclass
p770
(dp771
g6
S'V2O5/silicate'
p772
sg8
S'gas'
p773
sg10
F0.0028840315031266055
sg11
S'Chen'
p774
sg13
S'10.1021/ie00016a002'
p775
sg15
F-2.54
sg16
S'no'
p776
sg18
g735
sg20
g21
sg22
S'None'
p777
sg24
I733
sg25
S'N2O'
p778
sg27
Nsg28
S'heterogeneous'
p779
sg30
F31.3
sg31
g739
sg33
g34
sba(iexpclass
expclass
p780
(dp781
g6
S'V2O5/silicate'
p782
sg8
S'gas'
p783
sg10
F0.016982436524617443
sg11
S'Chen'
p784
sg13
S'10.1021/ie00016a002'
p785
sg15
F-1.77
sg16
S'no'
p786
sg18
g735
sg20
g21
sg22
S'None'
p787
sg24
I763
sg25
S'N2O'
p788
sg27
Nsg28
S'heterogeneous'
p789
sg30
F10.2
sg31
g739
sg33
g34
sba(iexpclass
expclass
p790
(dp791
g6
S'V2O5/silicate'
p792
sg8
S'gas'
p793
sg10
F0.002818382931264455
sg11
S'Chen'
p794
sg13
S'10.1021/ie00016a002'
p795
sg15
F-2.55
sg16
S'no'
p796
sg18
g735
sg20
g21
sg22
S'None'
p797
sg24
I713
sg25
S'N2O'
p798
sg27
Nsg28
S'heterogeneous'
p799
sg30
F18.4
sg31
g739
sg33
g34
sba(iexpclass
expclass
p800
(dp801
g6
S'V2O5/silicate'
p802
sg8
S'gas'
p803
sg10
F0.009120108393559097
sg11
S'Chen'
p804
sg13
S'10.1021/ie00016a002'
p805
sg15
F-2.04
sg16
S'no'
p806
sg18
g735
sg20
g21
sg22
S'None'
p807
sg24
I733
sg25
S'N2O'
p808
sg27
Nsg28
S'heterogeneous'
p809
sg30
F8.7
sg31
g739
sg33
g34
sba(iexpclass
expclass
p810
(dp811
g6
S'V2O5/silicate'
p812
sg8
S'gas'
p813
sg10
F0.046773514128719815
sg11
S'Chen'
p814
sg13
S'10.1021/ie00016a002'
p815
sg15
F-1.33
sg16
S'no'
p816
sg18
g735
sg20
g21
sg22
S'None'
p817
sg24
I763
sg25
S'N2O'
p818
sg27
Nsg28
S'heterogeneous'
p819
sg30
F2.7
sg31
g739
sg33
g34
sba(iexpclass
expclass
p820
(dp821
g6
S'V2O5/silicate'
p822
sg8
S'gas'
p823
sg10
F0.004897788193684461
sg11
S'Chen'
p824
sg13
S'10.1021/ie00016a002'
p825
sg15
F-2.31
sg16
S'no'
p826
sg18
g735
sg20
g21
sg22
S'None'
p827
sg24
I713
sg25
S'N2O'
p828
sg27
Nsg28
S'heterogeneous'
p829
sg30
F6.8
sg31
g739
sg33
g34
sba(iexpclass
expclass
p830
(dp831
g6
S'V2O5/silicate'
p832
sg8
S'gas'
p833
sg10
F0.01778279410038923
sg11
S'Chen'
p834
sg13
S'10.1021/ie00016a002'
p835
sg15
F-1.75
sg16
S'no'
p836
sg18
g735
sg20
g21
sg22
S'None'
p837
sg24
I733
sg25
S'N2O'
p838
sg27
Nsg28
S'heterogeneous'
p839
sg30
F3.1
sg31
g739
sg33
g34
sba(iexpclass
expclass
p840
(dp841
g6
S'V2O5/silicate'
p842
sg8
S'gas'
p843
sg10
F0.08709635899560805
sg11
S'Chen'
p844
sg13
S'10.1021/ie00016a002'
p845
sg15
F-1.06
sg16
S'no'
p846
sg18
g735
sg20
g21
sg22
S'None'
p847
sg24
I763
sg25
S'N2O'
p848
sg27
Nsg28
S'heterogeneous'
p849
sg30
F0.2
sg31
g739
sg33
g34
sba(iexpclass
expclass
p850
(dp851
g6
S'ZSM-5'
p852
sg8
S'gas'
p853
sg10
F0.11220184543019636
sg11
S'Michalkiewicz'
p854
sg13
S'10.1016/j.apcata.2004.09.005'
p855
sg15
F-0.95
sg16
S'yes'
p856
sg18
S'Fe'
p857
sg20
g21
sg22
S'None'
p858
sg24
I903
sg25
S'O2'
p859
sg27
Nsg28
S'heterogeneous'
p860
sg30
F16.51
sg31
g32
sg33
g34
sba(iexpclass
expclass
p861
(dp862
g6
S'ZSM-5'
p863
sg8
S'gas'
p864
sg10
F0.19054607179632474
sg11
S'Michalkiewicz'
p865
sg13
S'10.1016/j.apcata.2004.09.005'
p866
sg15
F-0.72
sg16
S'yes'
p867
sg18
S'Fe'
p868
sg20
g21
sg22
S'None'
p869
sg24
I903
sg25
S'O2'
p870
sg27
Nsg28
S'heterogeneous'
p871
sg30
F14.17
sg31
g32
sg33
g34
sba(iexpclass
expclass
p872
(dp873
g6
S'ZSM-5'
p874
sg8
S'gas'
p875
sg10
F0.31622776601683794
sg11
S'Michalkiewicz'
p876
sg13
S'10.1016/j.apcata.2004.09.005'
p877
sg15
F-0.5
sg16
S'yes'
p878
sg18
S'Fe'
p879
sg20
g21
sg22
S'None'
p880
sg24
I903
sg25
S'O2'
p881
sg27
Nsg28
S'heterogeneous'
p882
sg30
F10.79
sg31
g32
sg33
g34
sba(iexpclass
expclass
p883
(dp884
g6
S'ZSM-5'
p885
sg8
S'gas'
p886
sg10
F0.0006025595860743575
sg11
S'Michalkiewicz'
p887
sg13
S'10.1016/j.apcata.2004.09.005'
p888
sg15
F-3.22
sg16
S'yes'
p889
sg18
S'Fe'
p890
sg20
g21
sg22
S'None'
p891
sg24
I623
sg25
S'O2'
p892
sg27
Nsg28
S'heterogeneous'
p893
sg30
F74.37
sg31
g32
sg33
g34
sba(iexpclass
expclass
p894
(dp895
g6
S'ZSM-5'
p896
sg8
S'gas'
p897
sg10
F0.000707945784384138
sg11
S'Michalkiewicz'
p898
sg13
S'10.1016/j.apcata.2004.09.005'
p899
sg15
F-3.15
sg16
S'yes'
p900
sg18
S'Fe'
p901
sg20
g21
sg22
S'None'
p902
sg24
I623
sg25
S'O2'
p903
sg27
Nsg28
S'heterogeneous'
p904
sg30
F69.13
sg31
g32
sg33
g34
sba(iexpclass
expclass
p905
(dp906
g6
S'ZSM-5'
p907
sg8
S'gas'
p908
sg10
F0.001
sg11
S'Michalkiewicz'
p909
sg13
S'10.1016/j.apcata.2004.09.005'
p910
sg15
F-3.0
sg16
S'yes'
p911
sg18
S'Fe'
p912
sg20
g21
sg22
S'None'
p913
sg24
I623
sg25
S'O2'
p914
sg27
Nsg28
S'heterogeneous'
p915
sg30
F63.47
sg31
g32
sg33
g34
sba(iexpclass
expclass
p916
(dp917
g6
S'pyrophosphate'
p918
sg8
S'gas'
p919
sg10
F0.030902954325135904
sg11
S'Polniser'
p920
sg13
S'10.1016/j.apcata.2011.04.022'
p921
sg15
F-1.51
sg16
S'no'
p922
sg18
S'Cu-Fe'
p923
sg20
g21
sg22
S'None'
p924
sg24
I903
sg25
S'N2O'
p925
sg27
Nsg28
S'heterogeneous'
p926
sg30
F2.1
sg31
g32
sg33
g34
sba(iexpclass
expclass
p927
(dp928
g6
S'pyrophosphate'
p929
sg8
S'gas'
p930
sg10
F0.043651583224016584
sg11
S'Polniser'
p931
sg13
S'10.1016/j.apcata.2011.04.022'
p932
sg15
F-1.36
sg16
S'no'
p933
sg18
S'Cu-Fe'
p934
sg20
g21
sg22
S'None'
p935
sg24
I903
sg25
S'N2O'
p936
sg27
Nsg28
S'heterogeneous'
p937
sg30
F1.9
sg31
g32
sg33
g34
sba(iexpclass
expclass
p938
(dp939
g6
S'pyrophosphate'
p940
sg8
S'gas'
p941
sg10
F0.0446683592150963
sg11
S'Polniser'
p942
sg13
S'10.1016/j.apcata.2011.04.022'
p943
sg15
F-1.35
sg16
S'no'
p944
sg18
S'Cu-Fe'
p945
sg20
g21
sg22
S'None'
p946
sg24
I903
sg25
S'N2O'
p947
sg27
Nsg28
S'heterogeneous'
p948
sg30
F2.5
sg31
g32
sg33
g34
sba(iexpclass
expclass
p949
(dp950
g6
S'pyrophosphate'
p951
sg8
S'gas'
p952
sg10
F0.06456542290346556
sg11
S'Polniser'
p953
sg13
S'10.1016/j.apcata.2011.04.022'
p954
sg15
F-1.19
sg16
S'no'
p955
sg18
S'Cu-Fe'
p956
sg20
g21
sg22
S'None'
p957
sg24
I903
sg25
S'N2O'
p958
sg27
Nsg28
S'heterogeneous'
p959
sg30
F1.8
sg31
g32
sg33
g34
sba(iexpclass
expclass
p960
(dp961
g6
S'pyrophosphate'
p962
sg8
S'gas'
p963
sg10
F0.06918309709189366
sg11
S'Polniser'
p964
sg13
S'10.1016/j.apcata.2011.04.022'
p965
sg15
F-1.16
sg16
S'no'
p966
sg18
S'Cu-Fe'
p967
sg20
g21
sg22
S'None'
p968
sg24
I903
sg25
S'N2O'
p969
sg27
Nsg28
S'heterogeneous'
p970
sg30
F1.2
sg31
g32
sg33
g34
sba(iexpclass
expclass
p971
(dp972
g6
S'pyrophosphate'
p973
sg8
S'gas'
p974
sg10
F0.0446683592150963
sg11
S'Polniser'
p975
sg13
S'10.1016/j.apcata.2011.04.022'
p976
sg15
F-1.35
sg16
S'no'
p977
sg18
S'Cu-Fe'
p978
sg20
g21
sg22
S'None'
p979
sg24
I903
sg25
S'N2O'
p980
sg27
Nsg28
S'heterogeneous'
p981
sg30
F1.9
sg31
g32
sg33
g34
sba(iexpclass
expclass
p982
(dp983
g6
S'pyrophosphate'
p984
sg8
S'gas'
p985
sg10
F0.047863009232263824
sg11
S'Polniser'
p986
sg13
S'10.1016/j.apcata.2011.04.022'
p987
sg15
F-1.32
sg16
S'no'
p988
sg18
S'Cu-Fe'
p989
sg20
g21
sg22
S'None'
p990
sg24
I903
sg25
S'N2O'
p991
sg27
Nsg28
S'heterogeneous'
p992
sg30
F2.6
sg31
g32
sg33
g34
sba(iexpclass
expclass
p993
(dp994
g6
S'pyrophosphate'
p995
sg8
S'gas'
p996
sg10
F0.05128613839913648
sg11
S'Polniser'
p997
sg13
S'10.1016/j.apcata.2011.04.022'
p998
sg15
F-1.29
sg16
S'no'
p999
sg18
S'Cu-Fe'
p1000
sg20
g21
sg22
S'None'
p1001
sg24
I903
sg25
S'N2O'
p1002
sg27
Nsg28
S'heterogeneous'
p1003
sg30
F2.5
sg31
g32
sg33
g34
sba(iexpclass
expclass
p1004
(dp1005
g6
S'pyrophosphate'
p1006
sg8
S'gas'
p1007
sg10
F0.05370317963702527
sg11
S'Polniser'
p1008
sg13
S'10.1016/j.apcata.2011.04.022'
p1009
sg15
F-1.27
sg16
S'no'
p1010
sg18
S'Cu-Fe'
p1011
sg20
g21
sg22
S'None'
p1012
sg24
I903
sg25
S'N2O'
p1013
sg27
Nsg28
S'heterogeneous'
p1014
sg30
F2.3
sg31
g32
sg33
g34
sba(iexpclass
expclass
p1015
(dp1016
g6
S'pyrophosphate'
p1017
sg8
S'gas'
p1018
sg10
F0.01513561248436208
sg11
S'Polniser'
p1019
sg13
S'10.1016/j.apcata.2011.04.022'
p1020
sg15
F-1.82
sg16
S'no'
p1021
sg18
S'Cu-Fe'
p1022
sg20
g21
sg22
S'None'
p1023
sg24
I903
sg25
S'N2O'
p1024
sg27
Nsg28
S'heterogeneous'
p1025
sg30
F9.1
sg31
g32
sg33
g34
sba(iexpclass
expclass
p1026
(dp1027
g6
S'pyrophosphate'
p1028
sg8
S'gas'
p1029
sg10
F0.012882495516931342
sg11
S'Polniser'
p1030
sg13
S'10.1016/j.apcata.2011.04.022'
p1031
sg15
F-1.89
sg16
S'no'
p1032
sg18
S'Cu-Fe'
p1033
sg20
g21
sg22
S'None'
p1034
sg24
I903
sg25
S'N2O'
p1035
sg27
Nsg28
S'heterogeneous'
p1036
sg30
F10.1
sg31
g32
sg33
g34
sba(iexpclass
expclass
p1037
(dp1038
g6
S'MoO3'
p1039
sg8
S'gas'
p1040
sg10
F0.003019951720402016
sg11
S'Taylor'
p1041
sg13
S'10.1016/S0920-5861(98)00095-9'
p1042
sg15
F-2.52
sg16
S'no'
p1043
sg18
S'Mo'
p1044
sg20
g21
sg22
S'None'
p1045
sg24
I723
sg25
S'O2'
p1046
sg27
Nsg28
S'heterogeneous'
p1047
sg30
F11.0
sg31
S'm'
p1048
sg33
g34
sba(iexpclass
expclass
p1049
(dp1050
g6
S'MoO3'
p1051
sg8
S'gas'
p1052
sg10
F0.012022644346174132
sg11
S'Taylor'
p1053
sg13
S'10.1016/S0920-5861(98)00095-9'
p1054
sg15
F-1.92
sg16
S'no'
p1055
sg18
S'Mo'
p1056
sg20
g21
sg22
S'None'
p1057
sg24
I773
sg25
S'O2'
p1058
sg27
Nsg28
S'heterogeneous'
p1059
sg30
F0.0
sg31
g1048
sg33
g34
sba(iexpclass
expclass
p1060
(dp1061
g6
S'MoO3'
p1062
sg8
S'gas'
p1063
sg10
F0.006025595860743574
sg11
S'Taylor'
p1064
sg13
S'10.1016/S0920-5861(98)00095-9'
p1065
sg15
F-2.22
sg16
S'no'
p1066
sg18
S'Cu'
p1067
sg20
g21
sg22
S'None'
p1068
sg24
I723
sg25
S'O2'
p1069
sg27
Nsg28
S'heterogeneous'
p1070
sg30
F19.0
sg31
S'goldenrod'
p1071
sg33
g34
sba(iexpclass
expclass
p1072
(dp1073
g6
S'MoO3'
p1074
sg8
S'gas'
p1075
sg10
F0.04168693834703355
sg11
S'Taylor'
p1076
sg13
S'10.1016/S0920-5861(98)00095-9'
p1077
sg15
F-1.38
sg16
S'no'
p1078
sg18
S'Cu'
p1079
sg20
g21
sg22
S'None'
p1080
sg24
I773
sg25
S'O2'
p1081
sg27
Nsg28
S'heterogeneous'
p1082
sg30
F0.0
sg31
g1071
sg33
g34
sba(iexpclass
expclass
p1083
(dp1084
g6
S'MoO3'
p1085
sg8
S'gas'
p1086
sg10
F0.005011872336272725
sg11
S'Taylor'
p1087
sg13
S'10.1016/S0920-5861(98)00095-9'
p1088
sg15
F-2.3
sg16
S'no'
p1089
sg18
S'Co'
p1090
sg20
g21
sg22
S'None'
p1091
sg24
I723
sg25
S'O2'
p1092
sg27
Nsg28
S'heterogeneous'
p1093
sg30
F14.0
sg31
S'cyan'
p1094
sg33
g34
sba(iexpclass
expclass
p1095
(dp1096
g6
S'MoO3'
p1097
sg8
S'gas'
p1098
sg10
F0.028840315031266057
sg11
S'Taylor'
p1099
sg13
S'10.1016/S0920-5861(98)00095-9'
p1100
sg15
F-1.54
sg16
S'no'
p1101
sg18
S'Co'
p1102
sg20
g21
sg22
S'None'
p1103
sg24
I773
sg25
S'O2'
p1104
sg27
Nsg28
S'heterogeneous'
p1105
sg30
F0.0
sg31
g1094
sg33
g34
sba(iexpclass
expclass
p1106
(dp1107
g6
S'MoO3'
p1108
sg8
S'gas'
p1109
sg10
F0.005011872336272725
sg11
S'Taylor'
p1110
sg13
S'10.1016/S0920-5861(98)00095-9'
p1111
sg15
F-2.3
sg16
S'no'
p1112
sg18
S'Fe'
p1113
sg20
g21
sg22
S'None'
p1114
sg24
I723
sg25
S'O2'
p1115
sg27
Nsg28
S'heterogeneous'
p1116
sg30
F14.0
sg31
g32
sg33
g34
sba(iexpclass
expclass
p1117
(dp1118
g6
S'MoO3'
p1119
sg8
S'gas'
p1120
sg10
F0.03890451449942807
sg11
S'Taylor'
p1121
sg13
S'10.1016/S0920-5861(98)00095-9'
p1122
sg15
F-1.41
sg16
S'no'
p1123
sg18
S'Fe'
p1124
sg20
g21
sg22
S'None'
p1125
sg24
I773
sg25
S'O2'
p1126
sg27
Nsg28
S'heterogeneous'
p1127
sg30
F0.0
sg31
g32
sg33
g34
sba(iexpclass
expclass
p1128
(dp1129
g6
S'MoO3'
p1130
sg8
S'gas'
p1131
sg10
F0.006025595860743574
sg11
S'Taylor'
p1132
sg13
S'10.1016/S0920-5861(98)00095-9'
p1133
sg15
F-2.22
sg16
S'no'
p1134
sg18
g735
sg20
g21
sg22
S'None'
p1135
sg24
I723
sg25
S'O2'
p1136
sg27
Nsg28
S'heterogeneous'
p1137
sg30
F0.0
sg31
g739
sg33
g34
sba(iexpclass
expclass
p1138
(dp1139
g6
S'MoO3'
p1140
sg8
S'gas'
p1141
sg10
F0.006025595860743574
sg11
S'Taylor'
p1142
sg13
S'10.1016/S0920-5861(98)00095-9'
p1143
sg15
F-2.22
sg16
S'no'
p1144
sg18
g735
sg20
g21
sg22
S'None'
p1145
sg24
I773
sg25
S'O2'
p1146
sg27
Nsg28
S'heterogeneous'
p1147
sg30
F0.0
sg31
g739
sg33
g34
sba(iexpclass
expclass
p1148
(dp1149
g6
S'MoO3'
p1150
sg8
S'gas'
p1151
sg10
F0.012882495516931342
sg11
S'Taylor'
p1152
sg13
S'10.1016/S0920-5861(98)00095-9'
p1153
sg15
F-1.89
sg16
S'no'
p1154
sg18
S'Ga'
p1155
sg20
g21
sg22
S'None'
p1156
sg24
I723
sg25
S'O2'
p1157
sg27
Nsg28
S'heterogeneous'
p1158
sg30
F10.0
sg31
S'green'
p1159
sg33
g34
sba(iexpclass
expclass
p1160
(dp1161
g6
S'MoO3'
p1162
sg8
S'gas'
p1163
sg10
F0.03235936569296283
sg11
S'Taylor'
p1164
sg13
S'10.1016/S0920-5861(98)00095-9'
p1165
sg15
F-1.49
sg16
S'no'
p1166
sg18
S'Ga'
p1167
sg20
g21
sg22
S'None'
p1168
sg24
I773
sg25
S'O2'
p1169
sg27
Nsg28
S'heterogeneous'
p1170
sg30
F0.0
sg31
g1159
sg33
g34
sba(iexpclass
expclass
p1171
(dp1172
g6
S'WO3'
p1173
sg8
S'gas'
p1174
sg10
F0.005011872336272725
sg11
S'Taylor'
p1175
sg13
S'10.1016/S0920-5861(98)00095-9'
p1176
sg15
F-2.3
sg16
S'no'
p1177
sg18
S'W'
p1178
sg20
g21
sg22
S'None'
p1179
sg24
I723
sg25
S'O2'
p1180
sg27
Nsg28
S'heterogeneous'
p1181
sg30
F6.0
sg31
S'orange'
p1182
sg33
g34
sba(iexpclass
expclass
p1183
(dp1184
g6
S'WO3'
p1185
sg8
S'gas'
p1186
sg10
F0.003981071705534973
sg11
S'Taylor'
p1187
sg13
S'10.1016/S0920-5861(98)00095-9'
p1188
sg15
F-2.4
sg16
S'no'
p1189
sg18
g1178
sg20
g21
sg22
S'None'
p1190
sg24
I773
sg25
S'O2'
p1191
sg27
Nsg28
S'heterogeneous'
p1192
sg30
F0.0
sg31
g1182
sg33
g34
sba(iexpclass
expclass
p1193
(dp1194
g6
S'WO3'
p1195
sg8
S'gas'
p1196
sg10
F0.003019951720402016
sg11
S'Taylor'
p1197
sg13
S'10.1016/S0920-5861(98)00095-9'
p1198
sg15
F-2.52
sg16
S'no'
p1199
sg18
S'Cu'
p1200
sg20
g21
sg22
S'None'
p1201
sg24
I723
sg25
S'O2'
p1202
sg27
Nsg28
S'heterogeneous'
p1203
sg30
F0.0
sg31
g1071
sg33
g34
sba(iexpclass
expclass
p1204
(dp1205
g6
S'WO3'
p1206
sg8
S'gas'
p1207
sg10
F0.003981071705534973
sg11
S'Taylor'
p1208
sg13
S'10.1016/S0920-5861(98)00095-9'
p1209
sg15
F-2.4
sg16
S'no'
p1210
sg18
S'Cu'
p1211
sg20
g21
sg22
S'None'
p1212
sg24
I773
sg25
S'O2'
p1213
sg27
Nsg28
S'heterogeneous'
p1214
sg30
F0.0
sg31
g1071
sg33
g34
sba(iexpclass
expclass
p1215
(dp1216
g6
S'WO3'
p1217
sg8
S'gas'
p1218
sg10
F0.012022644346174132
sg11
S'Taylor'
p1219
sg13
S'10.1016/S0920-5861(98)00095-9'
p1220
sg15
F-1.92
sg16
S'no'
p1221
sg18
S'Co'
p1222
sg20
g21
sg22
S'None'
p1223
sg24
I723
sg25
S'O2'
p1224
sg27
Nsg28
S'heterogeneous'
p1225
sg30
F0.0
sg31
g1094
sg33
g34
sba(iexpclass
expclass
p1226
(dp1227
g6
S'WO3'
p1228
sg8
S'gas'
p1229
sg10
F0.003981071705534973
sg11
S'Taylor'
p1230
sg13
S'10.1016/S0920-5861(98)00095-9'
p1231
sg15
F-2.4
sg16
S'no'
p1232
sg18
S'Co'
p1233
sg20
g21
sg22
S'None'
p1234
sg24
I773
sg25
S'O2'
p1235
sg27
Nsg28
S'heterogeneous'
p1236
sg30
F0.0
sg31
g1094
sg33
g34
sba(iexpclass
expclass
p1237
(dp1238
g6
S'WO3'
p1239
sg8
S'gas'
p1240
sg10
F0.001995262314968879
sg11
S'Taylor'
p1241
sg13
S'10.1016/S0920-5861(98)00095-9'
p1242
sg15
F-2.7
sg16
S'no'
p1243
sg18
S'Fe'
p1244
sg20
g21
sg22
S'None'
p1245
sg24
I723
sg25
S'O2'
p1246
sg27
Nsg28
S'heterogeneous'
p1247
sg30
F0.0
sg31
g32
sg33
g34
sba(iexpclass
expclass
p1248
(dp1249
g6
S'WO3'
p1250
sg8
S'gas'
p1251
sg10
F0.006025595860743574
sg11
S'Taylor'
p1252
sg13
S'10.1016/S0920-5861(98)00095-9'
p1253
sg15
F-2.22
sg16
S'no'
p1254
sg18
S'Fe'
p1255
sg20
g21
sg22
S'None'
p1256
sg24
I773
sg25
S'O2'
p1257
sg27
Nsg28
S'heterogeneous'
p1258
sg30
F0.0
sg31
g32
sg33
g34
sba(iexpclass
expclass
p1259
(dp1260
g6
S'WO3'
p1261
sg8
S'gas'
p1262
sg10
F0.007943282347242814
sg11
S'Taylor'
p1263
sg13
S'10.1016/S0920-5861(98)00095-9'
p1264
sg15
F-2.1
sg16
S'no'
p1265
sg18
g735
sg20
g21
sg22
S'None'
p1266
sg24
I723
sg25
S'O2'
p1267
sg27
Nsg28
S'heterogeneous'
p1268
sg30
F16.0
sg31
g739
sg33
g34
sba(iexpclass
expclass
p1269
(dp1270
g6
S'WO3'
p1271
sg8
S'gas'
p1272
sg10
F0.012022644346174132
sg11
S'Taylor'
p1273
sg13
S'10.1016/S0920-5861(98)00095-9'
p1274
sg15
F-1.92
sg16
S'no'
p1275
sg18
g735
sg20
g21
sg22
S'None'
p1276
sg24
I773
sg25
S'O2'
p1277
sg27
Nsg28
S'heterogeneous'
p1278
sg30
F0.0
sg31
g739
sg33
g34
sba(iexpclass
expclass
p1279
(dp1280
g6
S'WO3'
p1281
sg8
S'gas'
p1282
sg10
F0.003981071705534973
sg11
S'Taylor'
p1283
sg13
S'10.1016/S0920-5861(98)00095-9'
p1284
sg15
F-2.4
sg16
S'no'
p1285
sg18
S'Ga'
p1286
sg20
g21
sg22
S'None'
p1287
sg24
I723
sg25
S'O2'
p1288
sg27
Nsg28
S'heterogeneous'
p1289
sg30
F11.0
sg31
g1159
sg33
g34
sba(iexpclass
expclass
p1290
(dp1291
g6
S'WO3'
p1292
sg8
S'gas'
p1293
sg10
F0.018197008586099836
sg11
S'Taylor'
p1294
sg13
S'10.1016/S0920-5861(98)00095-9'
p1295
sg15
F-1.74
sg16
S'no'
p1296
sg18
S'Ga'
p1297
sg20
g21
sg22
S'None'
p1298
sg24
I773
sg25
S'O2'
p1299
sg27
Nsg28
S'heterogeneous'
p1300
sg30
F0.0
sg31
g1159
sg33
g34
sba(iexpclass
expclass
p1301
(dp1302
g6
S'Ga2O3/MoO3'
p1303
sg8
S'gas'
p1304
sg10
F0.03019951720402016
sg11
S'Taylor'
p1305
sg13
S'10.1016/S0920-5861(98)00095-9'
p1306
sg15
F-1.52
sg16
S'no'
p1307
sg18
S'Ga'
p1308
sg20
g21
sg22
S'None'
p1309
sg24
I723
sg25
S'O2'
p1310
sg27
Nsg28
S'heterogeneous'
p1311
sg30
F22.0
sg31
g1159
sg33
g34
sba(iexpclass
expclass
p1312
(dp1313
g6
S'Ga2O3/MoO4'
p1314
sg8
S'gas'
p1315
sg10
F0.030902954325135904
sg11
S'Taylor'
p1316
sg13
S'10.1016/S0920-5861(98)00095-9'
p1317
sg15
F-1.51
sg16
S'no'
p1318
sg18
S'Ga'
p1319
sg20
g21
sg22
S'None'
p1320
sg24
I773
sg25
S'O2'
p1321
sg27
Nsg28
S'heterogeneous'
p1322
sg30
F0.0
sg31
g1159
sg33
g34
sba(iexpclass
expclass
p1323
(dp1324
g6
S'ZnO/MoO3'
p1325
sg8
S'gas'
p1326
sg10
F0.003981071705534973
sg11
S'Taylor'
p1327
sg13
S'10.1016/S0920-5861(98)00095-9'
p1328
sg15
F-2.4
sg16
S'no'
p1329
sg18
S'Zn'
p1330
sg20
g21
sg22
S'None'
p1331
sg24
I728
sg25
S'O2'
p1332
sg27
Nsg28
S'heterogeneous'
p1333
sg30
F0.0
sg31
S'grey'
p1334
sg33
g34
sba(iexpclass
expclass
p1335
(dp1336
g6
S'ZnO/MoO4'
p1337
sg8
S'gas'
p1338
sg10
F0.03630780547701014
sg11
S'Taylor'
p1339
sg13
S'10.1016/S0920-5861(98)00095-9'
p1340
sg15
F-1.44
sg16
S'no'
p1341
sg18
S'Zn'
p1342
sg20
g21
sg22
S'None'
p1343
sg24
I773
sg25
S'O2'
p1344
sg27
Nsg28
S'heterogeneous'
p1345
sg30
F0.0
sg31
g1334
sg33
g34
sba(iexpclass
expclass
p1346
(dp1347
g6
S'Ga2O3'
p1348
sg8
S'gas'
p1349
sg10
F0.01513561248436208
sg11
S'Taylor'
p1350
sg13
S'10.1016/S0920-5861(98)00095-9'
p1351
sg15
F-1.82
sg16
S'no'
p1352
sg18
S'Ga'
p1353
sg20
g21
sg22
S'None'
p1354
sg24
I723
sg25
S'O2'
p1355
sg27
Nsg28
S'heterogeneous'
p1356
sg30
F3.0
sg31
g1159
sg33
g34
sba(iexpclass
expclass
p1357
(dp1358
g6
S'Ga2O3'
p1359
sg8
S'gas'
p1360
sg10
F0.030902954325135904
sg11
S'Taylor'
p1361
sg13
S'10.1016/S0920-5861(98)00095-9'
p1362
sg15
F-1.51
sg16
S'no'
p1363
sg18
S'Ga'
p1364
sg20
g21
sg22
S'None'
p1365
sg24
I773
sg25
S'O2'
p1366
sg27
Nsg28
S'heterogeneous'
p1367
sg30
F0.0
sg31
g1159
sg33
g34
sba(iexpclass
expclass
p1368
(dp1369
g6
S'quartz-packing'
p1370
sg8
S'gas'
p1371
sg10
F0.003981071705534973
sg11
S'Taylor'
p1372
sg13
S'10.1016/S0920-5861(98)00095-9'
p1373
sg15
F-2.4
sg16
S'yes'
p1374
sg18
S'Gas-Phase(Radical)'
p1375
sg20
g21
sg22
S'None'
p1376
sg24
I723
sg25
S'O2'
p1377
sg27
Nsg28
S'heterogeneous'
p1378
sg30
F0.0
sg31
g1334
sg33
g34
sba(iexpclass
expclass
p1379
(dp1380
g6
S'quartz-packing'
p1381
sg8
S'gas'
p1382
sg10
F0.034673685045253165
sg11
S'Taylor'
p1383
sg13
S'10.1016/S0920-5861(98)00095-9'
p1384
sg15
F-1.46
sg16
S'yes'
p1385
sg18
g1375
sg20
g21
sg22
S'None'
p1386
sg24
I748
sg25
S'O2'
p1387
sg27
Nsg28
S'heterogeneous'
p1388
sg30
F15.0
sg31
g1334
sg33
g34
sba(iexpclass
expclass
p1389
(dp1390
g6
S'quartz-packing'
p1391
sg8
S'gas'
p1392
sg10
F0.034673685045253165
sg11
S'Taylor'
p1393
sg13
S'10.1016/S0920-5861(98)00095-9'
p1394
sg15
F-1.46
sg16
S'yes'
p1395
sg18
g1375
sg20
g21
sg22
S'None'
p1396
sg24
I773
sg25
S'O2'
p1397
sg27
Nsg28
S'heterogeneous'
p1398
sg30
F15.0
sg31
g1334
sg33
g34
sba(iexpclass
expclass
p1399
(dp1400
g6
S'quartz-packing'
p1401
sg8
S'gas'
p1402
sg10
F0.0812830516164099
sg11
S'Taylor'
p1403
sg13
S'10.1016/S0920-5861(98)00095-9'
p1404
sg15
F-1.09
sg16
S'yes'
p1405
sg18
g1375
sg20
g21
sg22
S'None'
p1406
sg24
I723
sg25
S'O2'
p1407
sg27
Nsg28
S'heterogeneous'
p1408
sg30
F29.0
sg31
g1334
sg33
g34
sba(iexpclass
expclass
p1409
(dp1410
g6
S'empty-tube'
p1411
sg8
S'gas'
p1412
sg10
F0.07943282347242814
sg11
S'Taylor'
p1413
sg13
S'10.1016/S0920-5861(98)00095-9'
p1414
sg15
F-1.1
sg16
S'yes'
p1415
sg18
g1375
sg20
g21
sg22
S'None'
p1416
sg24
I773
sg25
S'O2'
p1417
sg27
Nsg28
S'heterogeneous'
p1418
sg30
F19.0
sg31
g1334
sg33
g34
sba(iexpclass
expclass
p1419
(dp1420
g6
S'FePO4/SiO2'
p1421
sg8
S'gas'
p1422
sg10
F0.015848931924611134
sg11
S'McCormick'
p1423
sg13
S'10.1016/S0920-5861(99)00243-6'
p1424
sg15
F-1.8
sg16
S'no'
p1425
sg18
S'Fe'
p1426
sg20
g21
sg22
S'None'
p1427
sg24
I873
sg25
S'O2'
p1428
sg27
Nsg28
S'heterogeneous'
p1429
sg30
F2.0
sg31
g32
sg33
g34
sba(iexpclass
expclass
p1430
(dp1431
g6
S'FePO4/SiO3'
p1432
sg8
S'gas'
p1433
sg10
F0.016982436524617443
sg11
S'McCormick'
p1434
sg13
S'10.1016/S0920-5861(99)00243-6'
p1435
sg15
F-1.77
sg16
S'no'
p1436
sg18
S'Fe'
p1437
sg20
g21
sg22
S'None'
p1438
sg24
I873
sg25
S'O2'
p1439
sg27
Nsg28
S'heterogeneous'
p1440
sg30
F1.0
sg31
g32
sg33
g34
sba(iexpclass
expclass
p1441
(dp1442
g6
S'FePO4/SiO4'
p1443
sg8
S'gas'
p1444
sg10
F0.00707945784384138
sg11
S'McCormick'
p1445
sg13
S'10.1016/S0920-5861(99)00243-6'
p1446
sg15
F-2.15
sg16
S'no'
p1447
sg18
S'Fe'
p1448
sg20
g21
sg22
S'None'
p1449
sg24
I873
sg25
S'O2'
p1450
sg27
Nsg28
S'heterogeneous'
p1451
sg30
F5.746112338
sg31
g32
sg33
g34
sba(iexpclass
expclass
p1452
(dp1453
g6
S'FePO4/SiO5'
p1454
sg8
S'gas'
p1455
sg10
F0.011220184543019636
sg11
S'McCormick'
p1456
sg13
S'10.1016/S0920-5861(99)00243-6'
p1457
sg15
F-1.95
sg16
S'no'
p1458
sg18
S'Fe'
p1459
sg20
g21
sg22
S'None'
p1460
sg24
I873
sg25
S'O2'
p1461
sg27
Nsg28
S'heterogeneous'
p1462
sg30
F4.36750074
sg31
g32
sg33
g34
sba(iexpclass
expclass
p1463
(dp1464
g6
S'FePO4/SiO6'
p1465
sg8
S'gas'
p1466
sg10
F0.018197008586099836
sg11
S'McCormick'
p1467
sg13
S'10.1016/S0920-5861(99)00243-6'
p1468
sg15
F-1.74
sg16
S'no'
p1469
sg18
S'Fe'
p1470
sg20
g21
sg22
S'None'
p1471
sg24
I873
sg25
S'O2'
p1472
sg27
Nsg28
S'heterogeneous'
p1473
sg30
F1.780469479
sg31
g32
sg33
g34
sba(iexpclass
expclass
p1474
(dp1475
g6
S'FePO4/SiO7'
p1476
sg8
S'gas'
p1477
sg10
F0.024547089156850298
sg11
S'McCormick'
p1478
sg13
S'10.1016/S0920-5861(99)00243-6'
p1479
sg15
F-1.61
sg16
S'no'
p1480
sg18
S'Fe'
p1481
sg20
g21
sg22
S'None'
p1482
sg24
I873
sg25
S'O2'
p1483
sg27
Nsg28
S'heterogeneous'
p1484
sg30
F1.622800027
sg31
g32
sg33
g34
sba(iexpclass
expclass
p1485
(dp1486
g6
S'FePO4/SiO8'
p1487
sg8
S'gas'
p1488
sg10
F0.030902954325135904
sg11
S'McCormick'
p1489
sg13
S'10.1016/S0920-5861(99)00243-6'
p1490
sg15
F-1.51
sg16
S'no'
p1491
sg18
S'Fe'
p1492
sg20
g21
sg22
S'None'
p1493
sg24
I873
sg25
S'O2'
p1494
sg27
Nsg28
S'heterogeneous'
p1495
sg30
F1.292092621
sg31
g32
sg33
g34
sba(iexpclass
expclass
p1496
(dp1497
g6
S'FePO4/SiO9'
p1498
sg8
S'gas'
p1499
sg10
F0.03311311214825911
sg11
S'McCormick'
p1500
sg13
S'10.1016/S0920-5861(99)00243-6'
p1501
sg15
F-1.48
sg16
S'no'
p1502
sg18
S'Fe'
p1503
sg20
g21
sg22
S'None'
p1504
sg24
I873
sg25
S'O2'
p1505
sg27
Nsg28
S'heterogeneous'
p1506
sg30
F1.123608297
sg31
g32
sg33
g34
sba(iexpclass
expclass
p1507
(dp1508
g6
S'V2O5/silicate'
p1509
sg8
S'gas'
p1510
sg10
F0.03019951720402016
sg11
S'Berndt'
p1511
sg13
S'10.1006/jcat.1999.2786'
p1512
sg15
F-1.52
sg16
S'no'
p1513
sg18
g735
sg20
g21
sg22
S'None'
p1514
sg24
I868
sg25
S'O2'
p1515
sg27
Nsg28
S'heterogeneous'
p1516
sg30
F0.7
sg31
g739
sg33
g34
sba(iexpclass
expclass
p1517
(dp1518
g6
S'V2O5/silicate'
p1519
sg8
S'gas'
p1520
sg10
F0.06606934480075961
sg11
S'Berndt'
p1521
sg13
S'10.1006/jcat.1999.2786'
p1522
sg15
F-1.18
sg16
S'no'
p1523
sg18
g735
sg20
g21
sg22
S'None'
p1524
sg24
I897
sg25
S'O2'
p1525
sg27
Nsg28
S'heterogeneous'
p1526
sg30
F0.4
sg31
g739
sg33
g34
sba(iexpclass
expclass
p1527
(dp1528
g6
S'V2O5/silicate'
p1529
sg8
S'gas'
p1530
sg10
F0.0933254300796991
sg11
S'Berndt'
p1531
sg13
S'10.1006/jcat.1999.2786'
p1532
sg15
F-1.03
sg16
S'no'
p1533
sg18
g735
sg20
g21
sg22
S'None'
p1534
sg24
I924
sg25
S'O2'
p1535
sg27
Nsg28
S'heterogeneous'
p1536
sg30
F0.3
sg31
g739
sg33
g34
sba(iexpclass
expclass
p1537
(dp1538
g6
S'V2O5/silicate'
p1539
sg8
S'gas'
p1540
sg10
F0.03235936569296283
sg11
S'Berndt'
p1541
sg13
S'10.1006/jcat.1999.2786'
p1542
sg15
F-1.49
sg16
S'no'
p1543
sg18
g735
sg20
g21
sg22
S'None'
p1544
sg24
I868
sg25
S'O2'
p1545
sg27
Nsg28
S'heterogeneous'
p1546
sg30
F0.6
sg31
g739
sg33
g34
sba(iexpclass
expclass
p1547
(dp1548
g6
S'V2O5/silicate'
p1549
sg8
S'gas'
p1550
sg10
F0.05370317963702527
sg11
S'Berndt'
p1551
sg13
S'10.1006/jcat.1999.2786'
p1552
sg15
F-1.27
sg16
S'no'
p1553
sg18
g735
sg20
g21
sg22
S'None'
p1554
sg24
I899
sg25
S'O2'
p1555
sg27
Nsg28
S'heterogeneous'
p1556
sg30
F0.2
sg31
g739
sg33
g34
sba(iexpclass
expclass
p1557
(dp1558
g6
S'V2O5/silicate'
p1559
sg8
S'gas'
p1560
sg10
F0.1
sg11
S'Berndt'
p1561
sg13
S'10.1006/jcat.1999.2786'
p1562
sg15
F-1.0
sg16
S'no'
p1563
sg18
g735
sg20
g21
sg22
S'None'
p1564
sg24
I906
sg25
S'O2'
p1565
sg27
Nsg28
S'heterogeneous'
p1566
sg30
F2.0
sg31
g739
sg33
g34
sba(iexpclass
expclass
p1567
(dp1568
g6
S'V2O5/silicate'
p1569
sg8
S'gas'
p1570
sg10
F0.1096478196143185
sg11
S'Berndt'
p1571
sg13
S'10.1006/jcat.1999.2786'
p1572
sg15
F-0.96
sg16
S'no'
p1573
sg18
g735
sg20
g21
sg22
S'None'
p1574
sg24
I929
sg25
S'O2'
p1575
sg27
Nsg28
S'heterogeneous'
p1576
sg30
F0.2
sg31
g739
sg33
g34
sba(iexpclass
expclass
p1577
(dp1578
g6
S'V2O5/silicate'
p1579
sg8
S'gas'
p1580
sg10
F0.03162277660168379
sg11
S'Fornes'
p1581
sg13
S'10.1016/S0926-860X(03)00226-6'
p1582
sg15
F-1.5
sg16
S'no'
p1583
sg18
g735
sg20
g21
sg22
S'None'
p1584
sg24
I873
sg25
S'O2'
p1585
sg27
Nsg28
S'heterogeneous'
p1586
sg30
F0.2
sg31
g739
sg33
g34
sba(iexpclass
expclass
p1587
(dp1588
g6
S'V2O5/silicate'
p1589
sg8
S'gas'
p1590
sg10
F0.01412537544622754
sg11
S'Fornes'
p1591
sg13
S'10.1016/S0926-860X(03)00226-6'
p1592
sg15
F-1.85
sg16
S'no'
p1593
sg18
g735
sg20
g21
sg22
S'None'
p1594
sg24
I873
sg25
S'O2'
p1595
sg27
Nsg28
S'heterogeneous'
p1596
sg30
F0.2
sg31
g739
sg33
g34
sba(iexpclass
expclass
p1597
(dp1598
g6
S'V2O5/silicate'
p1599
sg8
S'gas'
p1600
sg10
F0.009120108393559097
sg11
S'Fornes'
p1601
sg13
S'10.1016/S0926-860X(03)00226-6'
p1602
sg15
F-2.04
sg16
S'no'
p1603
sg18
g735
sg20
g21
sg22
S'None'
p1604
sg24
I873
sg25
S'O2'
p1605
sg27
Nsg28
S'heterogeneous'
p1606
sg30
F0.4
sg31
g739
sg33
g34
sba(iexpclass
expclass
p1607
(dp1608
g6
S'V2O5/silicate'
p1609
sg8
S'gas'
p1610
sg10
F0.018197008586099836
sg11
S'Fornes'
p1611
sg13
S'10.1016/S0926-860X(03)00226-6'
p1612
sg15
F-1.74
sg16
S'no'
p1613
sg18
g735
sg20
g21
sg22
S'None'
p1614
sg24
I873
sg25
S'O2'
p1615
sg27
Nsg28
S'heterogeneous'
p1616
sg30
F0.4
sg31
g739
sg33
g34
sba(iexpclass
expclass
p1617
(dp1618
g6
S'V2O5/silicate'
p1619
sg8
S'gas'
p1620
sg10
F0.011748975549395297
sg11
S'Fornes'
p1621
sg13
S'10.1016/S0926-860X(03)00226-6'
p1622
sg15
F-1.93
sg16
S'no'
p1623
sg18
g735
sg20
g21
sg22
S'None'
p1624
sg24
I873
sg25
S'O2'
p1625
sg27
Nsg28
S'heterogeneous'
p1626
sg30
F0.5
sg31
g739
sg33
g34
sba(iexpclass
expclass
p1627
(dp1628
g6
S'V2O5/silicate'
p1629
sg8
S'gas'
p1630
sg10
F0.005754399373371567
sg11
S'Fornes'
p1631
sg13
S'10.1016/S0926-860X(03)00226-6'
p1632
sg15
F-2.24
sg16
S'no'
p1633
sg18
g735
sg20
g21
sg22
S'None'
p1634
sg24
I873
sg25
S'O2'
p1635
sg27
Nsg28
S'heterogeneous'
p1636
sg30
F0.8
sg31
g739
sg33
g34
sba(iexpclass
expclass
p1637
(dp1638
g6
S'MoO3/silica'
p1639
sg8
S'gas'
p1640
sg10
F0.005754399373371567
sg11
S'Sugino'
p1641
sg13
S'10.1006/jcat.1999.2732'
p1642
sg15
F-2.24
sg16
S'no'
p1643
sg18
S'Mo'
p1644
sg20
g21
sg22
S'None'
p1645
sg24
I773
sg25
S'O2'
p1646
sg27
Nsg28
S'heterogeneous'
p1647
sg30
F2.0
sg31
g1048
sg33
g34
sba(iexpclass
expclass
p1648
(dp1649
g6
S'MoO3/silica'
p1650
sg8
S'gas'
p1651
sg10
F0.012022644346174132
sg11
S'Sugino'
p1652
sg13
S'10.1006/jcat.1999.2732'
p1653
sg15
F-1.92
sg16
S'no'
p1654
sg18
S'Mo'
p1655
sg20
g21
sg22
S'None'
p1656
sg24
I823
sg25
S'O2'
p1657
sg27
Nsg28
S'heterogeneous'
p1658
sg30
F1.0
sg31
g1048
sg33
g34
sba(iexpclass
expclass
p1659
(dp1660
g6
S'MoO3/silica'
p1661
sg8
S'gas'
p1662
sg10
F0.039810717055349734
sg11
S'Sugino'
p1663
sg13
S'10.1006/jcat.1999.2732'
p1664
sg15
F-1.4
sg16
S'no'
p1665
sg18
S'Mo'
p1666
sg20
g21
sg22
S'None'
p1667
sg24
I873
sg25
S'O2'
p1668
sg27
Nsg28
S'heterogeneous'
p1669
sg30
F1.0
sg31
g1048
sg33
g34
sba(iexpclass
expclass
p1670
(dp1671
g6
S'MoO3/silica'
p1672
sg8
S'gas'
p1673
sg10
F0.06606934480075961
sg11
S'Sugino'
p1674
sg13
S'10.1006/jcat.1999.2732'
p1675
sg15
F-1.18
sg16
S'no'
p1676
sg18
S'Mo'
p1677
sg20
g21
sg22
S'None'
p1678
sg24
I923
sg25
S'O2'
p1679
sg27
Nsg28
S'heterogeneous'
p1680
sg30
F0.0
sg31
g1048
sg33
g34
sba(iexpclass
expclass
p1681
(dp1682
g6
S'MoO3/silica'
p1683
sg8
S'gas'
p1684
sg10
F0.01
sg11
S'Sugino'
p1685
sg13
S'10.1006/jcat.1999.2732'
p1686
sg15
F-2.0
sg16
S'no'
p1687
sg18
S'Mo'
p1688
sg20
g21
sg22
S'None'
p1689
sg24
I773
sg25
S'O2'
p1690
sg27
Nsg28
S'heterogeneous'
p1691
sg30
F13.0
sg31
g1048
sg33
g34
sba(iexpclass
expclass
p1692
(dp1693
g6
S'MoO3/silica'
p1694
sg8
S'gas'
p1695
sg10
F0.028840315031266057
sg11
S'Sugino'
p1696
sg13
S'10.1006/jcat.1999.2732'
p1697
sg15
F-1.54
sg16
S'no'
p1698
sg18
S'Mo'
p1699
sg20
g21
sg22
S'None'
p1700
sg24
I823
sg25
S'O2'
p1701
sg27
Nsg28
S'heterogeneous'
p1702
sg30
F8.0
sg31
g1048
sg33
g34
sba(iexpclass
expclass
p1703
(dp1704
g6
S'MoO3/silica'
p1705
sg8
S'gas'
p1706
sg10
F0.0812830516164099
sg11
S'Sugino'
p1707
sg13
S'10.1006/jcat.1999.2732'
p1708
sg15
F-1.09
sg16
S'no'
p1709
sg18
S'Mo'
p1710
sg20
g21
sg22
S'None'
p1711
sg24
I873
sg25
S'O2'
p1712
sg27
Nsg28
S'heterogeneous'
p1713
sg30
F11.0
sg31
g1048
sg33
g34
sba(iexpclass
expclass
p1714
(dp1715
g6
S'MoO3/silica'
p1716
sg8
S'gas'
p1717
sg10
F0.12022644346174129
sg11
S'Sugino'
p1718
sg13
S'10.1006/jcat.1999.2732'
p1719
sg15
F-0.92
sg16
S'no'
p1720
sg18
S'Mo'
p1721
sg20
g21
sg22
S'None'
p1722
sg24
I923
sg25
S'O2'
p1723
sg27
Nsg28
S'heterogeneous'
p1724
sg30
F4.0
sg31
g1048
sg33
g34
sba(iexpclass
expclass
p1725
(dp1726
g6
S'MoO3-ZnO/alumina-silicate'
p1727
sg8
S'gas'
p1728
sg10
F0.022908676527677734
sg11
S'dowden'
p1729
sg13
S'GB1244001A'
p1730
sg15
F-1.64
sg16
S'no'
p1731
sg18
S'Mo'
p1732
sg20
g21
sg22
S'None'
p1733
sg24
I766
sg25
S'O2'
p1734
sg27
Nsg28
S'heterogeneous'
p1735
sg30
F51.0
sg31
g1048
sg33
g34
sba(iexpclass
expclass
p1736
(dp1737
g6
S'(MoO3)3-Fe2O3/alumina-silica'
p1738
sg8
S'gas'
p1739
sg10
F0.020892961308540396
sg11
S'dowden'
p1740
sg13
S'GB1244001A'
p1741
sg15
F-1.68
sg16
S'no'
p1742
sg18
S'Mo'
p1743
sg20
g21
sg22
S'None'
p1744
sg24
I712
sg25
S'O2'
p1745
sg27
Nsg28
S'heterogeneous'
p1746
sg30
F65.0
sg31
g1048
sg33
g34
sba(iexpclass
expclass
p1747
(dp1748
g6
S'MoO3-UO2/alumina-silica'
p1749
sg8
S'gas'
p1750
sg10
F0.034673685045253165
sg11
S'dowden'
p1751
sg13
S'GB1244001A'
p1752
sg15
F-1.46
sg16
S'no'
p1753
sg18
S'Mo'
p1754
sg20
g21
sg22
S'None'
p1755
sg24
I743
sg25
S'O2'
p1756
sg27
Nsg28
S'heterogeneous'
p1757
sg30
F75.0
sg31
g1048
sg33
g34
sba(iexpclass
expclass
p1758
(dp1759
g6
S'MoO3-VO2/alumina-silica'
p1760
sg8
S'gas'
p1761
sg10
F0.025703957827688632
sg11
S'dowden'
p1762
sg13
S'GB1244001A'
p1763
sg15
F-1.59
sg16
S'no'
p1764
sg18
S'Mo'
p1765
sg20
g21
sg22
S'None'
p1766
sg24
I766
sg25
S'O2'
p1767
sg27
Nsg28
S'heterogeneous'
p1768
sg30
F49.0
sg31
g1048
sg33
g34
sba(iexpclass
expclass
p1769
(dp1770
g6
S'MoO3/alumina-silica'
p1771
sg8
S'gas'
p1772
sg10
F0.022908676527677734
sg11
S'dowden'
p1773
sg13
S'GB1244001A'
p1774
sg15
F-1.64
sg16
S'no'
p1775
sg18
S'Mo'
p1776
sg20
g21
sg22
S'None'
p1777
sg24
I733
sg25
S'O2'
p1778
sg27
Nsg28
S'heterogeneous'
p1779
sg30
F19.0
sg31
g1048
sg33
g34
sba(iexpclass
expclass
p1780
(dp1781
g6
S'MoOx/La-Co-O'
p1782
sg8
S'gas'
p1783
sg10
F0.08912509381337455
sg11
S'Zhang'
p1784
sg13
S'10.1007/s11244-005-2894-5'
p1785
sg15
F-1.05
sg16
S'no'
p1786
sg18
S'Mo'
p1787
sg20
g21
sg22
S'None'
p1788
sg24
I693
sg25
S'O2'
p1789
sg27
Nsg28
S'heterogeneous'
p1790
sg30
F28.8
sg31
g1048
sg33
g34
sba(iexpclass
expclass
p1791
(dp1792
g6
S'MoOx/La-Co-O'
p1793
sg8
S'gas'
p1794
sg10
F0.11220184543019636
sg11
S'Zhang'
p1795
sg13
S'10.1007/s11244-005-2894-6'
p1796
sg15
F-0.95
sg16
S'no'
p1797
sg18
S'Mo'
p1798
sg20
g21
sg22
S'None'
p1799
sg24
I693
sg25
S'O2'
p1800
sg27
Nsg28
S'heterogeneous'
p1801
sg30
F60.0
sg31
g1048
sg33
g34
sba(iexpclass
expclass
p1802
(dp1803
g6
S'MoOx/La-Co-O'
p1804
sg8
S'gas'
p1805
sg10
F0.1148153621496883
sg11
S'Zhang'
p1806
sg13
S'10.1007/s11244-005-2894-7'
p1807
sg15
F-0.94
sg16
S'no'
p1808
sg18
S'Mo'
p1809
sg20
g21
sg22
S'None'
p1810
sg24
I693
sg25
S'O2'
p1811
sg27
Nsg28
S'heterogeneous'
p1812
sg30
F33.2
sg31
g1048
sg33
g34
sba(iexpclass
expclass
p1813
(dp1814
g6
S'Mo-V-Cr-Bi'
p1815
sg8
S'gas'
p1816
sg10
F0.1
sg11
S'Zhang'
p1817
sg13
S'10.1016/S1003-9953(08)60021-3'
p1818
sg15
F-1.0
sg16
S'no'
p1819
sg18
S'Mo'
p1820
sg20
g21
sg22
S'None'
p1821
sg24
I753
sg25
S'O2'
p1822
sg27
Nsg28
S'heterogeneous'
p1823
sg30
F41.0
sg31
g1048
sg33
g34
sba(iexpclass
expclass
p1824
(dp1825
g6
S'SSZ-13'
p1826
sg8
S'gas'
p1827
sg10
F0.00015848931924611142
sg11
S'Lobo'
p1828
sg13
S'10.1039/C6CC07893A'
p1829
sg15
F-3.8
sg16
S'yes'
p1830
sg18
S'Cu'
p1831
sg20
g21
sg22
S'None'
p1832
sg24
I523
sg25
S'N2O'
p1833
sg27
Nsg28
S'heterogeneous'
p1834
sg30
F24.0
sg31
g1071
sg33
g34
sba(iexpclass
expclass
p1835
(dp1836
g6
S'SSZ-13'
p1837
sg8
S'gas'
p1838
sg10
F0.00021877616239495518
sg11
S'Lobo'
p1839
sg13
S'10.1039/C6CC07893A'
p1840
sg15
F-3.66
sg16
S'yes'
p1841
sg18
S'Cu'
p1842
sg20
g21
sg22
S'None'
p1843
sg24
I533
sg25
S'N2O'
p1844
sg27
Nsg28
S'heterogeneous'
p1845
sg30
F27.0
sg31
g1071
sg33
g34
sba(iexpclass
expclass
p1846
(dp1847
g6
S'SSZ-13'
p1848
sg8
S'gas'
p1849
sg10
F0.0003235936569296281
sg11
S'Lobo'
p1850
sg13
S'10.1039/C6CC07893A'
p1851
sg15
F-3.49
sg16
S'yes'
p1852
sg18
S'Cu'
p1853
sg20
g21
sg22
S'None'
p1854
sg24
I538
sg25
S'N2O'
p1855
sg27
Nsg28
S'heterogeneous'
p1856
sg30
F20.7
sg31
g1071
sg33
g34
sba(iexpclass
expclass
p1857
(dp1858
g6
S'SSZ-13'
p1859
sg8
S'gas'
p1860
sg10
F0.0005495408738576248
sg11
S'Lobo'
p1861
sg13
S'10.1039/C6CC07893A'
p1862
sg15
F-3.26
sg16
S'yes'
p1863
sg18
S'Cu'
p1864
sg20
g21
sg22
S'None'
p1865
sg24
I543
sg25
S'N2O'
p1866
sg27
Nsg28
S'heterogeneous'
p1867
sg30
F15.8
sg31
g1071
sg33
g34
sba(iexpclass
expclass
p1868
(dp1869
g6
S'SSZ-13'
p1870
sg8
S'gas'
p1871
sg10
F0.0009332543007969915
sg11
S'Lobo'
p1872
sg13
S'10.1039/C6CC07893A'
p1873
sg15
F-3.03
sg16
S'yes'
p1874
sg18
S'Cu'
p1875
sg20
g21
sg22
S'None'
p1876
sg24
I548
sg25
S'N2O'
p1877
sg27
Nsg28
S'heterogeneous'
p1878
sg30
F11.4
sg31
g1071
sg33
g34
sba(iexpclass
expclass
p1879
(dp1880
g6
S'SSZ-13'
p1881
sg8
S'gas'
p1882
sg10
F0.007585775750291836
sg11
S'Lobo'
p1883
sg13
S'10.1039/C6CC07893A'
p1884
sg15
F-2.12
sg16
S'yes'
p1885
sg18
S'Cu'
p1886
sg20
g21
sg22
S'None'
p1887
sg24
I573
sg25
S'N2O'
p1888
sg27
Nsg28
S'heterogeneous'
p1889
sg30
F2.3
sg31
g1071
sg33
g34
sba(iexpclass
expclass
p1890
(dp1891
g6
S'SSZ-13'
p1892
sg8
S'gas'
p1893
sg10
F0.001202264434617413
sg11
S'Lobo'
p1894
sg13
S'10.1039/C6CC07893A'
p1895
sg15
F-2.92
sg16
S'yes'
p1896
sg18
S'Cu'
p1897
sg20
g21
sg22
S'None'
p1898
sg24
I573
sg25
S'N2O'
p1899
sg27
Nsg28
S'heterogeneous'
p1900
sg30
F12.5
sg31
g1071
sg33
g34
sba(iexpclass
expclass
p1901
(dp1902
g6
S'SSZ-13'
p1903
sg8
S'gas'
p1904
sg10
F0.0012882495516931337
sg11
S'Lobo'
p1905
sg13
S'10.1039/C6CC07893A'
p1906
sg15
F-2.89
sg16
S'yes'
p1907
sg18
S'Cu'
p1908
sg20
g21
sg22
S'None'
p1909
sg24
I543
sg25
S'N2O'
p1910
sg27
Nsg28
S'heterogeneous'
p1911
sg30
F3.0
sg31
g1071
sg33
g34
sba(iexpclass
expclass
p1912
(dp1913
g6
S'SSZ-13'
p1914
sg8
S'gas'
p1915
sg10
F0.001202264434617413
sg11
S'Lobo'
p1916
sg13
S'10.1039/C6CC07893A'
p1917
sg15
F-2.92
sg16
S'yes'
p1918
sg18
S'Cu'
p1919
sg20
g21
sg22
S'None'
p1920
sg24
I573
sg25
S'N2O'
p1921
sg27
Nsg28
S'heterogeneous'
p1922
sg30
F2.0
sg31
g1071
sg33
g34
sba(iexpclass
expclass
p1923
(dp1924
g6
S'SSZ-13'
p1925
sg8
S'gas'
p1926
sg10
F0.00021877616239495518
sg11
S'Lobo'
p1927
sg13
S'10.1039/C6CC07893A'
p1928
sg15
F-3.66
sg16
S'yes'
p1929
sg18
S'Cu'
p1930
sg20
g21
sg22
S'None'
p1931
sg24
I543
sg25
S'N2O'
p1932
sg27
Nsg28
S'heterogeneous'
p1933
sg30
F39.7
sg31
g1071
sg33
g34
sba(iexpclass
expclass
p1934
(dp1935
g6
S'MOR'
p1936
sg8
S'gas'
p1937
sg10
F0.00012882495516931337
sg11
S'Lobo'
p1938
sg13
S'10.1039/C6CC07893A'
p1939
sg15
F-3.89
sg16
S'yes'
p1940
sg18
S'Cu'
p1941
sg20
g21
sg22
S'None'
p1942
sg24
I543
sg25
S'N2O'
p1943
sg27
Nsg28
S'heterogeneous'
p1944
sg30
F24.0
sg31
g1071
sg33
g34
sba(iexpclass
expclass
p1945
(dp1946
g6
S'MOR'
p1947
sg8
S'gas'
p1948
sg10
F0.000630957344480193
sg11
S'Lobo'
p1949
sg13
S'10.1039/C6CC07893A'
p1950
sg15
F-3.2
sg16
S'yes'
p1951
sg18
S'Cu'
p1952
sg20
g21
sg22
S'None'
p1953
sg24
I543
sg25
S'N2O'
p1954
sg27
Nsg28
S'heterogeneous'
p1955
sg30
F1.1
sg31
g1071
sg33
g34
sba(iexpclass
expclass
p1956
(dp1957
g6
S'ZSM-5'
p1958
sg8
S'gas'
p1959
sg10
F0.006760829753919818
sg11
S'Lobo'
p1960
sg13
S'10.1039/C6CC07893A'
p1961
sg15
F-2.17
sg16
S'yes'
p1962
sg18
S'Cu'
p1963
sg20
g21
sg22
S'None'
p1964
sg24
I543
sg25
S'N2O'
p1965
sg27
Nsg28
S'heterogeneous'
p1966
sg30
F0.3
sg31
g1071
sg33
g34
sba(iexpclass
expclass
p1967
(dp1968
g6
S'ZSM-5'
p1969
sg8
S'gas'
p1970
sg10
F1e-05
sg11
S'Leshkov'
p1971
sg13
S'10.1021/acscentsci.6b00139'
p1972
sg15
F-5.0
sg16
S'yes'
p1973
sg18
S'Cu'
p1974
sg20
g21
sg22
S'None'
p1975
sg24
I483
sg25
S'O2'
p1976
sg27
Nsg28
S'heterogeneous'
p1977
sg30
F71.0
sg31
g1071
sg33
g34
sba(iexpclass
expclass
p1978
(dp1979
g6
S'SSZ-13'
p1980
sg8
S'gas'
p1981
sg10
F0.001
sg11
S'Leshkov'
p1982
sg13
S'None'
p1983
sg15
F-3.0
sg16
S'yes'
p1984
sg18
S'Cu'
p1985
sg20
g21
sg22
S'thesis'
p1986
sg24
I623
sg25
S'O2'
p1987
sg27
Nsg28
S'heterogeneous'
p1988
sg30
F90.0
sg31
g1071
sg33
g34
sba(iexpclass
expclass
p1989
(dp1990
g6
S'ZSM-5'
p1991
sg8
S'aqueous'
p1992
sg10
F0.003019951720402016
sg11
S'Hutchings'
p1993
sg13
S'10.1002/anie.201108706'
p1994
sg15
F-2.52
sg16
S'yes'
p1995
sg18
S'Cu'
p1996
sg20
g21
sg22
S'None'
p1997
sg24
I323
sg25
S'H2O2'
p1998
sg27
Nsg28
S'heterogeneous'
p1999
sg30
F83.0
sg31
g1071
sg33
g34
sba(iexpclass
expclass
p2000
(dp2001
g6
S'Cu-Fe/ZSM-5'
p2002
sg8
S'aqueous'
p2003
sg10
F0.00707945784384138
sg11
S'Hutchings'
p2004
sg13
S'10.1002/anie.201108706'
p2005
sg15
F-2.15
sg16
S'yes'
p2006
sg18
S'Fe'
p2007
sg20
g21
sg22
S'None'
p2008
sg24
I323
sg25
S'H2O2'
p2009
sg27
Nsg28
S'heterogeneous'
p2010
sg30
F85.0
sg31
g32
sg33
g34
sba(iexpclass
expclass
p2011
(dp2012
g6
S'Cu-Fe/ZSM-5'
p2013
sg8
S'aqueous'
p2014
sg10
F0.005011872336272725
sg11
S'Hutchings'
p2015
sg13
S'10.1002/anie.201108706'
p2016
sg15
F-2.3
sg16
S'yes'
p2017
sg18
S'Fe'
p2018
sg20
g21
sg22
S'None'
p2019
sg24
I323
sg25
S'H2O2'
p2020
sg27
Nsg28
S'heterogeneous'
p2021
sg30
F88.0
sg31
g32
sg33
g34
sba(iexpclass
expclass
p2022
(dp2023
g6
S'Cu-Fe/silicalite'
p2024
sg8
S'aqueous'
p2025
sg10
F0.1
sg11
S'Hutchings'
p2026
sg13
S'10.1002/anie.201108706'
p2027
sg15
F-1.0
sg16
S'yes'
p2028
sg18
S'Fe'
p2029
sg20
g21
sg22
S'None'
p2030
sg24
I323
sg25
S'H2O2'
p2031
sg27
Nsg28
S'heterogeneous'
p2032
sg30
F93.0
sg31
g32
sg33
g34
sba(iexpclass
expclass
p2033
(dp2034
g6
S'MMO'
p2035
sg8
S'aqueous'
p2036
sg10
F0.01513561248436208
sg11
S'Dalton'
p2037
sg13
S'10.1042/bj1650395'
p2038
sg15
F-1.82
sg16
S'yes'
p2039
sg18
S'Fe'
p2040
sg20
S'*'
p2041
sg22
S'enzyme'
p2042
sg24
I300
sg25
S'O2'
p2043
sg27
Nsg28
S'homogeneous'
p2044
sg30
F99.0
sg31
g32
sg33
g34
sba(iexpclass
expclass
p2045
(dp2046
g6
S'ZSM-5'
p2047
sg8
S'gas'
p2048
sg10
F0.03630780547701014
sg11
S'Panov'
p2049
sg13
S'10.1016/j.jcat.2014.07.009'
p2050
sg15
F-1.44
sg16
S'yes'
p2051
sg18
S'Fe'
p2052
sg20
g21
sg22
S'None'
p2053
sg24
I573
sg25
S'N2O'
p2054
sg27
Nsg28
S'heterogeneous'
p2055
sg30
F1.9
sg31
g32
sg33
g34
sba(iexpclass
expclass
p2056
(dp2057
g6
S'ZSM-5'
p2058
sg8
S'gas'
p2059
sg10
F0.019054607179632473
sg11
S'Panov'
p2060
sg13
S'10.1016/j.jcat.2014.07.009'
p2061
sg15
F-1.72
sg16
S'yes'
p2062
sg18
S'Fe'
p2063
sg20
g21
sg22
S'None'
p2064
sg24
I573
sg25
S'N2O'
p2065
sg27
Nsg28
S'heterogeneous'
p2066
sg30
F9.3
sg31
g32
sg33
g34
sba(iexpclass
expclass
p2067
(dp2068
g6
S'ZSM-5'
p2069
sg8
S'gas'
p2070
sg10
F0.012882495516931342
sg11
S'Panov'
p2071
sg13
S'10.1016/j.jcat.2014.07.009'
p2072
sg15
F-1.89
sg16
S'yes'
p2073
sg18
S'Fe'
p2074
sg20
g21
sg22
S'None'
p2075
sg24
I573
sg25
S'N2O'
p2076
sg27
Nsg28
S'heterogeneous'
p2077
sg30
F19.0
sg31
g32
sg33
g34
sba(iexpclass
expclass
p2078
(dp2079
g6
S'ZSM-5'
p2080
sg8
S'gas'
p2081
sg10
F0.007585775750291836
sg11
S'Panov'
p2082
sg13
S'10.1016/j.jcat.2014.07.009'
p2083
sg15
F-2.12
sg16
S'yes'
p2084
sg18
S'Fe'
p2085
sg20
g21
sg22
S'None'
p2086
sg24
I573
sg25
S'N2O'
p2087
sg27
Nsg28
S'heterogeneous'
p2088
sg30
F42.0
sg31
g32
sg33
g34
sba(iexpclass
expclass
p2089
(dp2090
g6
S'ZSM-5'
p2091
sg8
S'gas'
p2092
sg10
F0.02187761623949553
sg11
S'Panov'
p2093
sg13
S'10.1016/j.jcat.2014.07.009'
p2094
sg15
F-1.66
sg16
S'yes'
p2095
sg18
S'Fe'
p2096
sg20
g21
sg22
S'None'
p2097
sg24
I548
sg25
S'N2O'
p2098
sg27
Nsg28
S'heterogeneous'
p2099
sg30
F2.7
sg31
g32
sg33
g34
sba(iexpclass
expclass
p2100
(dp2101
g6
S'ZSM-5'
p2102
sg8
S'gas'
p2103
sg10
F0.006456542290346556
sg11
S'Panov'
p2104
sg13
S'10.1016/j.jcat.2014.07.009'
p2105
sg15
F-2.19
sg16
S'yes'
p2106
sg18
S'Fe'
p2107
sg20
g21
sg22
S'None'
p2108
sg24
I548
sg25
S'N2O'
p2109
sg27
Nsg28
S'heterogeneous'
p2110
sg30
F31.0
sg31
g32
sg33
g34
sba(iexpclass
expclass
p2111
(dp2112
g6
S'ZSM-5'
p2113
sg8
S'gas'
p2114
sg10
F0.0026915348039269166
sg11
S'Panov'
p2115
sg13
S'10.1016/j.jcat.2014.07.009'
p2116
sg15
F-2.57
sg16
S'yes'
p2117
sg18
S'Fe'
p2118
sg20
g21
sg22
S'None'
p2119
sg24
I548
sg25
S'N2O'
p2120
sg27
Nsg28
S'heterogeneous'
p2121
sg30
F57.0
sg31
g32
sg33
g34
sba(iexpclass
expclass
p2122
(dp2123
g6
S'ZSM-5'
p2124
sg8
S'gas'
p2125
sg10
F0.0019054607179632462
sg11
S'Panov'
p2126
sg13
S'10.1016/j.jcat.2014.07.009'
p2127
sg15
F-2.72
sg16
S'yes'
p2128
sg18
S'Fe'
p2129
sg20
g21
sg22
S'None'
p2130
sg24
I548
sg25
S'N2O'
p2131
sg27
Nsg28
S'heterogeneous'
p2132
sg30
F62.0
sg31
g32
sg33
g34
sba(iexpclass
expclass
p2133
(dp2134
g6
S'CuCl16Pc'
p2135
sg8
S'aqueous'
p2136
sg10
F0.047863009232263824
sg11
S'Raja'
p2137
sg13
S'10.1016/S0926-860X(97)00105-1'
p2138
sg15
F-1.32
sg16
S'yes'
p2139
sg18
S'Cu'
p2140
sg20
g21
sg22
S'None'
p2141
sg24
I273
sg25
S'O2/TBHP'
p2142
sg27
Nsg28
S'homogeneous'
p2143
sg30
F40.2
sg31
g1071
sg33
g34
sba(iexpclass
expclass
p2144
(dp2145
g6
S'CoCl16Pc'
p2146
sg8
S'aqueous'
p2147
sg10
F0.030902954325135904
sg11
S'Raja'
p2148
sg13
S'10.1016/S0926-860X(97)00105-2'
p2149
sg15
F-1.51
sg16
S'yes'
p2150
sg18
S'Co'
p2151
sg20
g21
sg22
S'None'
p2152
sg24
I273
sg25
S'O2/TBHP'
p2153
sg27
Nsg28
S'homogeneous'
p2154
sg30
F10.2
sg31
g1094
sg33
g34
sba(iexpclass
expclass
p2155
(dp2156
g6
S'FeCl16Pc'
p2157
sg8
S'aqueous'
p2158
sg10
F0.05248074602497726
sg11
S'Raja'
p2159
sg13
S'10.1016/S0926-860X(97)00105-3'
p2160
sg15
F-1.28
sg16
S'yes'
p2161
sg18
S'Fe'
p2162
sg20
g21
sg22
S'None'
p2163
sg24
I273
sg25
S'O2/TBHP'
p2164
sg27
Nsg28
S'homogeneous'
p2165
sg30
F41.2
sg31
g32
sg33
g34
sba(iexpclass
expclass
p2166
(dp2167
g6
S'CuCl16Pc/FAU-X'
p2168
sg8
S'aqueous'
p2169
sg10
F0.04168693834703355
sg11
S'Raja'
p2170
sg13
S'10.1016/S0926-860X(97)00105-4'
p2171
sg15
F-1.38
sg16
S'yes'
p2172
sg18
S'Cu'
p2173
sg20
g21
sg22
S'None'
p2174
sg24
I273
sg25
S'O2/TBHP'
p2175
sg27
Nsg28
S'heterogeneous'
p2176
sg30
F51.5
sg31
g1071
sg33
g34
sba(iexpclass
expclass
p2177
(dp2178
g6
S'CuCl16Pc/FAU-Y'
p2179
sg8
S'aqueous'
p2180
sg10
F0.03890451449942807
sg11
S'Raja'
p2181
sg13
S'10.1016/S0926-860X(97)00105-5'
p2182
sg15
F-1.41
sg16
S'yes'
p2183
sg18
S'Cu'
p2184
sg20
g21
sg22
S'None'
p2185
sg24
I273
sg25
S'O2/TBHP'
p2186
sg27
Nsg28
S'heterogeneous'
p2187
sg30
F53.5
sg31
g1071
sg33
g34
sba(iexpclass
expclass
p2188
(dp2189
g6
S'CuCl16Pc/L'
p2190
sg8
S'aqueous'
p2191
sg10
F0.01096478196143185
sg11
S'Raja'
p2192
sg13
S'10.1016/S0926-860X(97)00105-6'
p2193
sg15
F-1.96
sg16
S'yes'
p2194
sg18
S'Cu'
p2195
sg20
g21
sg22
S'None'
p2196
sg24
I273
sg25
S'O2/TBHP'
p2197
sg27
Nsg28
S'heterogeneous'
p2198
sg30
F10.7
sg31
g1071
sg33
g34
sba(iexpclass
expclass
p2199
(dp2200
g6
S'CoCl16Pc/FAU-X'
p2201
sg8
S'aqueous'
p2202
sg10
F0.028183829312644536
sg11
S'Raja'
p2203
sg13
S'10.1016/S0926-860X(97)00105-7'
p2204
sg15
F-1.55
sg16
S'yes'
p2205
sg18
S'Co'
p2206
sg20
g21
sg22
S'None'
p2207
sg24
I273
sg25
S'O2/TBHP'
p2208
sg27
Nsg28
S'heterogeneous'
p2209
sg30
F12.5
sg31
g1094
sg33
g34
sba(iexpclass
expclass
p2210
(dp2211
g6
S'FeCl16Pc/FAU-X'
p2212
sg8
S'aqueous'
p2213
sg10
F0.04897788193684462
sg11
S'Raja'
p2214
sg13
S'10.1016/S0926-860X(97)00105-8'
p2215
sg15
F-1.31
sg16
S'yes'
p2216
sg18
S'Fe'
p2217
sg20
g21
sg22
S'None'
p2218
sg24
I273
sg25
S'O2/TBHP'
p2219
sg27
Nsg28
S'heterogeneous'
p2220
sg30
F52.6
sg31
g32
sg33
g34
sba(iexpclass
expclass
p2221
(dp2222
g6
S'H4PV1Mo11O40'
p2223
sg8
S'aqueous'
p2224
sg10
F0.046773514128719815
sg11
S'Seki'
p2225
sg13
S'10.1021/jp000406y'
p2226
sg15
F-1.33
sg16
S'yes'
p2227
sg18
S'Mo'
p2228
sg20
g21
sg22
S'None'
p2229
sg24
I353
sg25
S'H2O2'
p2230
sg27
Nsg28
S'homogeneous'
p2231
sg30
F1.0
sg31
g1048
sg33
g34
sba(iexpclass
expclass
p2232
(dp2233
g6
S'H4PV1Mo11O40'
p2234
sg8
S'aqueous'
p2235
sg10
F0.0004365158322401661
sg11
S'Seki'
p2236
sg13
S'10.1021/jp000406y'
p2237
sg15
F-3.36
sg16
S'yes'
p2238
sg18
S'Mo'
p2239
sg20
g21
sg22
S'None'
p2240
sg24
I353
sg25
S'H2O2'
p2241
sg27
Nsg28
S'homogeneous'
p2242
sg30
F99.11894273
sg31
g1048
sg33
g34
sba(iexpclass
expclass
p2243
(dp2244
g6
S'H4PV1Mo11O40'
p2245
sg8
S'aqueous'
p2246
sg10
F0.009120108393559097
sg11
S'Seki'
p2247
sg13
S'10.1021/jp000406y'
p2248
sg15
F-2.04
sg16
S'yes'
p2249
sg18
S'Mo'
p2250
sg20
g21
sg22
S'None'
p2251
sg24
I353
sg25
S'H2O2'
p2252
sg27
Nsg28
S'homogeneous'
p2253
sg30
F44.78707783
sg31
g1048
sg33
g34
sba(iexpclass
expclass
p2254
(dp2255
g6
S'H4PV1Mo11O40'
p2256
sg8
S'aqueous'
p2257
sg10
F0.0162181009735893
sg11
S'Seki'
p2258
sg13
S'10.1021/jp000406y'
p2259
sg15
F-1.79
sg16
S'yes'
p2260
sg18
S'Mo'
p2261
sg20
g21
sg22
S'None'
p2262
sg24
I353
sg25
S'H2O2'
p2263
sg27
Nsg28
S'homogeneous'
p2264
sg30
F23.20117474
sg31
g1048
sg33
g34
sba(iexpclass
expclass
p2265
(dp2266
g6
S'H4PV1Mo11O40'
p2267
sg8
S'aqueous'
p2268
sg10
F0.019054607179632473
sg11
S'Seki'
p2269
sg13
S'10.1021/jp000406y'
p2270
sg15
F-1.72
sg16
S'yes'
p2271
sg18
S'Mo'
p2272
sg20
g21
sg22
S'None'
p2273
sg24
I353
sg25
S'H2O2'
p2274
sg27
Nsg28
S'homogeneous'
p2275
sg30
F18.20851689
sg31
g1048
sg33
g34
sba(iexpclass
expclass
p2276
(dp2277
g6
S'H4PV1Mo11O40'
p2278
sg8
S'aqueous'
p2279
sg10
F0.02187761623949553
sg11
S'Seki'
p2280
sg13
S'10.1021/jp000406y'
p2281
sg15
F-1.66
sg16
S'yes'
p2282
sg18
S'Mo'
p2283
sg20
g21
sg22
S'None'
p2284
sg24
I353
sg25
S'H2O2'
p2285
sg27
Nsg28
S'homogeneous'
p2286
sg30
F14.53744493
sg31
g1048
sg33
g34
sba(iexpclass
expclass
p2287
(dp2288
g6
S'H4PV1Mo11O40'
p2289
sg8
S'aqueous'
p2290
sg10
F0.025703957827688632
sg11
S'Seki'
p2291
sg13
S'10.1021/jp000406y'
p2292
sg15
F-1.59
sg16
S'yes'
p2293
sg18
S'Mo'
p2294
sg20
g21
sg22
S'None'
p2295
sg24
I353
sg25
S'H2O2'
p2296
sg27
Nsg28
S'homogeneous'
p2297
sg30
F11.89427313
sg31
g1048
sg33
g34
sba(iexpclass
expclass
p2298
(dp2299
g6
S'APO-5'
p2300
sg8
S'gas'
p2301
sg10
F0.01513561248436208
sg11
S'Wang'
p2302
sg13
S'10.1006/jcat.1995.1208'
p2303
sg15
F-1.82
sg16
S'yes'
p2304
sg18
S'Fe'
p2305
sg20
g21
sg22
S'None'
p2306
sg24
I673
sg25
S'O2/H2'
p2307
sg27
Nsg28
S'heterogeneous'
p2308
sg30
F2.5
sg31
g32
sg33
g34
sba(iexpclass
expclass
p2309
(dp2310
g6
S'PO4'
p2311
sg8
S'gas'
p2312
sg10
F0.0025118864315095794
sg11
S'Wang'
p2313
sg13
S'10.1006/jcat.1995.1208'
p2314
sg15
F-2.6
sg16
S'yes'
p2315
sg18
S'Fe'
p2316
sg20
g21
sg22
S'None'
p2317
sg24
I673
sg25
S'O2/H2'
p2318
sg27
Nsg28
S'heterogeneous'
p2319
sg30
F21.0
sg31
g32
sg33
g34
sba(iexpclass
expclass
p2320
(dp2321
g6
S'PO4'
p2322
sg8
S'gas'
p2323
sg10
F0.006025595860743574
sg11
S'Wang'
p2324
sg13
S'10.1006/jcat.1995.1208'
p2325
sg15
F-2.22
sg16
S'yes'
p2326
sg18
S'Fe'
p2327
sg20
g21
sg22
S'None'
p2328
sg24
I673
sg25
S'O2/H2'
p2329
sg27
Nsg28
S'heterogeneous'
p2330
sg30
F24.0
sg31
g32
sg33
g34
sba(iexpclass
expclass
p2331
(dp2332
g6
S'PO4'
p2333
sg8
S'gas'
p2334
sg10
F0.00015848931924611142
sg11
S'Wang'
p2335
sg13
S'10.1006/jcat.1995.1208'
p2336
sg15
F-3.8
sg16
S'yes'
p2337
sg18
S'Fe'
p2338
sg20
g21
sg22
S'None'
p2339
sg24
I633
sg25
S'O2/H2'
p2340
sg27
Nsg28
S'heterogeneous'
p2341
sg30
F77.9201373
sg31
g32
sg33
g34
sba(iexpclass
expclass
p2342
(dp2343
g6
S'PO4'
p2344
sg8
S'gas'
p2345
sg10
F0.0003467368504525317
sg11
S'Wang'
p2346
sg13
S'10.1006/jcat.1995.1208'
p2347
sg15
F-3.46
sg16
S'yes'
p2348
sg18
S'Fe'
p2349
sg20
g21
sg22
S'None'
p2350
sg24
I648
sg25
S'O2/H2'
p2351
sg27
Nsg28
S'heterogeneous'
p2352
sg30
F67.15716589
sg31
g32
sg33
g34
sba(iexpclass
expclass
p2353
(dp2354
g6
S'PO4'
p2355
sg8
S'gas'
p2356
sg10
F0.0020417379446695297
sg11
S'Wang'
p2357
sg13
S'10.1006/jcat.1995.1208'
p2358
sg15
F-2.69
sg16
S'yes'
p2359
sg18
S'Fe'
p2360
sg20
g21
sg22
S'None'
p2361
sg24
I690
sg25
S'O2/H2'
p2362
sg27
Nsg28
S'heterogeneous'
p2363
sg30
F34.85404862
sg31
g32
sg33
g34
sba(iexpclass
expclass
p2364
(dp2365
g6
S'PO4'
p2366
sg8
S'gas'
p2367
sg10
F0.005370317963702527
sg11
S'Wang'
p2368
sg13
S'10.1006/jcat.1995.1208'
p2369
sg15
F-2.27
sg16
S'yes'
p2370
sg18
S'Fe'
p2371
sg20
g21
sg22
S'None'
p2372
sg24
I710
sg25
S'O2/H2'
p2373
sg27
Nsg28
S'heterogeneous'
p2374
sg30
F25.53624003
sg31
g32
sg33
g34
sba(iexpclass
expclass
p2375
(dp2376
g6
S'PO4'
p2377
sg8
S'gas'
p2378
sg10
F0.008709635899560805
sg11
S'Wang'
p2379
sg13
S'10.1006/jcat.1995.1208'
p2380
sg15
F-2.06
sg16
S'yes'
p2381
sg18
S'Fe'
p2382
sg20
g21
sg22
S'None'
p2383
sg24
I717
sg25
S'O2/H2'
p2384
sg27
Nsg28
S'heterogeneous'
p2385
sg30
F20.85603113
sg31
g32
sg33
g34
sba(iexpclass
expclass
p2386
(dp2387
g6
S'PO4'
p2388
sg8
S'gas'
p2389
sg10
F0.01096478196143185
sg11
S'Wang'
p2390
sg13
S'10.1006/jcat.1995.1208'
p2391
sg15
F-1.96
sg16
S'yes'
p2392
sg18
S'Fe'
p2393
sg20
g21
sg22
S'None'
p2394
sg24
I723
sg25
S'O2/H2'
p2395
sg27
Nsg28
S'heterogeneous'
p2396
sg30
F18.60218076
sg31
g32
sg33
g34
sba(iexpclass
expclass
p2397
(dp2398
g6
S'PO4'
p2399
sg8
S'gas'
p2400
sg10
F0.0007585775750291835
sg11
S'Wang'
p2401
sg13
S'10.1006/jcat.1995.1208'
p2402
sg15
F-3.12
sg16
S'yes'
p2403
sg18
S'Fe'
p2404
sg20
g21
sg22
S'None'
p2405
sg24
I666
sg25
S'O2/H2'
p2406
sg27
Nsg28
S'heterogeneous'
p2407
sg30
F49.52671214
sg31
g32
sg33
g34
sba(iexpclass
expclass
p2408
(dp2409
g6
S'PO4'
p2410
sg8
S'gas'
p2411
sg10
F0.0010232929922807535
sg11
S'Wang'
p2412
sg13
S'10.1039/Ft9959103953'
p2413
sg15
F-2.99
sg16
S'no'
p2414
sg18
S'Fe'
p2415
sg20
g21
sg22
S'None'
p2416
sg24
I625
sg25
S'N2O'
p2417
sg27
Nsg28
S'heterogeneous'
p2418
sg30
F80.00958837
sg31
g32
sg33
g34
sba(iexpclass
expclass
p2419
(dp2420
g6
S'PO4'
p2421
sg8
S'gas'
p2422
sg10
F0.002187761623949552
sg11
S'Wang'
p2423
sg13
S'10.1039/Ft9959103953'
p2424
sg15
F-2.66
sg16
S'no'
p2425
sg18
S'Fe'
p2426
sg20
g21
sg22
S'None'
p2427
sg24
I650
sg25
S'N2O'
p2428
sg27
Nsg28
S'heterogeneous'
p2429
sg30
F64.49636404
sg31
g32
sg33
g34
sba(iexpclass
expclass
p2430
(dp2431
g6
S'PO4'
p2432
sg8
S'gas'
p2433
sg10
F0.007585775750291836
sg11
S'Wang'
p2434
sg13
S'10.1039/Ft9959103953'
p2435
sg15
F-2.12
sg16
S'no'
p2436
sg18
S'Fe'
p2437
sg20
g21
sg22
S'None'
p2438
sg24
I674
sg25
S'N2O'
p2439
sg27
Nsg28
S'heterogeneous'
p2440
sg30
F40.02674887
sg31
g32
sg33
g34
sba(iexpclass
expclass
p2441
(dp2442
g6
S'PO4'
p2443
sg8
S'gas'
p2444
sg10
F0.021379620895022326
sg11
S'Wang'
p2445
sg13
S'10.1039/Ft9959103953'
p2446
sg15
F-1.67
sg16
S'no'
p2447
sg18
S'Fe'
p2448
sg20
g21
sg22
S'None'
p2449
sg24
I699
sg25
S'N2O'
p2450
sg27
Nsg28
S'heterogeneous'
p2451
sg30
F25.00302437
sg31
g32
sg33
g34
sba(iexpclass
expclass
p2452
(dp2453
g6
S'PO4'
p2454
sg8
S'gas'
p2455
sg10
F0.06760829753919818
sg11
S'Wang'
p2456
sg13
S'10.1039/Ft9959103953'
p2457
sg15
F-1.17
sg16
S'yes'
p2458
sg18
S'Fe'
p2459
sg20
g21
sg22
S'None'
p2460
sg24
I723
sg25
S'N2O'
p2461
sg27
Nsg28
S'heterogeneous'
p2462
sg30
F16.81930399
sg31
g32
sg33
g34
sba(iexpclass
expclass
p2463
(dp2464
g6
S'PO4'
p2465
sg8
S'gas'
p2466
sg10
F0.0022908676527677724
sg11
S'Wang'
p2467
sg13
S'10.1039/Ft9959103953'
p2468
sg15
F-2.64
sg16
S'yes'
p2469
sg18
S'Fe'
p2470
sg20
g21
sg22
S'None'
p2471
sg24
I648
sg25
S'N2O'
p2472
sg27
Nsg28
S'heterogeneous'
p2473
sg30
F52.08701039
sg31
g32
sg33
g34
sba(iexpclass
expclass
p2474
(dp2475
g6
S'PO4'
p2476
sg8
S'gas'
p2477
sg10
F0.005011872336272725
sg11
S'Wang'
p2478
sg13
S'10.1039/Ft9959103953'
p2479
sg15
F-2.3
sg16
S'yes'
p2480
sg18
S'Fe'
p2481
sg20
g21
sg22
S'None'
p2482
sg24
I648
sg25
S'N2O'
p2483
sg27
Nsg28
S'heterogeneous'
p2484
sg30
F48.74069647
sg31
g32
sg33
g34
sba(iexpclass
expclass
p2485
(dp2486
g6
S'PO4'
p2487
sg8
S'gas'
p2488
sg10
F0.006918309709189363
sg11
S'Wang'
p2489
sg13
S'10.1039/Ft9959103953'
p2490
sg15
F-2.16
sg16
S'yes'
p2491
sg18
S'Fe'
p2492
sg20
g21
sg22
S'None'
p2493
sg24
I648
sg25
S'N2O'
p2494
sg27
Nsg28
S'heterogeneous'
p2495
sg30
F45.39562769
sg31
g32
sg33
g34
sba(iexpclass
expclass
p2496
(dp2497
g6
S'PO4'
p2498
sg8
S'gas'
p2499
sg10
F0.008511380382023767
sg11
S'Wang'
p2500
sg13
S'10.1039/Ft9959103953'
p2501
sg15
F-2.07
sg16
S'yes'
p2502
sg18
S'Fe'
p2503
sg20
g21
sg22
S'None'
p2504
sg24
I648
sg25
S'N2O'
p2505
sg27
Nsg28
S'heterogeneous'
p2506
sg30
F46.87578794
sg31
g32
sg33
g34
sba(iexpclass
expclass
p2507
(dp2508
g6
S'PO4'
p2509
sg8
S'gas'
p2510
sg10
F0.007413102413009177
sg11
S'Wang'
p2511
sg13
S'10.1039/Ft9959103953'
p2512
sg15
F-2.13
sg16
S'yes'
p2513
sg18
S'Fe'
p2514
sg20
g21
sg22
S'None'
p2515
sg24
I648
sg25
S'N2O'
p2516
sg27
Nsg28
S'heterogeneous'
p2517
sg30
F44.36838714
sg31
g32
sg33
g34
sba(iexpclass
expclass
p2518
(dp2519
g6
S'PO4'
p2520
sg8
S'gas'
p2521
sg10
F0.006025595860743574
sg11
S'Wang'
p2522
sg13
S'10.1039/Ft9959103953'
p2523
sg15
F-2.22
sg16
S'yes'
p2524
sg18
S'Fe'
p2525
sg20
g21
sg22
S'None'
p2526
sg24
I648
sg25
S'N2O'
p2527
sg27
Nsg28
S'heterogeneous'
p2528
sg30
F42.76091132
sg31
g32
sg33
g34
sba(iexpclass
expclass
p2529
(dp2530
g6
S'K7PW9Fe2NiO37'
p2531
sg8
S'gas'
p2532
sg10
F0.04073802778041128
sg11
S'Lyons'
p2533
sg13
S'10.1016/S0167-2991(08)61930-8'
p2534
sg15
F-1.39
sg16
S'yes'
p2535
sg18
S'Fe'
p2536
sg20
g21
sg22
S'None'
p2537
sg24
I683
sg25
S'O2'
p2538
sg27
Nsg28
S'heterogeneous'
p2539
sg30
F42.0
sg31
g32
sg33
g34
sba(iexpclass
expclass
p2540
(dp2541
g6
S'SOD'
p2542
sg8
S'gas'
p2543
sg10
F0.04570881896148749
sg11
S'Lyons'
p2544
sg13
S'10.1016/S0167-2991(08)61930-8'
p2545
sg15
F-1.34
sg16
S'yes'
p2546
sg18
S'Fe'
p2547
sg20
g21
sg22
S'None'
p2548
sg24
I680
sg25
S'O2'
p2549
sg27
Nsg28
S'heterogeneous'
p2550
sg30
F64.0
sg31
g32
sg33
g34
sba(iexpclass
expclass
p2551
(dp2552
g6
S'SOD'
p2553
sg8
S'gas'
p2554
sg10
F0.057543993733715694
sg11
S'Lyons'
p2555
sg13
S'10.1016/S0167-2991(08)61930-8'
p2556
sg15
F-1.24
sg16
S'yes'
p2557
sg18
S'Fe'
p2558
sg20
g21
sg22
S'None'
p2559
sg24
I689
sg25
S'O2'
p2560
sg27
Nsg28
S'heterogeneous'
p2561
sg30
F70.0
sg31
g32
sg33
g34
sba(iexpclass
expclass
p2562
(dp2563
g6
S'SOD'
p2564
sg8
S'gas'
p2565
sg10
F0.05370317963702527
sg11
S'Lyons'
p2566
sg13
S'10.1016/S0167-2991(08)61930-8'
p2567
sg15
F-1.27
sg16
S'yes'
p2568
sg18
S'Fe'
p2569
sg20
g21
sg22
S'None'
p2570
sg24
I691
sg25
S'O2'
p2571
sg27
Nsg28
S'heterogeneous'
p2572
sg30
F68.0
sg31
g32
sg33
g34
sba(iexpclass
expclass
p2573
(dp2574
g6
S'SOD'
p2575
sg8
S'gas'
p2576
sg10
F0.05370317963702527
sg11
S'Lyons'
p2577
sg13
S'10.1016/S0167-2991(08)61930-8'
p2578
sg15
F-1.27
sg16
S'yes'
p2579
sg18
S'Fe'
p2580
sg20
g21
sg22
S'None'
p2581
sg24
I695
sg25
S'O2'
p2582
sg27
Nsg28
S'heterogeneous'
p2583
sg30
F65.0
sg31
g32
sg33
g34
sba(iexpclass
expclass
p2584
(dp2585
g6
S'SOD'
p2586
sg8
S'gas'
p2587
sg10
F0.054954087385762455
sg11
S'Lyons'
p2588
sg13
S'10.1016/S0167-2991(08)61930-8'
p2589
sg15
F-1.26
sg16
S'yes'
p2590
sg18
S'Fe'
p2591
sg20
g21
sg22
S'None'
p2592
sg24
I705
sg25
S'O2'
p2593
sg27
Nsg28
S'heterogeneous'
p2594
sg30
F63.0
sg31
g32
sg33
g34
sba(iexpclass
expclass
p2595
(dp2596
g6
S'SOD'
p2597
sg8
S'gas'
p2598
sg10
F0.06165950018614822
sg11
S'Lyons'
p2599
sg13
S'10.1016/S0167-2991(08)61930-8'
p2600
sg15
F-1.21
sg16
S'yes'
p2601
sg18
S'Fe'
p2602
sg20
g21
sg22
S'None'
p2603
sg24
I715
sg25
S'O2'
p2604
sg27
Nsg28
S'heterogeneous'
p2605
sg30
F64.0
sg31
g32
sg33
g34
sba(iexpclass
expclass
p2606
(dp2607
g6
S'SOD'
p2608
sg8
S'gas'
p2609
sg10
F0.001995262314968879
sg11
S'Lyons'
p2610
sg13
S'10.1016/S0167-2991(08)61930-8'
p2611
sg15
F-2.7
sg16
S'yes'
p2612
sg18
S'Fe'
p2613
sg20
g21
sg22
S'None'
p2614
sg24
I693
sg25
S'O2'
p2615
sg27
Nsg28
S'heterogeneous'
p2616
sg30
F27.0
sg31
g32
sg33
g34
sba(iexpclass
expclass
p2617
(dp2618
g6
S'hydroxysodalite'
p2619
sg8
S'gas'
p2620
sg10
F0.003019951720402016
sg11
S'Lyons'
p2621
sg13
S'10.1016/S0167-2991(08)61930-8'
p2622
sg15
F-2.52
sg16
S'yes'
p2623
sg18
S'Fe'
p2624
sg20
g21
sg22
S'None'
p2625
sg24
I703
sg25
S'O2'
p2626
sg27
Nsg28
S'heterogeneous'
p2627
sg30
F9.0
sg31
g32
sg33
g34
sba(iexpclass
expclass
p2628
(dp2629
g6
S'hydroxysodalite'
p2630
sg8
S'gas'
p2631
sg10
F0.05128613839913648
sg11
S'Lyons'
p2632
sg13
S'10.1016/S0167-2991(08)61930-8'
p2633
sg15
F-1.29
sg16
S'yes'
p2634
sg18
S'Fe'
p2635
sg20
g21
sg22
S'None'
p2636
sg24
I718
sg25
S'O2'
p2637
sg27
Nsg28
S'heterogeneous'
p2638
sg30
F24.0
sg31
g32
sg33
g34
sba(iexpclass
expclass
p2639
(dp2640
g6
S'hydroxysodalite'
p2641
sg8
S'gas'
p2642
sg10
F0.05128613839913648
sg11
S'Lyons'
p2643
sg13
S'10.1016/S0167-2991(08)61930-8'
p2644
sg15
F-1.29
sg16
S'yes'
p2645
sg18
S'Fe'
p2646
sg20
g21
sg22
S'None'
p2647
sg24
I704
sg25
S'O2'
p2648
sg27
Nsg28
S'heterogeneous'
p2649
sg30
F26.0
sg31
g32
sg33
g34
sba(iexpclass
expclass
p2650
(dp2651
g6
S'SiO2'
p2652
sg8
S'gas'
p2653
sg10
F0.005011872336272725
sg11
S'Lyons'
p2654
sg13
S'10.1016/S0167-2991(08)61930-8'
p2655
sg15
F-2.3
sg16
S'no'
p2656
sg18
S'Fe'
p2657
sg20
g21
sg22
S'None'
p2658
sg24
I671
sg25
S'O2'
p2659
sg27
Nsg28
S'heterogeneous'
p2660
sg30
F10.0
sg31
g32
sg33
g34
sba(iexpclass
expclass
p2661
(dp2662
g6
S'SiO2'
p2663
sg8
S'gas'
p2664
sg10
F0.012022644346174132
sg11
S'Lyons'
p2665
sg13
S'10.1016/S0167-2991(08)61930-8'
p2666
sg15
F-1.92
sg16
S'no'
p2667
sg18
S'Fe'
p2668
sg20
g21
sg22
S'None'
p2669
sg24
I682
sg25
S'O2'
p2670
sg27
Nsg28
S'heterogeneous'
p2671
sg30
F18.0
sg31
g32
sg33
g34
sba(iexpclass
expclass
p2672
(dp2673
g6
S'SiO2'
p2674
sg8
S'gas'
p2675
sg10
F0.026915348039269153
sg11
S'Lyons'
p2676
sg13
S'10.1016/S0167-2991(08)61930-8'
p2677
sg15
F-1.57
sg16
S'no'
p2678
sg18
S'Fe'
p2679
sg20
g21
sg22
S'None'
p2680
sg24
I693
sg25
S'O2'
p2681
sg27
Nsg28
S'heterogeneous'
p2682
sg30
F20.0
sg31
g32
sg33
g34
sba(iexpclass
expclass
p2683
(dp2684
g6
S'SiO2'
p2685
sg8
S'gas'
p2686
sg10
F0.03890451449942807
sg11
S'Lyons'
p2687
sg13
S'10.1016/S0167-2991(08)61930-8'
p2688
sg15
F-1.41
sg16
S'no'
p2689
sg18
S'Fe'
p2690
sg20
g21
sg22
S'None'
p2691
sg24
I701
sg25
S'O2'
p2692
sg27
Nsg28
S'heterogeneous'
p2693
sg30
F23.0
sg31
g32
sg33
g34
sba(iexpclass
expclass
p2694
(dp2695
g6
S'ZEOL'
p2696
sg8
S'gas'
p2697
sg10
F0.023988329190194897
sg11
S'Lyons'
p2698
sg13
S'10.1016/S0167-2991(08)61930-8'
p2699
sg15
F-1.62
sg16
S'yes'
p2700
sg18
S'Fe'
p2701
sg20
g21
sg22
S'None'
p2702
sg24
I673
sg25
S'O2'
p2703
sg27
Nsg28
S'heterogeneous'
p2704
sg30
F33.0
sg31
g32
sg33
g34
sba(iexpclass
expclass
p2705
(dp2706
g6
S'ZEOL'
p2707
sg8
S'gas'
p2708
sg10
F0.038018939632056124
sg11
S'Lyons'
p2709
sg13
S'10.1016/S0167-2991(08)61930-8'
p2710
sg15
F-1.42
sg16
S'yes'
p2711
sg18
S'Fe'
p2712
sg20
g21
sg22
S'None'
p2713
sg24
I703
sg25
S'O2'
p2714
sg27
Nsg28
S'heterogeneous'
p2715
sg30
F34.0
sg31
g32
sg33
g34
sba(iexpclass
expclass
p2716
(dp2717
g6
S'MoO3/SiO2'
p2718
sg8
S'gas'
p2719
sg10
F0.0006025595860743575
sg11
S'Khan'
p2720
sg13
S'10.1016/0021-9517(85)90340-9'
p2721
sg15
F-3.22
sg16
S'no'
p2722
sg18
S'Mo'
p2723
sg20
g21
sg22
S'None'
p2724
sg24
I753
sg25
S'N2O'
p2725
sg27
Nsg28
S'heterogeneous'
p2726
sg30
F96.0
sg31
g1048
sg33
g34
sba(iexpclass
expclass
p2727
(dp2728
g6
S'MoO3/SiO3'
p2729
sg8
S'gas'
p2730
sg10
F0.001
sg11
S'Khan'
p2731
sg13
S'10.1016/0021-9517(85)90340-9'
p2732
sg15
F-3.0
sg16
S'no'
p2733
sg18
S'Mo'
p2734
sg20
g21
sg22
S'None'
p2735
sg24
I763
sg25
S'N2O'
p2736
sg27
Nsg28
S'heterogeneous'
p2737
sg30
F96.0
sg31
g1048
sg33
g34
sba(iexpclass
expclass
p2738
(dp2739
g6
S'MoO3/SiO4'
p2740
sg8
S'gas'
p2741
sg10
F0.0016982436524617442
sg11
S'Khan'
p2742
sg13
S'10.1016/0021-9517(85)90340-9'
p2743
sg15
F-2.77
sg16
S'no'
p2744
sg18
S'Mo'
p2745
sg20
g21
sg22
S'None'
p2746
sg24
I773
sg25
S'N2O'
p2747
sg27
Nsg28
S'heterogeneous'
p2748
sg30
F85.0
sg31
g1048
sg33
g34
sba(iexpclass
expclass
p2749
(dp2750
g6
S'MoO3/SiO5'
p2751
sg8
S'gas'
p2752
sg10
F0.002187761623949552
sg11
S'Khan'
p2753
sg13
S'10.1016/0021-9517(85)90340-9'
p2754
sg15
F-2.66
sg16
S'no'
p2755
sg18
S'Mo'
p2756
sg20
g21
sg22
S'None'
p2757
sg24
I783
sg25
S'N2O'
p2758
sg27
Nsg28
S'heterogeneous'
p2759
sg30
F72.0
sg31
g1048
sg33
g34
sba(iexpclass
expclass
p2760
(dp2761
g6
S'MoO3/SiO6'
p2762
sg8
S'gas'
p2763
sg10
F0.0025703957827688645
sg11
S'Khan'
p2764
sg13
S'10.1016/0021-9517(85)90340-9'
p2765
sg15
F-2.59
sg16
S'no'
p2766
sg18
S'Mo'
p2767
sg20
g21
sg22
S'None'
p2768
sg24
I793
sg25
S'N2O'
p2769
sg27
Nsg28
S'heterogeneous'
p2770
sg30
F66.0
sg31
g1048
sg33
g34
sba(iexpclass
expclass
p2771
(dp2772
g6
S'MoO3/SiO7'
p2773
sg8
S'gas'
p2774
sg10
F0.003090295432513592
sg11
S'Khan'
p2775
sg13
S'10.1016/0021-9517(85)90340-9'
p2776
sg15
F-2.51
sg16
S'no'
p2777
sg18
S'Mo'
p2778
sg20
g21
sg22
S'None'
p2779
sg24
I803
sg25
S'N2O'
p2780
sg27
Nsg28
S'heterogeneous'
p2781
sg30
F59.0
sg31
g1048
sg33
g34
sba(iexpclass
expclass
p2782
(dp2783
g6
S'MoO3/SiO8'
p2784
sg8
S'gas'
p2785
sg10
F0.004677351412871981
sg11
S'Khan'
p2786
sg13
S'10.1016/0021-9517(85)90340-9'
p2787
sg15
F-2.33
sg16
S'no'
p2788
sg18
S'Mo'
p2789
sg20
g21
sg22
S'None'
p2790
sg24
I813
sg25
S'N2O'
p2791
sg27
Nsg28
S'heterogeneous'
p2792
sg30
F54.0
sg31
g1048
sg33
g34
sba(iexpclass
expclass
p2793
(dp2794
g6
S'MoO3/SiO9'
p2795
sg8
S'gas'
p2796
sg10
F0.00707945784384138
sg11
S'Khan'
p2797
sg13
S'10.1016/0021-9517(85)90340-9'
p2798
sg15
F-2.15
sg16
S'no'
p2799
sg18
S'Mo'
p2800
sg20
g21
sg22
S'None'
p2801
sg24
I823
sg25
S'N2O'
p2802
sg27
Nsg28
S'heterogeneous'
p2803
sg30
F46.0
sg31
g1048
sg33
g34
sba(iexpclass
expclass
p2804
(dp2805
g6
S'MoO3/SiO10'
p2806
sg8
S'gas'
p2807
sg10
F0.012022644346174132
sg11
S'Khan'
p2808
sg13
S'10.1016/0021-9517(85)90340-9'
p2809
sg15
F-1.92
sg16
S'no'
p2810
sg18
S'Mo'
p2811
sg20
g21
sg22
S'None'
p2812
sg24
I843
sg25
S'N2O'
p2813
sg27
Nsg28
S'heterogeneous'
p2814
sg30
F18.0
sg31
g1048
sg33
g34
sba(iexpclass
expclass
p2815
(dp2816
g6
S'MoO3/SiO11'
p2817
sg8
S'gas'
p2818
sg10
F0.028840315031266057
sg11
S'Khan'
p2819
sg13
S'10.1016/0021-9517(85)90340-9'
p2820
sg15
F-1.54
sg16
S'no'
p2821
sg18
S'Mo'
p2822
sg20
g21
sg22
S'None'
p2823
sg24
I843
sg25
S'N2O'
p2824
sg27
Nsg28
S'heterogeneous'
p2825
sg30
F13.8
sg31
g1048
sg33
g34
sba(iexpclass
expclass
p2826
(dp2827
g6
S'MoO3/SiO12'
p2828
sg8
S'gas'
p2829
sg10
F0.025703957827688632
sg11
S'Khan'
p2830
sg13
S'10.1016/0021-9517(85)90340-9'
p2831
sg15
F-1.59
sg16
S'no'
p2832
sg18
S'Mo'
p2833
sg20
g21
sg22
S'None'
p2834
sg24
I863
sg25
S'N2O'
p2835
sg27
Nsg28
S'heterogeneous'
p2836
sg30
F16.0
sg31
g1048
sg33
g34
sba(iexpclass
expclass
p2837
(dp2838
g6
S'-'
p2839
sg8
S'gas'
p2840
sg10
F0.013803842646028845
sg11
S'Casey'
p2841
sg13
S'10.1021/ie00029a008'
p2842
sg15
F-1.86
sg16
S'yes'
p2843
sg18
g1375
sg20
g21
sg22
S'Radical'
p2844
sg24
I673
sg25
S'O2'
p2845
sg27
Nsg28
S'heterogeneous'
p2846
sg30
F44.06804734
sg31
g1334
sg33
g34
sba(iexpclass
expclass
p2847
(dp2848
g6
g2839
sg8
S'gas'
p2849
sg10
F0.024547089156850298
sg11
S'Casey'
p2850
sg13
S'10.1021/ie00029a008'
p2851
sg15
F-1.61
sg16
S'yes'
p2852
sg18
g1375
sg20
g21
sg22
S'Radical'
p2853
sg24
I673
sg25
S'O2'
p2854
sg27
Nsg28
S'heterogeneous'
p2855
sg30
F32.42133347
sg31
g1334
sg33
g34
sba(iexpclass
expclass
p2856
(dp2857
g6
g2839
sg8
S'gas'
p2858
sg10
F0.046773514128719815
sg11
S'Casey'
p2859
sg13
S'10.1021/ie00029a008'
p2860
sg15
F-1.33
sg16
S'yes'
p2861
sg18
g1375
sg20
g21
sg22
S'Radical'
p2862
sg24
I673
sg25
S'O2'
p2863
sg27
Nsg28
S'heterogeneous'
p2864
sg30
F22.20076078
sg31
g1334
sg33
g34
sba(iexpclass
expclass
p2865
(dp2866
g6
g2839
sg8
S'gas'
p2867
sg10
F0.0812830516164099
sg11
S'Casey'
p2868
sg13
S'10.1021/ie00029a008'
p2869
sg15
F-1.09
sg16
S'yes'
p2870
sg18
g1375
sg20
g21
sg22
S'Radical'
p2871
sg24
I673
sg25
S'O2'
p2872
sg27
Nsg28
S'heterogeneous'
p2873
sg30
F15.04390321
sg31
g1334
sg33
g34
sba(iexpclass
expclass
p2874
(dp2875
g6
g2839
sg8
S'gas'
p2876
sg10
F0.007585775750291836
sg11
S'Chun'
p2877
sg13
S'10.1021/ie00017a004'
p2878
sg15
F-2.12
sg16
S'yes'
p2879
sg18
g1375
sg20
g21
sg22
S'Radical'
p2880
sg24
I682
sg25
S'O2'
p2881
sg27
Nsg28
S'heterogeneous'
p2882
sg30
F54.18123451
sg31
g1334
sg33
g34
sba(iexpclass
expclass
p2883
(dp2884
g6
g2839
sg8
S'gas'
p2885
sg10
F0.014791083881682071
sg11
S'Chun'
p2886
sg13
S'10.1021/ie00017a004'
p2887
sg15
F-1.83
sg16
S'yes'
p2888
sg18
g1375
sg20
g21
sg22
S'Radical'
p2889
sg24
I691
sg25
S'O2'
p2890
sg27
Nsg28
S'heterogeneous'
p2891
sg30
F51.17300079
sg31
g1334
sg33
g34
sba(iexpclass
expclass
p2892
(dp2893
g6
g2839
sg8
S'gas'
p2894
sg10
F0.019498445997580455
sg11
S'Chun'
p2895
sg13
S'10.1021/ie00017a004'
p2896
sg15
F-1.71
sg16
S'yes'
p2897
sg18
g1375
sg20
g21
sg22
S'Radical'
p2898
sg24
I696
sg25
S'O2'
p2899
sg27
Nsg28
S'heterogeneous'
p2900
sg30
F50.90352195
sg31
g1334
sg33
g34
sba(iexpclass
expclass
p2901
(dp2902
g6
g2839
sg8
S'gas'
p2903
sg10
F0.03715352290971726
sg11
S'Chun'
p2904
sg13
S'10.1021/ie00017a004'
p2905
sg15
F-1.43
sg16
S'yes'
p2906
sg18
g1375
sg20
g21
sg22
S'Radical'
p2907
sg24
I708
sg25
S'O2'
p2908
sg27
Nsg28
S'heterogeneous'
p2909
sg30
F47.62033987
sg31
g1334
sg33
g34
sba(iexpclass
expclass
p2910
(dp2911
g6
g2839
sg8
S'gas'
p2912
sg10
F0.04073802778041128
sg11
S'Chun'
p2913
sg13
S'10.1021/ie00017a004'
p2914
sg15
F-1.39
sg16
S'yes'
p2915
sg18
g1375
sg20
g21
sg22
S'Radical'
p2916
sg24
I714
sg25
S'O2'
p2917
sg27
Nsg28
S'heterogeneous'
p2918
sg30
F38.93559014
sg31
g1334
sg33
g34
sba(iexpclass
expclass
p2919
(dp2920
g6
g2839
sg8
S'gas'
p2921
sg10
F0.04168693834703355
sg11
S'Chun'
p2922
sg13
S'10.1021/ie00017a004'
p2923
sg15
F-1.38
sg16
S'yes'
p2924
sg18
g1375
sg20
g21
sg22
S'Radical'
p2925
sg24
I732
sg25
S'O2'
p2926
sg27
Nsg28
S'heterogeneous'
p2927
sg30
F34.31994985
sg31
g1334
sg33
g34
sba(iexpclass
expclass
p2928
(dp2929
g6
g2839
sg8
S'gas'
p2930
sg10
F0.04073802778041128
sg11
S'Chun'
p2931
sg13
S'10.1021/ie00017a004'
p2932
sg15
F-1.39
sg16
S'yes'
p2933
sg18
g1375
sg20
g21
sg22
S'Radical'
p2934
sg24
I742
sg25
S'O2'
p2935
sg27
Nsg28
S'heterogeneous'
p2936
sg30
F33.21258325
sg31
g1334
sg33
g34
sba(iexpclass
expclass
p2937
(dp2938
g6
g2839
sg8
S'gas'
p2939
sg10
F0.030902954325135904
sg11
S'Foulds'
p2940
sg13
S'10.1021/ie00017a003'
p2941
sg15
F-1.51
sg16
S'yes'
p2942
sg18
g1375
sg20
g21
sg22
S'Radical'
p2943
sg24
I663
sg25
S'O2'
p2944
sg27
Nsg28
S'heterogeneous'
p2945
sg30
F47.0
sg31
g1334
sg33
g34
sba(iexpclass
expclass
p2946
(dp2947
g6
g2839
sg8
S'gas'
p2948
sg10
F0.0446683592150963
sg11
S'Foulds'
p2949
sg13
S'10.1021/ie00017a003'
p2950
sg15
F-1.35
sg16
S'yes'
p2951
sg18
g1375
sg20
g21
sg22
S'Radical'
p2952
sg24
I668
sg25
S'O2'
p2953
sg27
Nsg28
S'heterogeneous'
p2954
sg30
F37.7
sg31
g1334
sg33
g34
sba(iexpclass
expclass
p2955
(dp2956
g6
g2839
sg8
S'gas'
p2957
sg10
F0.06456542290346556
sg11
S'Foulds'
p2958
sg13
S'10.1021/ie00017a003'
p2959
sg15
F-1.19
sg16
S'yes'
p2960
sg18
g1375
sg20
g21
sg22
S'Radical'
p2961
sg24
I673
sg25
S'O2'
p2962
sg27
Nsg28
S'heterogeneous'
p2963
sg30
F28.1
sg31
g1334
sg33
g34
sba(iexpclass
expclass
p2964
(dp2965
g6
g2839
sg8
S'gas'
p2966
sg10
F0.08511380382023763
sg11
S'Foulds'
p2967
sg13
S'10.1021/ie00017a003'
p2968
sg15
F-1.07
sg16
S'yes'
p2969
sg18
g1375
sg20
g21
sg22
S'Radical'
p2970
sg24
I673
sg25
S'O2'
p2971
sg27
Nsg28
S'heterogeneous'
p2972
sg30
F23.0
sg31
g1334
sg33
g34
sba(iexpclass
expclass
p2973
(dp2974
g6
g2839
sg8
S'gas'
p2975
sg10
F0.04073802778041128
sg11
S'Foulds'
p2976
sg13
S'10.1021/ie00017a003'
p2977
sg15
F-1.39
sg16
S'yes'
p2978
sg18
g1375
sg20
g21
sg22
S'Radical'
p2979
sg24
I693
sg25
S'O2'
p2980
sg27
Nsg28
S'heterogeneous'
p2981
sg30
F27.2
sg31
g1334
sg33
g34
sba(iexpclass
expclass
p2982
(dp2983
g6
g2839
sg8
S'gas'
p2984
sg10
F0.04570881896148749
sg11
S'Foulds'
p2985
sg13
S'10.1021/ie00017a003'
p2986
sg15
F-1.34
sg16
S'yes'
p2987
sg18
g1375
sg20
g21
sg22
S'Radical'
p2988
sg24
I648
sg25
S'O2'
p2989
sg27
Nsg28
S'heterogeneous'
p2990
sg30
F33.7
sg31
g1334
sg33
g34
sba(iexpclass
expclass
p2991
(dp2992
g6
g2839
sg8
S'gas'
p2993
sg10
F0.057543993733715694
sg11
S'Foulds'
p2994
sg13
S'10.1021/ie00017a003'
p2995
sg15
F-1.24
sg16
S'yes'
p2996
sg18
g1375
sg20
g21
sg22
S'Radical'
p2997
sg24
I677
sg25
S'O2'
p2998
sg27
Nsg28
S'heterogeneous'
p2999
sg30
F36.3
sg31
g1334
sg33
g34
sba(iexpclass
expclass
p3000
(dp3001
g6
g2839
sg8
S'gas'
p3002
sg10
F0.06456542290346556
sg11
S'Foulds'
p3003
sg13
S'10.1021/ie00017a003'
p3004
sg15
F-1.19
sg16
S'yes'
p3005
sg18
g1375
sg20
g21
sg22
S'Radical'
p3006
sg24
I675
sg25
S'O2'
p3007
sg27
Nsg28
S'heterogeneous'
p3008
sg30
F33.3
sg31
g1334
sg33
g34
sba(iexpclass
expclass
p3009
(dp3010
g6
g2839
sg8
S'gas'
p3011
sg10
F0.08912509381337455
sg11
S'Foulds'
p3012
sg13
S'10.1021/ie00017a003'
p3013
sg15
F-1.05
sg16
S'yes'
p3014
sg18
g1375
sg20
g21
sg22
S'Radical'
p3015
sg24
I668
sg25
S'O2'
p3016
sg27
Nsg28
S'heterogeneous'
p3017
sg30
F23.5
sg31
g1334
sg33
g34
sba(iexpclass
expclass
p3018
(dp3019
g6
g2839
sg8
S'gas'
p3020
sg10
F0.07762471166286916
sg11
S'Foulds'
p3021
sg13
S'10.1021/ie00017a003'
p3022
sg15
F-1.11
sg16
S'yes'
p3023
sg18
g1375
sg20
g21
sg22
S'Radical'
p3024
sg24
I678
sg25
S'O2'
p3025
sg27
Nsg28
S'heterogeneous'
p3026
sg30
F17.9
sg31
g1334
sg33
g34
sba(iexpclass
expclass
p3027
(dp3028
g6
g2839
sg8
S'gas'
p3029
sg10
F0.06760829753919818
sg11
S'Foulds'
p3030
sg13
S'10.1021/ie00017a003'
p3031
sg15
F-1.17
sg16
S'yes'
p3032
sg18
g1375
sg20
g21
sg22
S'Radical'
p3033
sg24
I658
sg25
S'O2'
p3034
sg27
Nsg28
S'heterogeneous'
p3035
sg30
F23.6
sg31
g1334
sg33
g34
sba(iexpclass
expclass
p3036
(dp3037
g6
S'Ceria-Zirconia'
p3038
sg8
S'gas'
p3039
sg10
F0.15135612484362082
sg11
S'Okolie'
p3040
sg13
S'10.1002/anie.201704704'
p3041
sg15
F-0.82
sg16
S'no'
p3042
sg18
S'Ni'
p3043
sg20
g21
sg22
S'None'
p3044
sg24
I723
sg25
S'O2'
p3045
sg27
Nsg28
S'heterogeneous'
p3046
sg30
F43.0
sg31
S'pink'
p3047
sg33
g34
sba(iexpclass
expclass
p3048
(dp3049
g6
S'Zirconia'
p3050
sg8
S'aqueous'
p3051
sg10
F1.3803842646028839e-05
sg11
S'Kwon'
p3052
sg13
S'10.1021/jacs.7b11010'
p3053
sg15
F-4.86
sg16
S'yes'
p3054
sg18
S'Rh'
p3055
sg20
g21
sg22
S'None'
p3056
sg24
I343
sg25
S'H2O2'
p3057
sg27
Nsg28
S'heterogeneous'
p3058
sg30
F71.0
sg31
S'lightskyblue'
p3059
sg33
g34
sba(iexpclass
expclass
p3060
(dp3061
g6
g2839
sg8
S'aqueous'
p3062
sg10
F0.0001412537544622754
sg11
S'Hutchings'
p3063
sg13
S'10.1126/science.aan6515'
p3064
sg15
F-3.85
sg16
S'yes'
p3065
sg18
S'Au-Pd'
p3066
sg20
g21
sg22
S'Radical'
p3067
sg24
I323
sg25
S'H2O2/O2'
p3068
sg27
Nsg28
S'heterogeneous'
p3069
sg30
F100.0
sg31
S'palegoldenrod'
p3070
sg33
g34
sba(iexpclass
expclass
p3071
(dp3072
g6
g2839
sg8
S'aqueous'
p3073
sg10
F0.0003235936569296281
sg11
S'Hutchings'
p3074
sg13
S'10.1126/science.aan6515'
p3075
sg15
F-3.49
sg16
S'yes'
p3076
sg18
S'Au-Pd'
p3077
sg20
g21
sg22
S'Radical'
p3078
sg24
I323
sg25
S'H2O2/O2'
p3079
sg27
Nsg28
S'heterogeneous'
p3080
sg30
F97.10144928
sg31
g3070
sg33
g34
sba(iexpclass
expclass
p3081
(dp3082
g6
g2839
sg8
S'aqueous'
p3083
sg10
F0.0004365158322401661
sg11
S'Hutchings'
p3084
sg13
S'10.1126/science.aan6515'
p3085
sg15
F-3.36
sg16
S'yes'
p3086
sg18
S'Au-Pd'
p3087
sg20
g21
sg22
S'Radical'
p3088
sg24
I323
sg25
S'H2O2/O2'
p3089
sg27
Nsg28
S'heterogeneous'
p3090
sg30
F95.18716578
sg31
g3070
sg33
g34
sba(iexpclass
expclass
p3091
(dp3092
g6
g2839
sg8
S'aqueous'
p3093
sg10
F0.0005754399373371566
sg11
S'Hutchings'
p3094
sg13
S'10.1126/science.aan6515'
p3095
sg15
F-3.24
sg16
S'yes'
p3096
sg18
S'Au-Pd'
p3097
sg20
g21
sg22
S'Radical'
p3098
sg24
I323
sg25
S'H2O2/O2'
p3099
sg27
Nsg28
S'heterogeneous'
p3100
sg30
F92.33870968
sg31
g3070
sg33
g34
sba(iexpclass
expclass
p3101
(dp3102
g6
g2839
sg8
S'aqueous'
p3103
sg10
F0.0006606934480075957
sg11
S'Hutchings'
p3104
sg13
S'10.1126/science.aan6515'
p3105
sg15
F-3.18
sg16
S'yes'
p3106
sg18
S'Au-Pd'
p3107
sg20
g21
sg22
S'Radical'
p3108
sg24
I323
sg25
S'H2O2/O2'
p3109
sg27
Nsg28
S'heterogeneous'
p3110
sg30
F91.57894737
sg31
g3070
sg33
g34
sba(iexpclass
expclass
p3111
(dp3112
g6
g2839
sg8
S'aqueous'
p3113
sg10
F0.0006606934480075957
sg11
S'Hutchings'
p3114
sg13
S'10.1126/science.aan6515'
p3115
sg15
F-3.18
sg16
S'yes'
p3116
sg18
S'Au-Pd'
p3117
sg20
g21
sg22
S'Radical'
p3118
sg24
I323
sg25
S'H2O2/O2'
p3119
sg27
Nsg28
S'heterogeneous'
p3120
sg30
F81.75438596
sg31
g3070
sg33
g34
sba(iexpclass
expclass
p3121
(dp3122
g6
g2839
sg8
S'aqueous'
p3123
sg10
F0.0007943282347242813
sg11
S'Hutchings'
p3124
sg13
S'10.1126/science.aan6515'
p3125
sg15
F-3.1
sg16
S'yes'
p3126
sg18
S'Au-Pd'
p3127
sg20
g21
sg22
S'Radical'
p3128
sg24
I323
sg25
S'H2O2/O2'
p3129
sg27
Nsg28
S'heterogeneous'
p3130
sg30
F86.39053254
sg31
g3070
sg33
g34
sba(iexpclass
expclass
p3131
(dp3132
g6
g2839
sg8
S'aqueous'
p3133
sg10
F0.0008912509381337459
sg11
S'Hutchings'
p3134
sg13
S'10.1126/science.aan6515'
p3135
sg15
F-3.05
sg16
S'yes'
p3136
sg18
S'Au-Pd'
p3137
sg20
g21
sg22
S'Radical'
p3138
sg24
I323
sg25
S'H2O2/O2'
p3139
sg27
Nsg28
S'heterogeneous'
p3140
sg30
F84.375
sg31
g3070
sg33
g34
sba(iexpclass
expclass
p3141
(dp3142
g6
g2839
sg8
S'aqueous'
p3143
sg10
F0.001
sg11
S'Hutchings'
p3144
sg13
S'10.1126/science.aan6515'
p3145
sg15
F-3.0
sg16
S'yes'
p3146
sg18
S'Au-Pd'
p3147
sg20
g21
sg22
S'Radical'
p3148
sg24
I323
sg25
S'H2O2/O2'
p3149
sg27
Nsg28
S'heterogeneous'
p3150
sg30
F79.86111111
sg31
g3070
sg33
g34
sba(iexpclass
expclass
p3151
(dp3152
g6
g2839
sg8
S'aqueous'
p3153
sg10
F0.001174897554939529
sg11
S'Hutchings'
p3154
sg13
S'10.1126/science.aan6515'
p3155
sg15
F-2.93
sg16
S'yes'
p3156
sg18
S'Au-Pd'
p3157
sg20
g21
sg22
S'Radical'
p3158
sg24
I323
sg25
S'H2O2/O2'
p3159
sg27
Nsg28
S'heterogeneous'
p3160
sg30
F77.55905512
sg31
g3070
sg33
g34
sba(iexpclass
expclass
p3161
(dp3162
g6
S'MMO'
p3163
sg8
S'aqueous'
p3164
sg10
F0.3409090912470263
sg11
S'Mountfort'
p3165
sg13
S'10.1016/0141-0229(90)90162-J'
p3166
sg15
F-0.467361417
sg16
S'yes'
p3167
sg18
S'Fe'
p3168
sg20
g21
sg22
S'MMO'
p3169
sg24
I303
sg25
S'O2'
p3170
sg27
Nsg28
S'homogeneous'
p3171
sg30
F0.0
sg31
g32
sg33
g34
sba(iexpclass
expclass
p3172
(dp3173
g6
S'MMO'
p3174
sg8
S'aqueous'
p3175
sg10
F0.0874999999955044
sg11
S'Mountfort'
p3176
sg13
S'10.1016/0141-0229(90)90162-J'
p3177
sg15
F-1.057991947
sg16
S'yes'
p3178
sg18
S'Fe'
p3179
sg20
g21
sg22
S'MMO'
p3180
sg24
I303
sg25
S'O2'
p3181
sg27
Nsg28
S'homogeneous'
p3182
sg30
F36.36363636
sg31
g32
sg33
g34
sba(iexpclass
expclass
p3183
(dp3184
g6
S'MMO'
p3185
sg8
S'aqueous'
p3186
sg10
F0.08295454546022085
sg11
S'Mountfort'
p3187
sg13
S'10.1016/0141-0229(90)90162-J'
p3188
sg15
F-1.081159812
sg16
S'yes'
p3189
sg18
S'Fe'
p3190
sg20
g21
sg22
S'MMO'
p3191
sg24
I303
sg25
S'O2'
p3192
sg27
Nsg28
S'homogeneous'
p3193
sg30
F61.36986301
sg31
g32
sg33
g34
sba(iexpclass
expclass
p3194
(dp3195
g6
S'MMO'
p3196
sg8
S'aqueous'
p3197
sg10
F0.09159090916368459
sg11
S'Mountfort'
p3198
sg13
S'10.1016/0141-0229(90)90162-J'
p3199
sg15
F-1.03814763
sg16
S'yes'
p3200
sg18
S'Fe'
p3201
sg20
g21
sg22
S'MMO'
p3202
sg24
I303
sg25
S'O2'
p3203
sg27
Nsg28
S'homogeneous'
p3204
sg30
F15.38461538
sg31
g32
sg33
g34
sba(iexpclass
expclass
p3205
(dp3206
g6
S'MMO'
p3207
sg8
S'aqueous'
p3208
sg10
F0.33772727277519976
sg11
S'Mountfort'
p3209
sg13
S'10.1016/0141-0229(90)90162-J'
p3210
sg15
F-0.471433867
sg16
S'yes'
p3211
sg18
S'Fe'
p3212
sg20
g21
sg22
S'MMO'
p3213
sg24
I303
sg25
S'O2'
p3214
sg27
Nsg28
S'homogeneous'
p3215
sg30
F0.0
sg31
g32
sg33
g34
sba(iexpclass
expclass
p3216
(dp3217
g6
S'ZSM-5'
p3218
sg8
S'aqueous'
p3219
sg10
F0.003999999996979355
sg11
S'Shan'
p3220
sg13
S'10.1038/nature24640'
p3221
sg15
F-2.397940009
sg16
S'yes'
p3222
sg18
S'Rh'
p3223
sg20
g21
sg22
S'None'
p3224
sg24
I423
sg25
S'O2/CO'
p3225
sg27
Nsg28
S'heterogeneous'
p3226
sg30
F71.42857143
sg31
g3059
sg33
g34
sba(iexpclass
expclass
p3227
(dp3228
g6
S'ZSM-5'
p3229
sg8
S'aqueous'
p3230
sg10
F0.00499999999613144
sg11
S'Shan'
p3231
sg13
S'10.1038/nature24640'
p3232
sg15
F-2.301029996
sg16
S'yes'
p3233
sg18
S'Rh'
p3234
sg20
g21
sg22
S'None'
p3235
sg24
I423
sg25
S'O2/CO'
p3236
sg27
Nsg28
S'heterogeneous'
p3237
sg30
F71.09375
sg31
g3059
sg33
g34
sba(iexpclass
expclass
p3238
(dp3239
g6
S'ZSM-5'
p3240
sg8
S'aqueous'
p3241
sg10
F0.014000000010372377
sg11
S'Shan'
p3242
sg13
S'10.1038/nature24640'
p3243
sg15
F-1.853871964
sg16
S'yes'
p3244
sg18
S'Rh'
p3245
sg20
g21
sg22
S'None'
p3246
sg24
I423
sg25
S'O2/CO'
p3247
sg27
Nsg28
S'heterogeneous'
p3248
sg30
F73.06397306
sg31
g3059
sg33
g34
sba(iexpclass
expclass
p3249
(dp3250
g6
S'ZSM-5'
p3251
sg8
S'aqueous'
p3252
sg10
F0.039999999969793545
sg11
S'Shan'
p3253
sg13
S'10.1038/nature24640'
p3254
sg15
F-1.397940009
sg16
S'yes'
p3255
sg18
S'Rh'
p3256
sg20
g21
sg22
S'None'
p3257
sg24
I423
sg25
S'O2/CO'
p3258
sg27
Nsg28
S'heterogeneous'
p3259
sg30
F63.69346734
sg31
g3059
sg33
g34
sbasb.