(iexpclass
expclasses
p0
(dp1
S'data'
p2
(lp3
(iexpclass
expclass
p4
(dp5
S'cattype'
p6
S'MFI'
p7
sS'rxntype'
p8
S'gas'
p9
sS'conv'
p10
F0.6165950018614822
sS'author'
p11
S'Wood'
p12
sS'DOI'
p13
S'10.1016/j.jcat.2004.04.010'
p14
sS'log_conv'
p15
F-0.21
sS'single_site'
p16
S'yes'
p17
sS'cat'
p18
S'Fe'
p19
sS'tag'
p20
S'None'
p21
sS'T'
p22
I673
sS'oxidant'
p23
S'N2O'
p24
sS'dEa'
p25
NsS'catalysis'
p26
S'heterogeneous'
p27
sS'sel'
p28
F2.0
sba(iexpclass
expclass
p29
(dp30
g6
S'sodalite'
p31
sg8
S'gas'
p32
sg10
F0.038018939632056124
sg11
S'Durante'
p33
sg13
S'US4918249'
p34
sg15
F-1.42
sg16
S'yes'
p35
sg18
S'Fe'
p36
sg20
S'None'
p37
sg22
I670
sg23
S'O2'
p38
sg25
Nsg26
S'heterogeneous'
p39
sg28
F59.0
sba(iexpclass
expclass
p40
(dp41
g6
S'sodalite'
p42
sg8
S'gas'
p43
sg10
F0.04265795188015926
sg11
S'Durante'
p44
sg13
S'US4918249'
p45
sg15
F-1.37
sg16
S'yes'
p46
sg18
S'Fe'
p47
sg20
S'None'
p48
sg22
I675
sg23
S'O2'
p49
sg25
Nsg26
S'heterogeneous'
p50
sg28
F63.0
sba(iexpclass
expclass
p51
(dp52
g6
S'sodalite'
p53
sg8
S'gas'
p54
sg10
F0.04570881896148749
sg11
S'Durante'
p55
sg13
S'US4918249'
p56
sg15
F-1.34
sg16
S'yes'
p57
sg18
S'Fe'
p58
sg20
S'None'
p59
sg22
I680
sg23
S'O2'
p60
sg25
Nsg26
S'heterogeneous'
p61
sg28
F64.0
sba(iexpclass
expclass
p62
(dp63
g6
S'sodalite'
p64
sg8
S'gas'
p65
sg10
F0.054954087385762455
sg11
S'Durante'
p66
sg13
S'US4918249'
p67
sg15
F-1.26
sg16
S'yes'
p68
sg18
S'Fe'
p69
sg20
S'None'
p70
sg22
I686
sg23
S'O2'
p71
sg25
Nsg26
S'heterogeneous'
p72
sg28
F66.0
sba(iexpclass
expclass
p73
(dp74
g6
S'sodalite'
p75
sg8
S'gas'
p76
sg10
F0.05248074602497726
sg11
S'Durante'
p77
sg13
S'US4918249'
p78
sg15
F-1.28
sg16
S'yes'
p79
sg18
S'Fe'
p80
sg20
S'None'
p81
sg22
I687
sg23
S'O2'
p82
sg25
Nsg26
S'heterogeneous'
p83
sg28
F70.0
sba(iexpclass
expclass
p84
(dp85
g6
S'sodalite'
p86
sg8
S'gas'
p87
sg10
F0.057543993733715694
sg11
S'Durante'
p88
sg13
S'US4918249'
p89
sg15
F-1.24
sg16
S'yes'
p90
sg18
S'Fe'
p91
sg20
S'None'
p92
sg22
I689
sg23
S'O2'
p93
sg25
Nsg26
S'heterogeneous'
p94
sg28
F70.0
sba(iexpclass
expclass
p95
(dp96
g6
S'sodalite'
p97
sg8
S'gas'
p98
sg10
F0.05370317963702527
sg11
S'Durante'
p99
sg13
S'US4918249'
p100
sg15
F-1.27
sg16
S'yes'
p101
sg18
S'Fe'
p102
sg20
S'None'
p103
sg22
I691
sg23
S'O2'
p104
sg25
Nsg26
S'heterogeneous'
p105
sg28
F68.0
sba(iexpclass
expclass
p106
(dp107
g6
S'sodalite'
p108
sg8
S'gas'
p109
sg10
F0.05370317963702527
sg11
S'Durante'
p110
sg13
S'US4918249'
p111
sg15
F-1.27
sg16
S'yes'
p112
sg18
S'Fe'
p113
sg20
S'None'
p114
sg22
I695
sg23
S'O2'
p115
sg25
Nsg26
S'heterogeneous'
p116
sg28
F65.0
sba(iexpclass
expclass
p117
(dp118
g6
S'sodalite'
p119
sg8
S'gas'
p120
sg10
F0.05128613839913648
sg11
S'Durante'
p121
sg13
S'US4918249'
p122
sg15
F-1.29
sg16
S'yes'
p123
sg18
S'Fe'
p124
sg20
S'None'
p125
sg22
I700
sg23
S'O2'
p126
sg25
Nsg26
S'heterogeneous'
p127
sg28
F66.0
sba(iexpclass
expclass
p128
(dp129
g6
S'sodalite'
p130
sg8
S'gas'
p131
sg10
F0.054954087385762455
sg11
S'Durante'
p132
sg13
S'US4918249'
p133
sg15
F-1.26
sg16
S'yes'
p134
sg18
S'Fe'
p135
sg20
S'None'
p136
sg22
I705
sg23
S'O2'
p137
sg25
Nsg26
S'heterogeneous'
p138
sg28
F63.0
sba(iexpclass
expclass
p139
(dp140
g6
S'sodalite'
p141
sg8
S'gas'
p142
sg10
F0.06165950018614822
sg11
S'Durante'
p143
sg13
S'US4918249'
p144
sg15
F-1.21
sg16
S'yes'
p145
sg18
S'Fe'
p146
sg20
S'None'
p147
sg22
I715
sg23
S'O2'
p148
sg25
Nsg26
S'heterogeneous'
p149
sg28
F64.0
sba(iexpclass
expclass
p150
(dp151
g6
S'sodalite'
p152
sg8
S'gas'
p153
sg10
F0.05623413251903491
sg11
S'Durante'
p154
sg13
S'US4918249'
p155
sg15
F-1.25
sg16
S'yes'
p156
sg18
S'Fe'
p157
sg20
S'None'
p158
sg22
I725
sg23
S'O2'
p159
sg25
Nsg26
S'heterogeneous'
p160
sg28
F59.0
sba(iexpclass
expclass
p161
(dp162
g6
S'sodalite'
p163
sg8
S'gas'
p164
sg10
F0.057543993733715694
sg11
S'Durante'
p165
sg13
S'US4918249'
p166
sg15
F-1.24
sg16
S'yes'
p167
sg18
S'Fe'
p168
sg20
S'None'
p169
sg22
I735
sg23
S'O2'
p170
sg25
Nsg26
S'heterogeneous'
p171
sg28
F58.0
sba(iexpclass
expclass
p172
(dp173
g6
S'sodalite'
p174
sg8
S'gas'
p175
sg10
F0.0446683592150963
sg11
S'Durante'
p176
sg13
S'US4918249'
p177
sg15
F-1.35
sg16
S'yes'
p178
sg18
S'Fe'
p179
sg20
S'None'
p180
sg22
I692
sg23
S'O2'
p181
sg25
Nsg26
S'heterogeneous'
p182
sg28
F59.0
sba(iexpclass
expclass
p183
(dp184
g6
S'sodalite'
p185
sg8
S'gas'
p186
sg10
F0.05370317963702527
sg11
S'Durante'
p187
sg13
S'US4918249'
p188
sg15
F-1.27
sg16
S'yes'
p189
sg18
S'Fe'
p190
sg20
S'None'
p191
sg22
I698
sg23
S'O2'
p192
sg25
Nsg26
S'heterogeneous'
p193
sg28
F63.0
sba(iexpclass
expclass
p194
(dp195
g6
S'sodalite'
p196
sg8
S'gas'
p197
sg10
F0.057543993733715694
sg11
S'Durante'
p198
sg13
S'US4918249'
p199
sg15
F-1.24
sg16
S'yes'
p200
sg18
S'Fe'
p201
sg20
S'None'
p202
sg22
I703
sg23
S'O2'
p203
sg25
Nsg26
S'heterogeneous'
p204
sg28
F62.0
sba(iexpclass
expclass
p205
(dp206
g6
S'sodalite'
p207
sg8
S'gas'
p208
sg10
F0.05248074602497726
sg11
S'Durante'
p209
sg13
S'US4918249'
p210
sg15
F-1.28
sg16
S'yes'
p211
sg18
S'Fe'
p212
sg20
S'None'
p213
sg22
I713
sg23
S'O2'
p214
sg25
Nsg26
S'heterogeneous'
p215
sg28
F59.0
sba(iexpclass
expclass
p216
(dp217
g6
S'sodalite'
p218
sg8
S'gas'
p219
sg10
F0.039810717055349734
sg11
S'Durante'
p220
sg13
S'US4918249'
p221
sg15
F-1.4
sg16
S'yes'
p222
sg18
S'Fe'
p223
sg20
S'None'
p224
sg22
I703
sg23
S'O2'
p225
sg25
Nsg26
S'heterogeneous'
p226
sg28
F52.0
sba(iexpclass
expclass
p227
(dp228
g6
S'sodalite'
p229
sg8
S'gas'
p230
sg10
F0.04570881896148749
sg11
S'Durante'
p231
sg13
S'US4918249'
p232
sg15
F-1.34
sg16
S'yes'
p233
sg18
S'Fe'
p234
sg20
S'None'
p235
sg22
I711
sg23
S'O2'
p236
sg25
Nsg26
S'heterogeneous'
p237
sg28
F55.0
sba(iexpclass
expclass
p238
(dp239
g6
S'sodalite'
p240
sg8
S'gas'
p241
sg10
F0.04897788193684462
sg11
S'Durante'
p242
sg13
S'US4918249'
p243
sg15
F-1.31
sg16
S'yes'
p244
sg18
S'Fe'
p245
sg20
S'None'
p246
sg22
I717
sg23
S'O2'
p247
sg25
Nsg26
S'heterogeneous'
p248
sg28
F54.0
sba(iexpclass
expclass
p249
(dp250
g6
S'sodalite'
p251
sg8
S'gas'
p252
sg10
F0.023988329190194897
sg11
S'Durante'
p253
sg13
S'US4918249'
p254
sg15
F-1.62
sg16
S'yes'
p255
sg18
S'Fe'
p256
sg20
S'None'
p257
sg22
I710
sg23
S'O2'
p258
sg25
Nsg26
S'heterogeneous'
p259
sg28
F43.0
sba(iexpclass
expclass
p260
(dp261
g6
S'sodalite'
p262
sg8
S'gas'
p263
sg10
F0.030902954325135904
sg11
S'Durante'
p264
sg13
S'US4918249'
p265
sg15
F-1.51
sg16
S'yes'
p266
sg18
S'Fe'
p267
sg20
S'None'
p268
sg22
I722
sg23
S'O2'
p269
sg25
Nsg26
S'heterogeneous'
p270
sg28
F45.0
sba(iexpclass
expclass
p271
(dp272
g6
S'sodalite'
p273
sg8
S'gas'
p274
sg10
F0.034673685045253165
sg11
S'Durante'
p275
sg13
S'US4918249'
p276
sg15
F-1.46
sg16
S'yes'
p277
sg18
S'Fe'
p278
sg20
S'None'
p279
sg22
I724
sg23
S'O2'
p280
sg25
Nsg26
S'heterogeneous'
p281
sg28
F46.0
sba(iexpclass
expclass
p282
(dp283
g6
S'sodalite'
p284
sg8
S'gas'
p285
sg10
F0.03715352290971726
sg11
S'Durante'
p286
sg13
S'US4918249'
p287
sg15
F-1.43
sg16
S'yes'
p288
sg18
S'Fe'
p289
sg20
S'None'
p290
sg22
I728
sg23
S'O2'
p291
sg25
Nsg26
S'heterogeneous'
p292
sg28
F45.0
sba(iexpclass
expclass
p293
(dp294
g6
S'sodalite'
p295
sg8
S'gas'
p296
sg10
F0.03890451449942807
sg11
S'Durante'
p297
sg13
S'US4918249'
p298
sg15
F-1.41
sg16
S'yes'
p299
sg18
S'Fe'
p300
sg20
S'None'
p301
sg22
I732
sg23
S'O2'
p302
sg25
Nsg26
S'heterogeneous'
p303
sg28
F44.0
sba(iexpclass
expclass
p304
(dp305
g6
S'sodalite'
p306
sg8
S'gas'
p307
sg10
F0.015848931924611134
sg11
S'Durante'
p308
sg13
S'US4918249'
p309
sg15
F-1.8
sg16
S'yes'
p310
sg18
S'Fe'
p311
sg20
S'None'
p312
sg22
I726
sg23
S'O2'
p313
sg25
Nsg26
S'heterogeneous'
p314
sg28
F38.0
sba(iexpclass
expclass
p315
(dp316
g6
S'sodalite'
p317
sg8
S'gas'
p318
sg10
F0.025703957827688632
sg11
S'Durante'
p319
sg13
S'US4918249'
p320
sg15
F-1.59
sg16
S'yes'
p321
sg18
S'Fe'
p322
sg20
S'None'
p323
sg22
I739
sg23
S'O2'
p324
sg25
Nsg26
S'heterogeneous'
p325
sg28
F40.0
sba(iexpclass
expclass
p326
(dp327
g6
S'sodalite'
p328
sg8
S'gas'
p329
sg10
F0.057543993733715694
sg11
S'Durante'
p330
sg13
S'US4918249'
p331
sg15
F-1.24
sg16
S'yes'
p332
sg18
S'Fe'
p333
sg20
S'None'
p334
sg22
I701
sg23
S'O2'
p335
sg25
Nsg26
S'heterogeneous'
p336
sg28
F24.0
sba(iexpclass
expclass
p337
(dp338
g6
S'sodalite'
p339
sg8
S'gas'
p340
sg10
F0.057543993733715694
sg11
S'Durante'
p341
sg13
S'US4918249'
p342
sg15
F-1.24
sg16
S'yes'
p343
sg18
S'Fe'
p344
sg20
S'None'
p345
sg22
I707
sg23
S'O2'
p346
sg25
Nsg26
S'heterogeneous'
p347
sg28
F25.0
sba(iexpclass
expclass
p348
(dp349
g6
S'sodalite'
p350
sg8
S'gas'
p351
sg10
F0.05623413251903491
sg11
S'Durante'
p352
sg13
S'US4918249'
p353
sg15
F-1.25
sg16
S'yes'
p354
sg18
S'Fe'
p355
sg20
S'None'
p356
sg22
I712
sg23
S'O2'
p357
sg25
Nsg26
S'heterogeneous'
p358
sg28
F21.0
sba(iexpclass
expclass
p359
(dp360
g6
S'SiO2'
p361
sg8
S'gas'
p362
sg10
F0.022908676527677734
sg11
S'Durante'
p363
sg13
S'US4918249'
p364
sg15
F-1.64
sg16
S'no'
p365
sg18
S'Fe'
p366
sg20
S'None'
p367
sg22
I712
sg23
S'O2'
p368
sg25
Nsg26
S'heterogeneous'
p369
sg28
F25.0
sba(iexpclass
expclass
p370
(dp371
g6
S'ZSM-5'
p372
sg8
S'gas'
p373
sg10
F0.05128613839913648
sg11
S'Durante'
p374
sg13
S'US4918249'
p375
sg15
F-1.29
sg16
S'yes'
p376
sg18
S'Fe'
p377
sg20
S'None'
p378
sg22
I709
sg23
S'O2'
p379
sg25
Nsg26
S'heterogeneous'
p380
sg28
F18.0
sba(iexpclass
expclass
p381
(dp382
g6
S'sodalite'
p383
sg8
S'gas'
p384
sg10
F0.057543993733715694
sg11
S'Durante'
p385
sg13
S'US4918249'
p386
sg15
F-1.24
sg16
S'yes'
p387
sg18
S'Fe'
p388
sg20
S'None'
p389
sg22
I708
sg23
S'O2'
p390
sg25
Nsg26
S'heterogeneous'
p391
sg28
F25.0
sba(iexpclass
expclass
p392
(dp393
g6
S'MO3/SiO2/Al2O3'
p394
sg8
S'gas'
p395
sg10
F0.022908676527677734
sg11
S'Durante'
p396
sg13
S'US4918249'
p397
sg15
F-1.64
sg16
S'no'
p398
sg18
S'Fe'
p399
sg20
S'None'
p400
sg22
I723
sg23
S'O2'
p401
sg25
Nsg26
S'heterogeneous'
p402
sg28
F47.0
sba(iexpclass
expclass
p403
(dp404
g6
S'Sodalite'
p405
sg8
S'gas'
p406
sg10
F0.04897788193684462
sg11
S'Durante'
p407
sg13
S'US4918249'
p408
sg15
F-1.31
sg16
S'yes'
p409
sg18
S'Fe'
p410
sg20
S'None'
p411
sg22
I717
sg23
S'O2'
p412
sg25
Nsg26
S'heterogeneous'
p413
sg28
F54.0
sba(iexpclass
expclass
p414
(dp415
g6
S'glass-beads'
p416
sg8
S'gas'
p417
sg10
F0.001995262314968879
sg11
S'Durante'
p418
sg13
S'US4918249'
p419
sg15
F-2.7
sg16
S'no'
p420
sg18
S'Fe'
p421
sg20
S'None'
p422
sg22
I680
sg23
S'O2'
p423
sg25
Nsg26
S'heterogeneous'
p424
sg28
F47.0
sba(iexpclass
expclass
p425
(dp426
g6
S'glass-beads'
p427
sg8
S'gas'
p428
sg10
F0.01412537544622754
sg11
S'Durante'
p429
sg13
S'US4918249'
p430
sg15
F-1.85
sg16
S'no'
p431
sg18
S'Fe'
p432
sg20
S'None'
p433
sg22
I691
sg23
S'O2'
p434
sg25
Nsg26
S'heterogeneous'
p435
sg28
F44.0
sba(iexpclass
expclass
p436
(dp437
g6
S'glass-beads'
p438
sg8
S'gas'
p439
sg10
F0.025118864315095794
sg11
S'Durante'
p440
sg13
S'US4918249'
p441
sg15
F-1.6
sg16
S'no'
p442
sg18
S'Fe'
p443
sg20
S'None'
p444
sg22
I695
sg23
S'O2'
p445
sg25
Nsg26
S'heterogeneous'
p446
sg28
F56.0
sba(iexpclass
expclass
p447
(dp448
g6
S'glass-beads'
p449
sg8
S'gas'
p450
sg10
F0.04265795188015926
sg11
S'Durante'
p451
sg13
S'US4918249'
p452
sg15
F-1.37
sg16
S'no'
p453
sg18
S'Fe'
p454
sg20
S'None'
p455
sg22
I703
sg23
S'O2'
p456
sg25
Nsg26
S'heterogeneous'
p457
sg28
F56.0
sba(iexpclass
expclass
p458
(dp459
g6
S'hydroxysodalite'
p460
sg8
S'gas'
p461
sg10
F0.003019951720402016
sg11
S'Durante'
p462
sg13
S'US4918249'
p463
sg15
F-2.52
sg16
S'yes'
p464
sg18
S'Fe'
p465
sg20
S'None'
p466
sg22
I708
sg23
S'O2'
p467
sg25
Nsg26
S'heterogeneous'
p468
sg28
F59.0
sba(iexpclass
expclass
p469
(dp470
g6
S'hydroxysodalite'
p471
sg8
S'gas'
p472
sg10
F0.05128613839913648
sg11
S'Durante'
p473
sg13
S'US4918249'
p474
sg15
F-1.29
sg16
S'yes'
p475
sg18
S'Fe'
p476
sg20
S'None'
p477
sg22
I718
sg23
S'O2'
p478
sg25
Nsg26
S'heterogeneous'
p479
sg28
F24.0
sba(iexpclass
expclass
p480
(dp481
g6
S'hydroxysodalite'
p482
sg8
S'gas'
p483
sg10
F0.05248074602497726
sg11
S'Durante'
p484
sg13
S'US4918249'
p485
sg15
F-1.28
sg16
S'yes'
p486
sg18
S'Fe'
p487
sg20
S'None'
p488
sg22
I707
sg23
S'O2'
p489
sg25
Nsg26
S'heterogeneous'
p490
sg28
F18.0
sba(iexpclass
expclass
p491
(dp492
g6
S'ZSM-5'
p493
sg8
S'gas'
p494
sg10
F0.003890451449942805
sg11
S'Wang'
p495
sg13
S'10.1039/c39940002209'
p496
sg15
F-2.41
sg16
S'yes'
p497
sg18
S'Fe'
p498
sg20
S'None'
p499
sg22
I700
sg23
S'O2'
p500
sg25
Nsg26
S'heterogeneous'
p501
sg28
F0.0
sba(iexpclass
expclass
p502
(dp503
g6
S'ZSM-5'
p504
sg8
S'gas'
p505
sg10
F0.009120108393559097
sg11
S'Wang'
p506
sg13
S'10.1039/c39940002209'
p507
sg15
F-2.04
sg16
S'yes'
p508
sg18
S'Fe'
p509
sg20
S'None'
p510
sg22
I700
sg23
S'O2'
p511
sg25
Nsg26
S'heterogeneous'
p512
sg28
F0.0
sba(iexpclass
expclass
p513
(dp514
g6
S'ferrisilicate'
p515
sg8
S'gas'
p516
sg10
F0.003019951720402016
sg11
S'Wang'
p517
sg13
S'10.1039/c39940002209'
p518
sg15
F-2.52
sg16
S'yes'
p519
sg18
S'Fe'
p520
sg20
S'None'
p521
sg22
I700
sg23
S'O2'
p522
sg25
Nsg26
S'heterogeneous'
p523
sg28
F0.0
sba(iexpclass
expclass
p524
(dp525
g6
S'ferrisilicate'
p526
sg8
S'gas'
p527
sg10
F0.01513561248436208
sg11
S'Wang'
p528
sg13
S'10.1039/c39940002209'
p529
sg15
F-1.82
sg16
S'yes'
p530
sg18
S'Fe'
p531
sg20
S'None'
p532
sg22
I700
sg23
S'O2'
p533
sg25
Nsg26
S'heterogeneous'
p534
sg28
F0.0
sba(iexpclass
expclass
p535
(dp536
g6
S'FAPO-5'
p537
sg8
S'gas'
p538
sg10
F0.007943282347242814
sg11
S'Wang'
p539
sg13
S'10.1039/c39940002209'
p540
sg15
F-2.1
sg16
S'yes'
p541
sg18
S'Fe'
p542
sg20
S'None'
p543
sg22
I700
sg23
S'O2'
p544
sg25
Nsg26
S'heterogeneous'
p545
sg28
F0.0
sba(iexpclass
expclass
p546
(dp547
g6
S'FAPO-5'
p548
sg8
S'gas'
p549
sg10
F0.014791083881682071
sg11
S'Wang'
p550
sg13
S'10.1039/c39940002209'
p551
sg15
F-1.83
sg16
S'yes'
p552
sg18
S'Fe'
p553
sg20
S'None'
p554
sg22
I700
sg23
S'O2'
p555
sg25
Nsg26
S'heterogeneous'
p556
sg28
F1.9
sba(iexpclass
expclass
p557
(dp558
g6
S'phosphate'
p559
sg8
S'gas'
p560
sg10
F0.0007943282347242813
sg11
S'Wang'
p561
sg13
S'10.1039/c39940002209'
p562
sg15
F-3.1
sg16
S'no'
p563
sg18
S'Fe'
p564
sg20
S'None'
p565
sg22
I700
sg23
S'O2'
p566
sg25
Nsg26
S'heterogeneous'
p567
sg28
F1.6
sba(iexpclass
expclass
p568
(dp569
g6
S'phosphate'
p570
sg8
S'gas'
p571
sg10
F0.0019054607179632462
sg11
S'Wang'
p572
sg13
S'10.1039/c39940002209'
p573
sg15
F-2.72
sg16
S'no'
p574
sg18
S'Fe'
p575
sg20
S'None'
p576
sg22
I700
sg23
S'O2'
p577
sg25
Nsg26
S'heterogeneous'
p578
sg28
F20.3
sba(iexpclass
expclass
p579
(dp580
g6
S'phosphate'
p581
sg8
S'gas'
p582
sg10
F0.005128613839913648
sg11
S'Wang'
p583
sg13
S'10.1039/c39940002209'
p584
sg15
F-2.29
sg16
S'no'
p585
sg18
S'Fe'
p586
sg20
S'None'
p587
sg22
I700
sg23
S'O2'
p588
sg25
Nsg26
S'heterogeneous'
p589
sg28
F25.7
sba(iexpclass
expclass
p590
(dp591
g6
S'FePO4/MCM-41/PO4'
p592
sg8
S'gas'
p593
sg10
F0.0005011872336272725
sg11
S'Wang'
p594
sg13
S'10.1016/S0021-9517(03)00077-0'
p595
sg15
F-3.3
sg16
S'yes'
p596
sg18
S'Fe'
p597
sg20
S'None'
p598
sg22
I673
sg23
S'N2O'
p599
sg25
Nsg26
S'heterogeneous'
p600
sg28
F0.0
sba(iexpclass
expclass
p601
(dp602
g6
S'FePO4/MCM-41/PO5'
p603
sg8
S'gas'
p604
sg10
F0.0010964781961431851
sg11
S'Wang'
p605
sg13
S'10.1016/S0021-9517(03)00077-0'
p606
sg15
F-2.96
sg16
S'yes'
p607
sg18
S'Fe'
p608
sg20
S'None'
p609
sg22
I723
sg23
S'N2O'
p610
sg25
Nsg26
S'heterogeneous'
p611
sg28
F0.0
sba(iexpclass
expclass
p612
(dp613
g6
S'FePO4/MCM-41/PO6'
p614
sg8
S'gas'
p615
sg10
F0.003019951720402016
sg11
S'Wang'
p616
sg13
S'10.1016/S0021-9517(03)00077-0'
p617
sg15
F-2.52
sg16
S'yes'
p618
sg18
S'Fe'
p619
sg20
S'None'
p620
sg22
I673
sg23
S'N2O'
p621
sg25
Nsg26
S'heterogeneous'
p622
sg28
F15.0
sba(iexpclass
expclass
p623
(dp624
g6
S'FePO4/MCM-41/PO7'
p625
sg8
S'gas'
p626
sg10
F0.01148153621496883
sg11
S'Wang'
p627
sg13
S'10.1016/S0021-9517(03)00077-0'
p628
sg15
F-1.94
sg16
S'yes'
p629
sg18
S'Fe'
p630
sg20
S'None'
p631
sg22
I723
sg23
S'N2O'
p632
sg25
Nsg26
S'heterogeneous'
p633
sg28
F15.1
sba(iexpclass
expclass
p634
(dp635
g6
S'FePO4/MCM-41/PO8'
p636
sg8
S'gas'
p637
sg10
F0.008317637711026709
sg11
S'Wang'
p638
sg13
S'10.1016/S0021-9517(03)00077-0'
p639
sg15
F-2.08
sg16
S'yes'
p640
sg18
S'Fe'
p641
sg20
S'None'
p642
sg22
I673
sg23
S'N2O'
p643
sg25
Nsg26
S'heterogeneous'
p644
sg28
F23.6
sba(iexpclass
expclass
p645
(dp646
g6
S'FePO4/MCM-41/PO9'
p647
sg8
S'gas'
p648
sg10
F0.023988329190194897
sg11
S'Wang'
p649
sg13
S'10.1016/S0021-9517(03)00077-0'
p650
sg15
F-1.62
sg16
S'yes'
p651
sg18
S'Fe'
p652
sg20
S'None'
p653
sg22
I723
sg23
S'N2O'
p654
sg25
Nsg26
S'heterogeneous'
p655
sg28
F20.5
sba(iexpclass
expclass
p656
(dp657
g6
S'FePO4/MCM-41/PO10'
p658
sg8
S'gas'
p659
sg10
F0.009772372209558112
sg11
S'Wang'
p660
sg13
S'10.1016/S0021-9517(03)00077-0'
p661
sg15
F-2.01
sg16
S'yes'
p662
sg18
S'Fe'
p663
sg20
S'None'
p664
sg22
I673
sg23
S'N2O'
p665
sg25
Nsg26
S'heterogeneous'
p666
sg28
F23.7
sba(iexpclass
expclass
p667
(dp668
g6
S'FePO4/MCM-41/PO11'
p669
sg8
S'gas'
p670
sg10
F0.03019951720402016
sg11
S'Wang'
p671
sg13
S'10.1016/S0021-9517(03)00077-0'
p672
sg15
F-1.52
sg16
S'yes'
p673
sg18
S'Fe'
p674
sg20
S'None'
p675
sg22
I723
sg23
S'N2O'
p676
sg25
Nsg26
S'heterogeneous'
p677
sg28
F17.3
sba(iexpclass
expclass
p678
(dp679
g6
S'FePO4/MCM-41/PO12'
p680
sg8
S'gas'
p681
sg10
F0.008709635899560805
sg11
S'Wang'
p682
sg13
S'10.1016/S0021-9517(03)00077-0'
p683
sg15
F-2.06
sg16
S'yes'
p684
sg18
S'Fe'
p685
sg20
S'None'
p686
sg22
I673
sg23
S'N2O'
p687
sg25
Nsg26
S'heterogeneous'
p688
sg28
F20.2
sba(iexpclass
expclass
p689
(dp690
g6
S'FePO4/MCM-41/PO13'
p691
sg8
S'gas'
p692
sg10
F0.033884415613920256
sg11
S'Wang'
p693
sg13
S'10.1016/S0021-9517(03)00077-0'
p694
sg15
F-1.47
sg16
S'yes'
p695
sg18
S'Fe'
p696
sg20
S'None'
p697
sg22
I723
sg23
S'N2O'
p698
sg25
Nsg26
S'heterogeneous'
p699
sg28
F15.8
sba(iexpclass
expclass
p700
(dp701
g6
S'FePO4/MCM-41/PO14'
p702
sg8
S'gas'
p703
sg10
F0.008709635899560805
sg11
S'Wang'
p704
sg13
S'10.1016/S0021-9517(03)00077-0'
p705
sg15
F-2.06
sg16
S'yes'
p706
sg18
S'Fe'
p707
sg20
S'None'
p708
sg22
I673
sg23
S'N2O'
p709
sg25
Nsg26
S'heterogeneous'
p710
sg28
F35.3
sba(iexpclass
expclass
p711
(dp712
g6
S'FePO4/MCM-41/PO15'
p713
sg8
S'gas'
p714
sg10
F0.0199526231496888
sg11
S'Wang'
p715
sg13
S'10.1016/S0021-9517(03)00077-0'
p716
sg15
F-1.7
sg16
S'yes'
p717
sg18
S'Fe'
p718
sg20
S'None'
p719
sg22
I723
sg23
S'N2O'
p720
sg25
Nsg26
S'heterogeneous'
p721
sg28
F32.9
sba(iexpclass
expclass
p722
(dp723
g6
S'V2O5/silicate'
p724
sg8
S'gas'
p725
sg10
F0.0005011872336272725
sg11
S'Chen'
p726
sg13
S'10.1021/ie00016a002'
p727
sg15
F-3.3
sg16
S'no'
p728
sg18
S'V'
p729
sg20
S'None'
p730
sg22
I713
sg23
S'N2O'
p731
sg25
Nsg26
S'heterogeneous'
p732
sg28
F13.3
sba(iexpclass
expclass
p733
(dp734
g6
S'V2O5/silicate'
p735
sg8
S'gas'
p736
sg10
F0.0012882495516931337
sg11
S'Chen'
p737
sg13
S'10.1021/ie00016a002'
p738
sg15
F-2.89
sg16
S'no'
p739
sg18
g729
sg20
S'None'
p740
sg22
I733
sg23
S'N2O'
p741
sg25
Nsg26
S'heterogeneous'
p742
sg28
F27.7
sba(iexpclass
expclass
p743
(dp744
g6
S'V2O5/silicate'
p745
sg8
S'gas'
p746
sg10
F0.01148153621496883
sg11
S'Chen'
p747
sg13
S'10.1021/ie00016a002'
p748
sg15
F-1.94
sg16
S'no'
p749
sg18
g729
sg20
S'None'
p750
sg22
I763
sg23
S'N2O'
p751
sg25
Nsg26
S'heterogeneous'
p752
sg28
F10.1
sba(iexpclass
expclass
p753
(dp754
g6
S'V2O5/silicate'
p755
sg8
S'gas'
p756
sg10
F0.000707945784384138
sg11
S'Chen'
p757
sg13
S'10.1021/ie00016a002'
p758
sg15
F-3.15
sg16
S'no'
p759
sg18
g729
sg20
S'None'
p760
sg22
I713
sg23
S'N2O'
p761
sg25
Nsg26
S'heterogeneous'
p762
sg28
F56.7
sba(iexpclass
expclass
p763
(dp764
g6
S'V2O5/silicate'
p765
sg8
S'gas'
p766
sg10
F0.0028840315031266055
sg11
S'Chen'
p767
sg13
S'10.1021/ie00016a002'
p768
sg15
F-2.54
sg16
S'no'
p769
sg18
g729
sg20
S'None'
p770
sg22
I733
sg23
S'N2O'
p771
sg25
Nsg26
S'heterogeneous'
p772
sg28
F31.3
sba(iexpclass
expclass
p773
(dp774
g6
S'V2O5/silicate'
p775
sg8
S'gas'
p776
sg10
F0.016982436524617443
sg11
S'Chen'
p777
sg13
S'10.1021/ie00016a002'
p778
sg15
F-1.77
sg16
S'no'
p779
sg18
g729
sg20
S'None'
p780
sg22
I763
sg23
S'N2O'
p781
sg25
Nsg26
S'heterogeneous'
p782
sg28
F10.2
sba(iexpclass
expclass
p783
(dp784
g6
S'V2O5/silicate'
p785
sg8
S'gas'
p786
sg10
F0.002818382931264455
sg11
S'Chen'
p787
sg13
S'10.1021/ie00016a002'
p788
sg15
F-2.55
sg16
S'no'
p789
sg18
g729
sg20
S'None'
p790
sg22
I713
sg23
S'N2O'
p791
sg25
Nsg26
S'heterogeneous'
p792
sg28
F18.4
sba(iexpclass
expclass
p793
(dp794
g6
S'V2O5/silicate'
p795
sg8
S'gas'
p796
sg10
F0.009120108393559097
sg11
S'Chen'
p797
sg13
S'10.1021/ie00016a002'
p798
sg15
F-2.04
sg16
S'no'
p799
sg18
g729
sg20
S'None'
p800
sg22
I733
sg23
S'N2O'
p801
sg25
Nsg26
S'heterogeneous'
p802
sg28
F8.7
sba(iexpclass
expclass
p803
(dp804
g6
S'V2O5/silicate'
p805
sg8
S'gas'
p806
sg10
F0.046773514128719815
sg11
S'Chen'
p807
sg13
S'10.1021/ie00016a002'
p808
sg15
F-1.33
sg16
S'no'
p809
sg18
g729
sg20
S'None'
p810
sg22
I763
sg23
S'N2O'
p811
sg25
Nsg26
S'heterogeneous'
p812
sg28
F2.7
sba(iexpclass
expclass
p813
(dp814
g6
S'V2O5/silicate'
p815
sg8
S'gas'
p816
sg10
F0.004897788193684461
sg11
S'Chen'
p817
sg13
S'10.1021/ie00016a002'
p818
sg15
F-2.31
sg16
S'no'
p819
sg18
g729
sg20
S'None'
p820
sg22
I713
sg23
S'N2O'
p821
sg25
Nsg26
S'heterogeneous'
p822
sg28
F6.8
sba(iexpclass
expclass
p823
(dp824
g6
S'V2O5/silicate'
p825
sg8
S'gas'
p826
sg10
F0.01778279410038923
sg11
S'Chen'
p827
sg13
S'10.1021/ie00016a002'
p828
sg15
F-1.75
sg16
S'no'
p829
sg18
g729
sg20
S'None'
p830
sg22
I733
sg23
S'N2O'
p831
sg25
Nsg26
S'heterogeneous'
p832
sg28
F3.1
sba(iexpclass
expclass
p833
(dp834
g6
S'V2O5/silicate'
p835
sg8
S'gas'
p836
sg10
F0.08709635899560805
sg11
S'Chen'
p837
sg13
S'10.1021/ie00016a002'
p838
sg15
F-1.06
sg16
S'no'
p839
sg18
g729
sg20
S'None'
p840
sg22
I763
sg23
S'N2O'
p841
sg25
Nsg26
S'heterogeneous'
p842
sg28
F0.2
sba(iexpclass
expclass
p843
(dp844
g6
S'ZSM-5'
p845
sg8
S'gas'
p846
sg10
F0.11220184543019636
sg11
S'Michalkiewicz'
p847
sg13
S'10.1016/j.apcata.2004.09.005'
p848
sg15
F-0.95
sg16
S'yes'
p849
sg18
S'Fe'
p850
sg20
S'None'
p851
sg22
I903
sg23
S'O2'
p852
sg25
Nsg26
S'heterogeneous'
p853
sg28
F16.51
sba(iexpclass
expclass
p854
(dp855
g6
S'ZSM-5'
p856
sg8
S'gas'
p857
sg10
F0.19054607179632474
sg11
S'Michalkiewicz'
p858
sg13
S'10.1016/j.apcata.2004.09.005'
p859
sg15
F-0.72
sg16
S'yes'
p860
sg18
S'Fe'
p861
sg20
S'None'
p862
sg22
I903
sg23
S'O2'
p863
sg25
Nsg26
S'heterogeneous'
p864
sg28
F14.17
sba(iexpclass
expclass
p865
(dp866
g6
S'ZSM-5'
p867
sg8
S'gas'
p868
sg10
F0.31622776601683794
sg11
S'Michalkiewicz'
p869
sg13
S'10.1016/j.apcata.2004.09.005'
p870
sg15
F-0.5
sg16
S'yes'
p871
sg18
S'Fe'
p872
sg20
S'None'
p873
sg22
I903
sg23
S'O2'
p874
sg25
Nsg26
S'heterogeneous'
p875
sg28
F10.79
sba(iexpclass
expclass
p876
(dp877
g6
S'ZSM-5'
p878
sg8
S'gas'
p879
sg10
F0.0006025595860743575
sg11
S'Michalkiewicz'
p880
sg13
S'10.1016/j.apcata.2004.09.005'
p881
sg15
F-3.22
sg16
S'yes'
p882
sg18
S'Fe'
p883
sg20
S'None'
p884
sg22
I623
sg23
S'O2'
p885
sg25
Nsg26
S'heterogeneous'
p886
sg28
F74.37
sba(iexpclass
expclass
p887
(dp888
g6
S'ZSM-5'
p889
sg8
S'gas'
p890
sg10
F0.000707945784384138
sg11
S'Michalkiewicz'
p891
sg13
S'10.1016/j.apcata.2004.09.005'
p892
sg15
F-3.15
sg16
S'yes'
p893
sg18
S'Fe'
p894
sg20
S'None'
p895
sg22
I623
sg23
S'O2'
p896
sg25
Nsg26
S'heterogeneous'
p897
sg28
F69.13
sba(iexpclass
expclass
p898
(dp899
g6
S'ZSM-5'
p900
sg8
S'gas'
p901
sg10
F0.001
sg11
S'Michalkiewicz'
p902
sg13
S'10.1016/j.apcata.2004.09.005'
p903
sg15
F-3.0
sg16
S'yes'
p904
sg18
S'Fe'
p905
sg20
S'None'
p906
sg22
I623
sg23
S'O2'
p907
sg25
Nsg26
S'heterogeneous'
p908
sg28
F63.47
sba(iexpclass
expclass
p909
(dp910
g6
S'pyrophosphate'
p911
sg8
S'gas'
p912
sg10
F0.030902954325135904
sg11
S'Polniser'
p913
sg13
S'10.1016/j.apcata.2011.04.022'
p914
sg15
F-1.51
sg16
S'no'
p915
sg18
S'Cu-Fe'
p916
sg20
S'None'
p917
sg22
I903
sg23
S'N2O'
p918
sg25
Nsg26
S'heterogeneous'
p919
sg28
F2.1
sba(iexpclass
expclass
p920
(dp921
g6
S'pyrophosphate'
p922
sg8
S'gas'
p923
sg10
F0.043651583224016584
sg11
S'Polniser'
p924
sg13
S'10.1016/j.apcata.2011.04.022'
p925
sg15
F-1.36
sg16
S'no'
p926
sg18
S'Cu-Fe'
p927
sg20
S'None'
p928
sg22
I903
sg23
S'N2O'
p929
sg25
Nsg26
S'heterogeneous'
p930
sg28
F1.9
sba(iexpclass
expclass
p931
(dp932
g6
S'pyrophosphate'
p933
sg8
S'gas'
p934
sg10
F0.0446683592150963
sg11
S'Polniser'
p935
sg13
S'10.1016/j.apcata.2011.04.022'
p936
sg15
F-1.35
sg16
S'no'
p937
sg18
S'Cu-Fe'
p938
sg20
S'None'
p939
sg22
I903
sg23
S'N2O'
p940
sg25
Nsg26
S'heterogeneous'
p941
sg28
F2.5
sba(iexpclass
expclass
p942
(dp943
g6
S'pyrophosphate'
p944
sg8
S'gas'
p945
sg10
F0.06456542290346556
sg11
S'Polniser'
p946
sg13
S'10.1016/j.apcata.2011.04.022'
p947
sg15
F-1.19
sg16
S'no'
p948
sg18
S'Cu-Fe'
p949
sg20
S'None'
p950
sg22
I903
sg23
S'N2O'
p951
sg25
Nsg26
S'heterogeneous'
p952
sg28
F1.8
sba(iexpclass
expclass
p953
(dp954
g6
S'pyrophosphate'
p955
sg8
S'gas'
p956
sg10
F0.06918309709189366
sg11
S'Polniser'
p957
sg13
S'10.1016/j.apcata.2011.04.022'
p958
sg15
F-1.16
sg16
S'no'
p959
sg18
S'Cu-Fe'
p960
sg20
S'None'
p961
sg22
I903
sg23
S'N2O'
p962
sg25
Nsg26
S'heterogeneous'
p963
sg28
F1.2
sba(iexpclass
expclass
p964
(dp965
g6
S'pyrophosphate'
p966
sg8
S'gas'
p967
sg10
F0.0446683592150963
sg11
S'Polniser'
p968
sg13
S'10.1016/j.apcata.2011.04.022'
p969
sg15
F-1.35
sg16
S'no'
p970
sg18
S'Cu-Fe'
p971
sg20
S'None'
p972
sg22
I903
sg23
S'N2O'
p973
sg25
Nsg26
S'heterogeneous'
p974
sg28
F1.9
sba(iexpclass
expclass
p975
(dp976
g6
S'pyrophosphate'
p977
sg8
S'gas'
p978
sg10
F0.047863009232263824
sg11
S'Polniser'
p979
sg13
S'10.1016/j.apcata.2011.04.022'
p980
sg15
F-1.32
sg16
S'no'
p981
sg18
S'Cu-Fe'
p982
sg20
S'None'
p983
sg22
I903
sg23
S'N2O'
p984
sg25
Nsg26
S'heterogeneous'
p985
sg28
F2.6
sba(iexpclass
expclass
p986
(dp987
g6
S'pyrophosphate'
p988
sg8
S'gas'
p989
sg10
F0.05128613839913648
sg11
S'Polniser'
p990
sg13
S'10.1016/j.apcata.2011.04.022'
p991
sg15
F-1.29
sg16
S'no'
p992
sg18
S'Cu-Fe'
p993
sg20
S'None'
p994
sg22
I903
sg23
S'N2O'
p995
sg25
Nsg26
S'heterogeneous'
p996
sg28
F2.5
sba(iexpclass
expclass
p997
(dp998
g6
S'pyrophosphate'
p999
sg8
S'gas'
p1000
sg10
F0.05370317963702527
sg11
S'Polniser'
p1001
sg13
S'10.1016/j.apcata.2011.04.022'
p1002
sg15
F-1.27
sg16
S'no'
p1003
sg18
S'Cu-Fe'
p1004
sg20
S'None'
p1005
sg22
I903
sg23
S'N2O'
p1006
sg25
Nsg26
S'heterogeneous'
p1007
sg28
F2.3
sba(iexpclass
expclass
p1008
(dp1009
g6
S'pyrophosphate'
p1010
sg8
S'gas'
p1011
sg10
F0.01513561248436208
sg11
S'Polniser'
p1012
sg13
S'10.1016/j.apcata.2011.04.022'
p1013
sg15
F-1.82
sg16
S'no'
p1014
sg18
S'Cu-Fe'
p1015
sg20
S'None'
p1016
sg22
I903
sg23
S'N2O'
p1017
sg25
Nsg26
S'heterogeneous'
p1018
sg28
F9.1
sba(iexpclass
expclass
p1019
(dp1020
g6
S'pyrophosphate'
p1021
sg8
S'gas'
p1022
sg10
F0.012882495516931342
sg11
S'Polniser'
p1023
sg13
S'10.1016/j.apcata.2011.04.022'
p1024
sg15
F-1.89
sg16
S'no'
p1025
sg18
S'Cu-Fe'
p1026
sg20
S'None'
p1027
sg22
I903
sg23
S'N2O'
p1028
sg25
Nsg26
S'heterogeneous'
p1029
sg28
F10.1
sba(iexpclass
expclass
p1030
(dp1031
g6
S'MoO3'
p1032
sg8
S'gas'
p1033
sg10
F0.003019951720402016
sg11
S'Taylor'
p1034
sg13
S'10.1016/S0920-5861(98)00095-9'
p1035
sg15
F-2.52
sg16
S'no'
p1036
sg18
S'Mo'
p1037
sg20
S'None'
p1038
sg22
I723
sg23
S'O2'
p1039
sg25
Nsg26
S'heterogeneous'
p1040
sg28
F11.0
sba(iexpclass
expclass
p1041
(dp1042
g6
S'MoO3'
p1043
sg8
S'gas'
p1044
sg10
F0.012022644346174132
sg11
S'Taylor'
p1045
sg13
S'10.1016/S0920-5861(98)00095-9'
p1046
sg15
F-1.92
sg16
S'no'
p1047
sg18
S'Mo'
p1048
sg20
S'None'
p1049
sg22
I773
sg23
S'O2'
p1050
sg25
Nsg26
S'heterogeneous'
p1051
sg28
F0.0
sba(iexpclass
expclass
p1052
(dp1053
g6
S'MoO3'
p1054
sg8
S'gas'
p1055
sg10
F0.006025595860743574
sg11
S'Taylor'
p1056
sg13
S'10.1016/S0920-5861(98)00095-9'
p1057
sg15
F-2.22
sg16
S'no'
p1058
sg18
S'Cu'
p1059
sg20
S'None'
p1060
sg22
I723
sg23
S'O2'
p1061
sg25
Nsg26
S'heterogeneous'
p1062
sg28
F19.0
sba(iexpclass
expclass
p1063
(dp1064
g6
S'MoO3'
p1065
sg8
S'gas'
p1066
sg10
F0.04168693834703355
sg11
S'Taylor'
p1067
sg13
S'10.1016/S0920-5861(98)00095-9'
p1068
sg15
F-1.38
sg16
S'no'
p1069
sg18
S'Cu'
p1070
sg20
S'None'
p1071
sg22
I773
sg23
S'O2'
p1072
sg25
Nsg26
S'heterogeneous'
p1073
sg28
F0.0
sba(iexpclass
expclass
p1074
(dp1075
g6
S'MoO3'
p1076
sg8
S'gas'
p1077
sg10
F0.005011872336272725
sg11
S'Taylor'
p1078
sg13
S'10.1016/S0920-5861(98)00095-9'
p1079
sg15
F-2.3
sg16
S'no'
p1080
sg18
S'Co'
p1081
sg20
S'None'
p1082
sg22
I723
sg23
S'O2'
p1083
sg25
Nsg26
S'heterogeneous'
p1084
sg28
F14.0
sba(iexpclass
expclass
p1085
(dp1086
g6
S'MoO3'
p1087
sg8
S'gas'
p1088
sg10
F0.028840315031266057
sg11
S'Taylor'
p1089
sg13
S'10.1016/S0920-5861(98)00095-9'
p1090
sg15
F-1.54
sg16
S'no'
p1091
sg18
S'Co'
p1092
sg20
S'None'
p1093
sg22
I773
sg23
S'O2'
p1094
sg25
Nsg26
S'heterogeneous'
p1095
sg28
F0.0
sba(iexpclass
expclass
p1096
(dp1097
g6
S'MoO3'
p1098
sg8
S'gas'
p1099
sg10
F0.005011872336272725
sg11
S'Taylor'
p1100
sg13
S'10.1016/S0920-5861(98)00095-9'
p1101
sg15
F-2.3
sg16
S'no'
p1102
sg18
S'Fe'
p1103
sg20
S'None'
p1104
sg22
I723
sg23
S'O2'
p1105
sg25
Nsg26
S'heterogeneous'
p1106
sg28
F14.0
sba(iexpclass
expclass
p1107
(dp1108
g6
S'MoO3'
p1109
sg8
S'gas'
p1110
sg10
F0.03890451449942807
sg11
S'Taylor'
p1111
sg13
S'10.1016/S0920-5861(98)00095-9'
p1112
sg15
F-1.41
sg16
S'no'
p1113
sg18
S'Fe'
p1114
sg20
S'None'
p1115
sg22
I773
sg23
S'O2'
p1116
sg25
Nsg26
S'heterogeneous'
p1117
sg28
F0.0
sba(iexpclass
expclass
p1118
(dp1119
g6
S'MoO3'
p1120
sg8
S'gas'
p1121
sg10
F0.006025595860743574
sg11
S'Taylor'
p1122
sg13
S'10.1016/S0920-5861(98)00095-9'
p1123
sg15
F-2.22
sg16
S'no'
p1124
sg18
g729
sg20
S'None'
p1125
sg22
I723
sg23
S'O2'
p1126
sg25
Nsg26
S'heterogeneous'
p1127
sg28
F0.0
sba(iexpclass
expclass
p1128
(dp1129
g6
S'MoO3'
p1130
sg8
S'gas'
p1131
sg10
F0.006025595860743574
sg11
S'Taylor'
p1132
sg13
S'10.1016/S0920-5861(98)00095-9'
p1133
sg15
F-2.22
sg16
S'no'
p1134
sg18
g729
sg20
S'None'
p1135
sg22
I773
sg23
S'O2'
p1136
sg25
Nsg26
S'heterogeneous'
p1137
sg28
F0.0
sba(iexpclass
expclass
p1138
(dp1139
g6
S'MoO3'
p1140
sg8
S'gas'
p1141
sg10
F0.012882495516931342
sg11
S'Taylor'
p1142
sg13
S'10.1016/S0920-5861(98)00095-9'
p1143
sg15
F-1.89
sg16
S'no'
p1144
sg18
S'Ga'
p1145
sg20
S'None'
p1146
sg22
I723
sg23
S'O2'
p1147
sg25
Nsg26
S'heterogeneous'
p1148
sg28
F10.0
sba(iexpclass
expclass
p1149
(dp1150
g6
S'MoO3'
p1151
sg8
S'gas'
p1152
sg10
F0.03235936569296283
sg11
S'Taylor'
p1153
sg13
S'10.1016/S0920-5861(98)00095-9'
p1154
sg15
F-1.49
sg16
S'no'
p1155
sg18
S'Ga'
p1156
sg20
S'None'
p1157
sg22
I773
sg23
S'O2'
p1158
sg25
Nsg26
S'heterogeneous'
p1159
sg28
F0.0
sba(iexpclass
expclass
p1160
(dp1161
g6
S'WO3'
p1162
sg8
S'gas'
p1163
sg10
F0.005011872336272725
sg11
S'Taylor'
p1164
sg13
S'10.1016/S0920-5861(98)00095-9'
p1165
sg15
F-2.3
sg16
S'no'
p1166
sg18
S'W'
p1167
sg20
S'None'
p1168
sg22
I723
sg23
S'O2'
p1169
sg25
Nsg26
S'heterogeneous'
p1170
sg28
F6.0
sba(iexpclass
expclass
p1171
(dp1172
g6
S'WO3'
p1173
sg8
S'gas'
p1174
sg10
F0.003981071705534973
sg11
S'Taylor'
p1175
sg13
S'10.1016/S0920-5861(98)00095-9'
p1176
sg15
F-2.4
sg16
S'no'
p1177
sg18
g1167
sg20
S'None'
p1178
sg22
I773
sg23
S'O2'
p1179
sg25
Nsg26
S'heterogeneous'
p1180
sg28
F0.0
sba(iexpclass
expclass
p1181
(dp1182
g6
S'WO3'
p1183
sg8
S'gas'
p1184
sg10
F0.003019951720402016
sg11
S'Taylor'
p1185
sg13
S'10.1016/S0920-5861(98)00095-9'
p1186
sg15
F-2.52
sg16
S'no'
p1187
sg18
S'Cu'
p1188
sg20
S'None'
p1189
sg22
I723
sg23
S'O2'
p1190
sg25
Nsg26
S'heterogeneous'
p1191
sg28
F0.0
sba(iexpclass
expclass
p1192
(dp1193
g6
S'WO3'
p1194
sg8
S'gas'
p1195
sg10
F0.003981071705534973
sg11
S'Taylor'
p1196
sg13
S'10.1016/S0920-5861(98)00095-9'
p1197
sg15
F-2.4
sg16
S'no'
p1198
sg18
S'Cu'
p1199
sg20
S'None'
p1200
sg22
I773
sg23
S'O2'
p1201
sg25
Nsg26
S'heterogeneous'
p1202
sg28
F0.0
sba(iexpclass
expclass
p1203
(dp1204
g6
S'WO3'
p1205
sg8
S'gas'
p1206
sg10
F0.012022644346174132
sg11
S'Taylor'
p1207
sg13
S'10.1016/S0920-5861(98)00095-9'
p1208
sg15
F-1.92
sg16
S'no'
p1209
sg18
S'Co'
p1210
sg20
S'None'
p1211
sg22
I723
sg23
S'O2'
p1212
sg25
Nsg26
S'heterogeneous'
p1213
sg28
F0.0
sba(iexpclass
expclass
p1214
(dp1215
g6
S'WO3'
p1216
sg8
S'gas'
p1217
sg10
F0.003981071705534973
sg11
S'Taylor'
p1218
sg13
S'10.1016/S0920-5861(98)00095-9'
p1219
sg15
F-2.4
sg16
S'no'
p1220
sg18
S'Co'
p1221
sg20
S'None'
p1222
sg22
I773
sg23
S'O2'
p1223
sg25
Nsg26
S'heterogeneous'
p1224
sg28
F0.0
sba(iexpclass
expclass
p1225
(dp1226
g6
S'WO3'
p1227
sg8
S'gas'
p1228
sg10
F0.001995262314968879
sg11
S'Taylor'
p1229
sg13
S'10.1016/S0920-5861(98)00095-9'
p1230
sg15
F-2.7
sg16
S'no'
p1231
sg18
S'Fe'
p1232
sg20
S'None'
p1233
sg22
I723
sg23
S'O2'
p1234
sg25
Nsg26
S'heterogeneous'
p1235
sg28
F0.0
sba(iexpclass
expclass
p1236
(dp1237
g6
S'WO3'
p1238
sg8
S'gas'
p1239
sg10
F0.006025595860743574
sg11
S'Taylor'
p1240
sg13
S'10.1016/S0920-5861(98)00095-9'
p1241
sg15
F-2.22
sg16
S'no'
p1242
sg18
S'Fe'
p1243
sg20
S'None'
p1244
sg22
I773
sg23
S'O2'
p1245
sg25
Nsg26
S'heterogeneous'
p1246
sg28
F0.0
sba(iexpclass
expclass
p1247
(dp1248
g6
S'WO3'
p1249
sg8
S'gas'
p1250
sg10
F0.007943282347242814
sg11
S'Taylor'
p1251
sg13
S'10.1016/S0920-5861(98)00095-9'
p1252
sg15
F-2.1
sg16
S'no'
p1253
sg18
g729
sg20
S'None'
p1254
sg22
I723
sg23
S'O2'
p1255
sg25
Nsg26
S'heterogeneous'
p1256
sg28
F16.0
sba(iexpclass
expclass
p1257
(dp1258
g6
S'WO3'
p1259
sg8
S'gas'
p1260
sg10
F0.012022644346174132
sg11
S'Taylor'
p1261
sg13
S'10.1016/S0920-5861(98)00095-9'
p1262
sg15
F-1.92
sg16
S'no'
p1263
sg18
g729
sg20
S'None'
p1264
sg22
I773
sg23
S'O2'
p1265
sg25
Nsg26
S'heterogeneous'
p1266
sg28
F0.0
sba(iexpclass
expclass
p1267
(dp1268
g6
S'WO3'
p1269
sg8
S'gas'
p1270
sg10
F0.003981071705534973
sg11
S'Taylor'
p1271
sg13
S'10.1016/S0920-5861(98)00095-9'
p1272
sg15
F-2.4
sg16
S'no'
p1273
sg18
S'Ga'
p1274
sg20
S'None'
p1275
sg22
I723
sg23
S'O2'
p1276
sg25
Nsg26
S'heterogeneous'
p1277
sg28
F11.0
sba(iexpclass
expclass
p1278
(dp1279
g6
S'WO3'
p1280
sg8
S'gas'
p1281
sg10
F0.018197008586099836
sg11
S'Taylor'
p1282
sg13
S'10.1016/S0920-5861(98)00095-9'
p1283
sg15
F-1.74
sg16
S'no'
p1284
sg18
S'Ga'
p1285
sg20
S'None'
p1286
sg22
I773
sg23
S'O2'
p1287
sg25
Nsg26
S'heterogeneous'
p1288
sg28
F0.0
sba(iexpclass
expclass
p1289
(dp1290
g6
S'Ga2O3/MoO3'
p1291
sg8
S'gas'
p1292
sg10
F0.03019951720402016
sg11
S'Taylor'
p1293
sg13
S'10.1016/S0920-5861(98)00095-9'
p1294
sg15
F-1.52
sg16
S'no'
p1295
sg18
S'Ga'
p1296
sg20
S'None'
p1297
sg22
I723
sg23
S'O2'
p1298
sg25
Nsg26
S'heterogeneous'
p1299
sg28
F22.0
sba(iexpclass
expclass
p1300
(dp1301
g6
S'Ga2O3/MoO4'
p1302
sg8
S'gas'
p1303
sg10
F0.030902954325135904
sg11
S'Taylor'
p1304
sg13
S'10.1016/S0920-5861(98)00095-9'
p1305
sg15
F-1.51
sg16
S'no'
p1306
sg18
S'Ga'
p1307
sg20
S'None'
p1308
sg22
I773
sg23
S'O2'
p1309
sg25
Nsg26
S'heterogeneous'
p1310
sg28
F0.0
sba(iexpclass
expclass
p1311
(dp1312
g6
S'ZnO/MoO3'
p1313
sg8
S'gas'
p1314
sg10
F0.003981071705534973
sg11
S'Taylor'
p1315
sg13
S'10.1016/S0920-5861(98)00095-9'
p1316
sg15
F-2.4
sg16
S'no'
p1317
sg18
S'Zn'
p1318
sg20
S'None'
p1319
sg22
I728
sg23
S'O2'
p1320
sg25
Nsg26
S'heterogeneous'
p1321
sg28
F0.0
sba(iexpclass
expclass
p1322
(dp1323
g6
S'ZnO/MoO4'
p1324
sg8
S'gas'
p1325
sg10
F0.03630780547701014
sg11
S'Taylor'
p1326
sg13
S'10.1016/S0920-5861(98)00095-9'
p1327
sg15
F-1.44
sg16
S'no'
p1328
sg18
S'Zn'
p1329
sg20
S'None'
p1330
sg22
I773
sg23
S'O2'
p1331
sg25
Nsg26
S'heterogeneous'
p1332
sg28
F0.0
sba(iexpclass
expclass
p1333
(dp1334
g6
S'Ga2O3'
p1335
sg8
S'gas'
p1336
sg10
F0.01513561248436208
sg11
S'Taylor'
p1337
sg13
S'10.1016/S0920-5861(98)00095-9'
p1338
sg15
F-1.82
sg16
S'no'
p1339
sg18
S'Ga'
p1340
sg20
S'None'
p1341
sg22
I723
sg23
S'O2'
p1342
sg25
Nsg26
S'heterogeneous'
p1343
sg28
F3.0
sba(iexpclass
expclass
p1344
(dp1345
g6
S'Ga2O3'
p1346
sg8
S'gas'
p1347
sg10
F0.030902954325135904
sg11
S'Taylor'
p1348
sg13
S'10.1016/S0920-5861(98)00095-9'
p1349
sg15
F-1.51
sg16
S'no'
p1350
sg18
S'Ga'
p1351
sg20
S'None'
p1352
sg22
I773
sg23
S'O2'
p1353
sg25
Nsg26
S'heterogeneous'
p1354
sg28
F0.0
sba(iexpclass
expclass
p1355
(dp1356
g6
S'quartz-packing'
p1357
sg8
S'gas'
p1358
sg10
F0.003981071705534973
sg11
S'Taylor'
p1359
sg13
S'10.1016/S0920-5861(98)00095-9'
p1360
sg15
F-2.4
sg16
S'yes'
p1361
sg18
S'Gas-Phase(Radical)'
p1362
sg20
S'None'
p1363
sg22
I723
sg23
S'O2'
p1364
sg25
Nsg26
S'heterogeneous'
p1365
sg28
F0.0
sba(iexpclass
expclass
p1366
(dp1367
g6
S'quartz-packing'
p1368
sg8
S'gas'
p1369
sg10
F0.034673685045253165
sg11
S'Taylor'
p1370
sg13
S'10.1016/S0920-5861(98)00095-9'
p1371
sg15
F-1.46
sg16
S'yes'
p1372
sg18
g1362
sg20
S'None'
p1373
sg22
I748
sg23
S'O2'
p1374
sg25
Nsg26
S'heterogeneous'
p1375
sg28
F15.0
sba(iexpclass
expclass
p1376
(dp1377
g6
S'quartz-packing'
p1378
sg8
S'gas'
p1379
sg10
F0.034673685045253165
sg11
S'Taylor'
p1380
sg13
S'10.1016/S0920-5861(98)00095-9'
p1381
sg15
F-1.46
sg16
S'yes'
p1382
sg18
g1362
sg20
S'None'
p1383
sg22
I773
sg23
S'O2'
p1384
sg25
Nsg26
S'heterogeneous'
p1385
sg28
F15.0
sba(iexpclass
expclass
p1386
(dp1387
g6
S'quartz-packing'
p1388
sg8
S'gas'
p1389
sg10
F0.0812830516164099
sg11
S'Taylor'
p1390
sg13
S'10.1016/S0920-5861(98)00095-9'
p1391
sg15
F-1.09
sg16
S'yes'
p1392
sg18
g1362
sg20
S'None'
p1393
sg22
I723
sg23
S'O2'
p1394
sg25
Nsg26
S'heterogeneous'
p1395
sg28
F29.0
sba(iexpclass
expclass
p1396
(dp1397
g6
S'empty-tube'
p1398
sg8
S'gas'
p1399
sg10
F0.07943282347242814
sg11
S'Taylor'
p1400
sg13
S'10.1016/S0920-5861(98)00095-9'
p1401
sg15
F-1.1
sg16
S'yes'
p1402
sg18
g1362
sg20
S'None'
p1403
sg22
I773
sg23
S'O2'
p1404
sg25
Nsg26
S'heterogeneous'
p1405
sg28
F19.0
sba(iexpclass
expclass
p1406
(dp1407
g6
S'FePO4/SiO2'
p1408
sg8
S'gas'
p1409
sg10
F0.015848931924611134
sg11
S'McCormick'
p1410
sg13
S'10.1016/S0920-5861(99)00243-6'
p1411
sg15
F-1.8
sg16
S'no'
p1412
sg18
S'Fe'
p1413
sg20
S'None'
p1414
sg22
I873
sg23
S'O2'
p1415
sg25
Nsg26
S'heterogeneous'
p1416
sg28
F2.0
sba(iexpclass
expclass
p1417
(dp1418
g6
S'FePO4/SiO3'
p1419
sg8
S'gas'
p1420
sg10
F0.016982436524617443
sg11
S'McCormick'
p1421
sg13
S'10.1016/S0920-5861(99)00243-6'
p1422
sg15
F-1.77
sg16
S'no'
p1423
sg18
S'Fe'
p1424
sg20
S'None'
p1425
sg22
I873
sg23
S'O2'
p1426
sg25
Nsg26
S'heterogeneous'
p1427
sg28
F1.0
sba(iexpclass
expclass
p1428
(dp1429
g6
S'FePO4/SiO4'
p1430
sg8
S'gas'
p1431
sg10
F0.00707945784384138
sg11
S'McCormick'
p1432
sg13
S'10.1016/S0920-5861(99)00243-6'
p1433
sg15
F-2.15
sg16
S'no'
p1434
sg18
S'Fe'
p1435
sg20
S'None'
p1436
sg22
I873
sg23
S'O2'
p1437
sg25
Nsg26
S'heterogeneous'
p1438
sg28
F5.746112338
sba(iexpclass
expclass
p1439
(dp1440
g6
S'FePO4/SiO5'
p1441
sg8
S'gas'
p1442
sg10
F0.011220184543019636
sg11
S'McCormick'
p1443
sg13
S'10.1016/S0920-5861(99)00243-6'
p1444
sg15
F-1.95
sg16
S'no'
p1445
sg18
S'Fe'
p1446
sg20
S'None'
p1447
sg22
I873
sg23
S'O2'
p1448
sg25
Nsg26
S'heterogeneous'
p1449
sg28
F4.36750074
sba(iexpclass
expclass
p1450
(dp1451
g6
S'FePO4/SiO6'
p1452
sg8
S'gas'
p1453
sg10
F0.018197008586099836
sg11
S'McCormick'
p1454
sg13
S'10.1016/S0920-5861(99)00243-6'
p1455
sg15
F-1.74
sg16
S'no'
p1456
sg18
S'Fe'
p1457
sg20
S'None'
p1458
sg22
I873
sg23
S'O2'
p1459
sg25
Nsg26
S'heterogeneous'
p1460
sg28
F1.780469479
sba(iexpclass
expclass
p1461
(dp1462
g6
S'FePO4/SiO7'
p1463
sg8
S'gas'
p1464
sg10
F0.024547089156850298
sg11
S'McCormick'
p1465
sg13
S'10.1016/S0920-5861(99)00243-6'
p1466
sg15
F-1.61
sg16
S'no'
p1467
sg18
S'Fe'
p1468
sg20
S'None'
p1469
sg22
I873
sg23
S'O2'
p1470
sg25
Nsg26
S'heterogeneous'
p1471
sg28
F1.622800027
sba(iexpclass
expclass
p1472
(dp1473
g6
S'FePO4/SiO8'
p1474
sg8
S'gas'
p1475
sg10
F0.030902954325135904
sg11
S'McCormick'
p1476
sg13
S'10.1016/S0920-5861(99)00243-6'
p1477
sg15
F-1.51
sg16
S'no'
p1478
sg18
S'Fe'
p1479
sg20
S'None'
p1480
sg22
I873
sg23
S'O2'
p1481
sg25
Nsg26
S'heterogeneous'
p1482
sg28
F1.292092621
sba(iexpclass
expclass
p1483
(dp1484
g6
S'FePO4/SiO9'
p1485
sg8
S'gas'
p1486
sg10
F0.03311311214825911
sg11
S'McCormick'
p1487
sg13
S'10.1016/S0920-5861(99)00243-6'
p1488
sg15
F-1.48
sg16
S'no'
p1489
sg18
S'Fe'
p1490
sg20
S'None'
p1491
sg22
I873
sg23
S'O2'
p1492
sg25
Nsg26
S'heterogeneous'
p1493
sg28
F1.123608297
sba(iexpclass
expclass
p1494
(dp1495
g6
S'V2O5/silicate'
p1496
sg8
S'gas'
p1497
sg10
F0.03019951720402016
sg11
S'Berndt'
p1498
sg13
S'10.1006/jcat.1999.2786'
p1499
sg15
F-1.52
sg16
S'no'
p1500
sg18
g729
sg20
S'None'
p1501
sg22
I868
sg23
S'O2'
p1502
sg25
Nsg26
S'heterogeneous'
p1503
sg28
F0.7
sba(iexpclass
expclass
p1504
(dp1505
g6
S'V2O5/silicate'
p1506
sg8
S'gas'
p1507
sg10
F0.06606934480075961
sg11
S'Berndt'
p1508
sg13
S'10.1006/jcat.1999.2786'
p1509
sg15
F-1.18
sg16
S'no'
p1510
sg18
g729
sg20
S'None'
p1511
sg22
I897
sg23
S'O2'
p1512
sg25
Nsg26
S'heterogeneous'
p1513
sg28
F0.4
sba(iexpclass
expclass
p1514
(dp1515
g6
S'V2O5/silicate'
p1516
sg8
S'gas'
p1517
sg10
F0.0933254300796991
sg11
S'Berndt'
p1518
sg13
S'10.1006/jcat.1999.2786'
p1519
sg15
F-1.03
sg16
S'no'
p1520
sg18
g729
sg20
S'None'
p1521
sg22
I924
sg23
S'O2'
p1522
sg25
Nsg26
S'heterogeneous'
p1523
sg28
F0.3
sba(iexpclass
expclass
p1524
(dp1525
g6
S'V2O5/silicate'
p1526
sg8
S'gas'
p1527
sg10
F0.03235936569296283
sg11
S'Berndt'
p1528
sg13
S'10.1006/jcat.1999.2786'
p1529
sg15
F-1.49
sg16
S'no'
p1530
sg18
g729
sg20
S'None'
p1531
sg22
I868
sg23
S'O2'
p1532
sg25
Nsg26
S'heterogeneous'
p1533
sg28
F0.6
sba(iexpclass
expclass
p1534
(dp1535
g6
S'V2O5/silicate'
p1536
sg8
S'gas'
p1537
sg10
F0.05370317963702527
sg11
S'Berndt'
p1538
sg13
S'10.1006/jcat.1999.2786'
p1539
sg15
F-1.27
sg16
S'no'
p1540
sg18
g729
sg20
S'None'
p1541
sg22
I899
sg23
S'O2'
p1542
sg25
Nsg26
S'heterogeneous'
p1543
sg28
F0.2
sba(iexpclass
expclass
p1544
(dp1545
g6
S'V2O5/silicate'
p1546
sg8
S'gas'
p1547
sg10
F0.1
sg11
S'Berndt'
p1548
sg13
S'10.1006/jcat.1999.2786'
p1549
sg15
F-1.0
sg16
S'no'
p1550
sg18
g729
sg20
S'None'
p1551
sg22
I906
sg23
S'O2'
p1552
sg25
Nsg26
S'heterogeneous'
p1553
sg28
F2.0
sba(iexpclass
expclass
p1554
(dp1555
g6
S'V2O5/silicate'
p1556
sg8
S'gas'
p1557
sg10
F0.1096478196143185
sg11
S'Berndt'
p1558
sg13
S'10.1006/jcat.1999.2786'
p1559
sg15
F-0.96
sg16
S'no'
p1560
sg18
g729
sg20
S'None'
p1561
sg22
I929
sg23
S'O2'
p1562
sg25
Nsg26
S'heterogeneous'
p1563
sg28
F0.2
sba(iexpclass
expclass
p1564
(dp1565
g6
S'V2O5/silicate'
p1566
sg8
S'gas'
p1567
sg10
F0.03162277660168379
sg11
S'Fornes'
p1568
sg13
S'10.1016/S0926-860X(03)00226-6'
p1569
sg15
F-1.5
sg16
S'no'
p1570
sg18
g729
sg20
S'None'
p1571
sg22
I873
sg23
S'O2'
p1572
sg25
Nsg26
S'heterogeneous'
p1573
sg28
F0.2
sba(iexpclass
expclass
p1574
(dp1575
g6
S'V2O5/silicate'
p1576
sg8
S'gas'
p1577
sg10
F0.01412537544622754
sg11
S'Fornes'
p1578
sg13
S'10.1016/S0926-860X(03)00226-6'
p1579
sg15
F-1.85
sg16
S'no'
p1580
sg18
g729
sg20
S'None'
p1581
sg22
I873
sg23
S'O2'
p1582
sg25
Nsg26
S'heterogeneous'
p1583
sg28
F0.2
sba(iexpclass
expclass
p1584
(dp1585
g6
S'V2O5/silicate'
p1586
sg8
S'gas'
p1587
sg10
F0.009120108393559097
sg11
S'Fornes'
p1588
sg13
S'10.1016/S0926-860X(03)00226-6'
p1589
sg15
F-2.04
sg16
S'no'
p1590
sg18
g729
sg20
S'None'
p1591
sg22
I873
sg23
S'O2'
p1592
sg25
Nsg26
S'heterogeneous'
p1593
sg28
F0.4
sba(iexpclass
expclass
p1594
(dp1595
g6
S'V2O5/silicate'
p1596
sg8
S'gas'
p1597
sg10
F0.018197008586099836
sg11
S'Fornes'
p1598
sg13
S'10.1016/S0926-860X(03)00226-6'
p1599
sg15
F-1.74
sg16
S'no'
p1600
sg18
g729
sg20
S'None'
p1601
sg22
I873
sg23
S'O2'
p1602
sg25
Nsg26
S'heterogeneous'
p1603
sg28
F0.4
sba(iexpclass
expclass
p1604
(dp1605
g6
S'V2O5/silicate'
p1606
sg8
S'gas'
p1607
sg10
F0.011748975549395297
sg11
S'Fornes'
p1608
sg13
S'10.1016/S0926-860X(03)00226-6'
p1609
sg15
F-1.93
sg16
S'no'
p1610
sg18
g729
sg20
S'None'
p1611
sg22
I873
sg23
S'O2'
p1612
sg25
Nsg26
S'heterogeneous'
p1613
sg28
F0.5
sba(iexpclass
expclass
p1614
(dp1615
g6
S'V2O5/silicate'
p1616
sg8
S'gas'
p1617
sg10
F0.005754399373371567
sg11
S'Fornes'
p1618
sg13
S'10.1016/S0926-860X(03)00226-6'
p1619
sg15
F-2.24
sg16
S'no'
p1620
sg18
g729
sg20
S'None'
p1621
sg22
I873
sg23
S'O2'
p1622
sg25
Nsg26
S'heterogeneous'
p1623
sg28
F0.8
sba(iexpclass
expclass
p1624
(dp1625
g6
S'MoO3/silica'
p1626
sg8
S'gas'
p1627
sg10
F0.005754399373371567
sg11
S'Sugino'
p1628
sg13
S'10.1006/jcat.1999.2732'
p1629
sg15
F-2.24
sg16
S'no'
p1630
sg18
S'Mo'
p1631
sg20
S'None'
p1632
sg22
I773
sg23
S'O2'
p1633
sg25
Nsg26
S'heterogeneous'
p1634
sg28
F2.0
sba(iexpclass
expclass
p1635
(dp1636
g6
S'MoO3/silica'
p1637
sg8
S'gas'
p1638
sg10
F0.012022644346174132
sg11
S'Sugino'
p1639
sg13
S'10.1006/jcat.1999.2732'
p1640
sg15
F-1.92
sg16
S'no'
p1641
sg18
S'Mo'
p1642
sg20
S'None'
p1643
sg22
I823
sg23
S'O2'
p1644
sg25
Nsg26
S'heterogeneous'
p1645
sg28
F1.0
sba(iexpclass
expclass
p1646
(dp1647
g6
S'MoO3/silica'
p1648
sg8
S'gas'
p1649
sg10
F0.039810717055349734
sg11
S'Sugino'
p1650
sg13
S'10.1006/jcat.1999.2732'
p1651
sg15
F-1.4
sg16
S'no'
p1652
sg18
S'Mo'
p1653
sg20
S'None'
p1654
sg22
I873
sg23
S'O2'
p1655
sg25
Nsg26
S'heterogeneous'
p1656
sg28
F1.0
sba(iexpclass
expclass
p1657
(dp1658
g6
S'MoO3/silica'
p1659
sg8
S'gas'
p1660
sg10
F0.06606934480075961
sg11
S'Sugino'
p1661
sg13
S'10.1006/jcat.1999.2732'
p1662
sg15
F-1.18
sg16
S'no'
p1663
sg18
S'Mo'
p1664
sg20
S'None'
p1665
sg22
I923
sg23
S'O2'
p1666
sg25
Nsg26
S'heterogeneous'
p1667
sg28
F0.0
sba(iexpclass
expclass
p1668
(dp1669
g6
S'MoO3/silica'
p1670
sg8
S'gas'
p1671
sg10
F0.01
sg11
S'Sugino'
p1672
sg13
S'10.1006/jcat.1999.2732'
p1673
sg15
F-2.0
sg16
S'no'
p1674
sg18
S'Mo'
p1675
sg20
S'None'
p1676
sg22
I773
sg23
S'O2'
p1677
sg25
Nsg26
S'heterogeneous'
p1678
sg28
F13.0
sba(iexpclass
expclass
p1679
(dp1680
g6
S'MoO3/silica'
p1681
sg8
S'gas'
p1682
sg10
F0.028840315031266057
sg11
S'Sugino'
p1683
sg13
S'10.1006/jcat.1999.2732'
p1684
sg15
F-1.54
sg16
S'no'
p1685
sg18
S'Mo'
p1686
sg20
S'None'
p1687
sg22
I823
sg23
S'O2'
p1688
sg25
Nsg26
S'heterogeneous'
p1689
sg28
F8.0
sba(iexpclass
expclass
p1690
(dp1691
g6
S'MoO3/silica'
p1692
sg8
S'gas'
p1693
sg10
F0.0812830516164099
sg11
S'Sugino'
p1694
sg13
S'10.1006/jcat.1999.2732'
p1695
sg15
F-1.09
sg16
S'no'
p1696
sg18
S'Mo'
p1697
sg20
S'None'
p1698
sg22
I873
sg23
S'O2'
p1699
sg25
Nsg26
S'heterogeneous'
p1700
sg28
F11.0
sba(iexpclass
expclass
p1701
(dp1702
g6
S'MoO3/silica'
p1703
sg8
S'gas'
p1704
sg10
F0.12022644346174129
sg11
S'Sugino'
p1705
sg13
S'10.1006/jcat.1999.2732'
p1706
sg15
F-0.92
sg16
S'no'
p1707
sg18
S'Mo'
p1708
sg20
S'None'
p1709
sg22
I923
sg23
S'O2'
p1710
sg25
Nsg26
S'heterogeneous'
p1711
sg28
F4.0
sba(iexpclass
expclass
p1712
(dp1713
g6
S'MoO3-ZnO/alumina-silicate'
p1714
sg8
S'gas'
p1715
sg10
F0.022908676527677734
sg11
S'dowden'
p1716
sg13
S'GB1244001A'
p1717
sg15
F-1.64
sg16
S'no'
p1718
sg18
S'Mo'
p1719
sg20
S'None'
p1720
sg22
I766
sg23
S'O2'
p1721
sg25
Nsg26
S'heterogeneous'
p1722
sg28
F51.0
sba(iexpclass
expclass
p1723
(dp1724
g6
S'(MoO3)3-Fe2O3/alumina-silica'
p1725
sg8
S'gas'
p1726
sg10
F0.020892961308540396
sg11
S'dowden'
p1727
sg13
S'GB1244001A'
p1728
sg15
F-1.68
sg16
S'no'
p1729
sg18
S'Mo'
p1730
sg20
S'None'
p1731
sg22
I712
sg23
S'O2'
p1732
sg25
Nsg26
S'heterogeneous'
p1733
sg28
F65.0
sba(iexpclass
expclass
p1734
(dp1735
g6
S'MoO3-UO2/alumina-silica'
p1736
sg8
S'gas'
p1737
sg10
F0.034673685045253165
sg11
S'dowden'
p1738
sg13
S'GB1244001A'
p1739
sg15
F-1.46
sg16
S'no'
p1740
sg18
S'Mo'
p1741
sg20
S'None'
p1742
sg22
I743
sg23
S'O2'
p1743
sg25
Nsg26
S'heterogeneous'
p1744
sg28
F75.0
sba(iexpclass
expclass
p1745
(dp1746
g6
S'MoO3-VO2/alumina-silica'
p1747
sg8
S'gas'
p1748
sg10
F0.025703957827688632
sg11
S'dowden'
p1749
sg13
S'GB1244001A'
p1750
sg15
F-1.59
sg16
S'no'
p1751
sg18
S'Mo'
p1752
sg20
S'None'
p1753
sg22
I766
sg23
S'O2'
p1754
sg25
Nsg26
S'heterogeneous'
p1755
sg28
F49.0
sba(iexpclass
expclass
p1756
(dp1757
g6
S'MoO3/alumina-silica'
p1758
sg8
S'gas'
p1759
sg10
F0.022908676527677734
sg11
S'dowden'
p1760
sg13
S'GB1244001A'
p1761
sg15
F-1.64
sg16
S'no'
p1762
sg18
S'Mo'
p1763
sg20
S'None'
p1764
sg22
I733
sg23
S'O2'
p1765
sg25
Nsg26
S'heterogeneous'
p1766
sg28
F19.0
sba(iexpclass
expclass
p1767
(dp1768
g6
S'MoOx/La-Co-O'
p1769
sg8
S'gas'
p1770
sg10
F0.08912509381337455
sg11
S'Zhang'
p1771
sg13
S'10.1007/s11244-005-2894-5'
p1772
sg15
F-1.05
sg16
S'no'
p1773
sg18
S'Mo'
p1774
sg20
S'None'
p1775
sg22
I693
sg23
S'O2'
p1776
sg25
Nsg26
S'heterogeneous'
p1777
sg28
F28.8
sba(iexpclass
expclass
p1778
(dp1779
g6
S'MoOx/La-Co-O'
p1780
sg8
S'gas'
p1781
sg10
F0.11220184543019636
sg11
S'Zhang'
p1782
sg13
S'10.1007/s11244-005-2894-6'
p1783
sg15
F-0.95
sg16
S'no'
p1784
sg18
S'Mo'
p1785
sg20
S'None'
p1786
sg22
I693
sg23
S'O2'
p1787
sg25
Nsg26
S'heterogeneous'
p1788
sg28
F60.0
sba(iexpclass
expclass
p1789
(dp1790
g6
S'MoOx/La-Co-O'
p1791
sg8
S'gas'
p1792
sg10
F0.1148153621496883
sg11
S'Zhang'
p1793
sg13
S'10.1007/s11244-005-2894-7'
p1794
sg15
F-0.94
sg16
S'no'
p1795
sg18
S'Mo'
p1796
sg20
S'None'
p1797
sg22
I693
sg23
S'O2'
p1798
sg25
Nsg26
S'heterogeneous'
p1799
sg28
F33.2
sba(iexpclass
expclass
p1800
(dp1801
g6
S'Mo-V-Cr-Bi'
p1802
sg8
S'gas'
p1803
sg10
F0.1
sg11
S'Zhang'
p1804
sg13
S'10.1016/S1003-9953(08)60021-3'
p1805
sg15
F-1.0
sg16
S'no'
p1806
sg18
S'Mo'
p1807
sg20
S'None'
p1808
sg22
I753
sg23
S'O2'
p1809
sg25
Nsg26
S'heterogeneous'
p1810
sg28
F41.0
sba(iexpclass
expclass
p1811
(dp1812
g6
S'SSZ-13'
p1813
sg8
S'gas'
p1814
sg10
F0.00015848931924611142
sg11
S'Lobo'
p1815
sg13
S'10.1039/C6CC07893A'
p1816
sg15
F-3.8
sg16
S'yes'
p1817
sg18
S'Cu'
p1818
sg20
S'None'
p1819
sg22
I523
sg23
S'N2O'
p1820
sg25
Nsg26
S'heterogeneous'
p1821
sg28
F24.0
sba(iexpclass
expclass
p1822
(dp1823
g6
S'SSZ-13'
p1824
sg8
S'gas'
p1825
sg10
F0.00021877616239495518
sg11
S'Lobo'
p1826
sg13
S'10.1039/C6CC07893A'
p1827
sg15
F-3.66
sg16
S'yes'
p1828
sg18
S'Cu'
p1829
sg20
S'None'
p1830
sg22
I533
sg23
S'N2O'
p1831
sg25
Nsg26
S'heterogeneous'
p1832
sg28
F27.0
sba(iexpclass
expclass
p1833
(dp1834
g6
S'SSZ-13'
p1835
sg8
S'gas'
p1836
sg10
F0.0003235936569296281
sg11
S'Lobo'
p1837
sg13
S'10.1039/C6CC07893A'
p1838
sg15
F-3.49
sg16
S'yes'
p1839
sg18
S'Cu'
p1840
sg20
S'None'
p1841
sg22
I538
sg23
S'N2O'
p1842
sg25
Nsg26
S'heterogeneous'
p1843
sg28
F20.7
sba(iexpclass
expclass
p1844
(dp1845
g6
S'SSZ-13'
p1846
sg8
S'gas'
p1847
sg10
F0.0005495408738576248
sg11
S'Lobo'
p1848
sg13
S'10.1039/C6CC07893A'
p1849
sg15
F-3.26
sg16
S'yes'
p1850
sg18
S'Cu'
p1851
sg20
S'None'
p1852
sg22
I543
sg23
S'N2O'
p1853
sg25
Nsg26
S'heterogeneous'
p1854
sg28
F15.8
sba(iexpclass
expclass
p1855
(dp1856
g6
S'SSZ-13'
p1857
sg8
S'gas'
p1858
sg10
F0.0009332543007969915
sg11
S'Lobo'
p1859
sg13
S'10.1039/C6CC07893A'
p1860
sg15
F-3.03
sg16
S'yes'
p1861
sg18
S'Cu'
p1862
sg20
S'None'
p1863
sg22
I548
sg23
S'N2O'
p1864
sg25
Nsg26
S'heterogeneous'
p1865
sg28
F11.4
sba(iexpclass
expclass
p1866
(dp1867
g6
S'SSZ-13'
p1868
sg8
S'gas'
p1869
sg10
F0.007585775750291836
sg11
S'Lobo'
p1870
sg13
S'10.1039/C6CC07893A'
p1871
sg15
F-2.12
sg16
S'yes'
p1872
sg18
S'Cu'
p1873
sg20
S'None'
p1874
sg22
I573
sg23
S'N2O'
p1875
sg25
Nsg26
S'heterogeneous'
p1876
sg28
F2.3
sba(iexpclass
expclass
p1877
(dp1878
g6
S'SSZ-13'
p1879
sg8
S'gas'
p1880
sg10
F0.001202264434617413
sg11
S'Lobo'
p1881
sg13
S'10.1039/C6CC07893A'
p1882
sg15
F-2.92
sg16
S'yes'
p1883
sg18
S'Cu'
p1884
sg20
S'None'
p1885
sg22
I573
sg23
S'N2O'
p1886
sg25
Nsg26
S'heterogeneous'
p1887
sg28
F12.5
sba(iexpclass
expclass
p1888
(dp1889
g6
S'SSZ-13'
p1890
sg8
S'gas'
p1891
sg10
F0.0012882495516931337
sg11
S'Lobo'
p1892
sg13
S'10.1039/C6CC07893A'
p1893
sg15
F-2.89
sg16
S'yes'
p1894
sg18
S'Cu'
p1895
sg20
S'None'
p1896
sg22
I543
sg23
S'N2O'
p1897
sg25
Nsg26
S'heterogeneous'
p1898
sg28
F3.0
sba(iexpclass
expclass
p1899
(dp1900
g6
S'SSZ-13'
p1901
sg8
S'gas'
p1902
sg10
F0.001202264434617413
sg11
S'Lobo'
p1903
sg13
S'10.1039/C6CC07893A'
p1904
sg15
F-2.92
sg16
S'yes'
p1905
sg18
S'Cu'
p1906
sg20
S'None'
p1907
sg22
I573
sg23
S'N2O'
p1908
sg25
Nsg26
S'heterogeneous'
p1909
sg28
F2.0
sba(iexpclass
expclass
p1910
(dp1911
g6
S'SSZ-13'
p1912
sg8
S'gas'
p1913
sg10
F0.00021877616239495518
sg11
S'Lobo'
p1914
sg13
S'10.1039/C6CC07893A'
p1915
sg15
F-3.66
sg16
S'yes'
p1916
sg18
S'Cu'
p1917
sg20
S'None'
p1918
sg22
I543
sg23
S'N2O'
p1919
sg25
Nsg26
S'heterogeneous'
p1920
sg28
F39.7
sba(iexpclass
expclass
p1921
(dp1922
g6
S'MOR'
p1923
sg8
S'gas'
p1924
sg10
F0.00012882495516931337
sg11
S'Lobo'
p1925
sg13
S'10.1039/C6CC07893A'
p1926
sg15
F-3.89
sg16
S'yes'
p1927
sg18
S'Cu'
p1928
sg20
S'None'
p1929
sg22
I543
sg23
S'N2O'
p1930
sg25
Nsg26
S'heterogeneous'
p1931
sg28
F24.0
sba(iexpclass
expclass
p1932
(dp1933
g6
S'MOR'
p1934
sg8
S'gas'
p1935
sg10
F0.000630957344480193
sg11
S'Lobo'
p1936
sg13
S'10.1039/C6CC07893A'
p1937
sg15
F-3.2
sg16
S'yes'
p1938
sg18
S'Cu'
p1939
sg20
S'None'
p1940
sg22
I543
sg23
S'N2O'
p1941
sg25
Nsg26
S'heterogeneous'
p1942
sg28
F1.1
sba(iexpclass
expclass
p1943
(dp1944
g6
S'ZSM-5'
p1945
sg8
S'gas'
p1946
sg10
F0.006760829753919818
sg11
S'Lobo'
p1947
sg13
S'10.1039/C6CC07893A'
p1948
sg15
F-2.17
sg16
S'yes'
p1949
sg18
S'Cu'
p1950
sg20
S'None'
p1951
sg22
I543
sg23
S'N2O'
p1952
sg25
Nsg26
S'heterogeneous'
p1953
sg28
F0.3
sba(iexpclass
expclass
p1954
(dp1955
g6
S'ZSM-5'
p1956
sg8
S'gas'
p1957
sg10
F1e-05
sg11
S'Leshkov'
p1958
sg13
S'10.1021/acscentsci.6b00139'
p1959
sg15
F-5.0
sg16
S'yes'
p1960
sg18
S'Cu'
p1961
sg20
S'None'
p1962
sg22
I483
sg23
S'O2'
p1963
sg25
Nsg26
S'heterogeneous'
p1964
sg28
F71.0
sba(iexpclass
expclass
p1965
(dp1966
g6
S'SSZ-13'
p1967
sg8
S'gas'
p1968
sg10
F0.001
sg11
S'Leshkov'
p1969
sg13
S'None'
p1970
sg15
F-3.0
sg16
S'yes'
p1971
sg18
S'Cu'
p1972
sg20
S'thesis'
p1973
sg22
I623
sg23
S'O2'
p1974
sg25
Nsg26
S'heterogeneous'
p1975
sg28
F90.0
sba(iexpclass
expclass
p1976
(dp1977
g6
S'ZSM-5'
p1978
sg8
S'aqueous'
p1979
sg10
F0.003019951720402016
sg11
S'Hutchings'
p1980
sg13
S'10.1002/anie.201108706'
p1981
sg15
F-2.52
sg16
S'yes'
p1982
sg18
S'Cu'
p1983
sg20
S'None'
p1984
sg22
I323
sg23
S'H2O2'
p1985
sg25
Nsg26
S'heterogeneous'
p1986
sg28
F83.0
sba(iexpclass
expclass
p1987
(dp1988
g6
S'Cu-Fe/ZSM-5'
p1989
sg8
S'aqueous'
p1990
sg10
F0.00707945784384138
sg11
S'Hutchings'
p1991
sg13
S'10.1002/anie.201108706'
p1992
sg15
F-2.15
sg16
S'yes'
p1993
sg18
S'Fe'
p1994
sg20
S'None'
p1995
sg22
I323
sg23
S'H2O2'
p1996
sg25
Nsg26
S'heterogeneous'
p1997
sg28
F85.0
sba(iexpclass
expclass
p1998
(dp1999
g6
S'Cu-Fe/ZSM-5'
p2000
sg8
S'aqueous'
p2001
sg10
F0.005011872336272725
sg11
S'Hutchings'
p2002
sg13
S'10.1002/anie.201108706'
p2003
sg15
F-2.3
sg16
S'yes'
p2004
sg18
S'Fe'
p2005
sg20
S'None'
p2006
sg22
I323
sg23
S'H2O2'
p2007
sg25
Nsg26
S'heterogeneous'
p2008
sg28
F88.0
sba(iexpclass
expclass
p2009
(dp2010
g6
S'Cu-Fe/silicalite'
p2011
sg8
S'aqueous'
p2012
sg10
F0.1
sg11
S'Hutchings'
p2013
sg13
S'10.1002/anie.201108706'
p2014
sg15
F-1.0
sg16
S'yes'
p2015
sg18
S'Fe'
p2016
sg20
S'None'
p2017
sg22
I323
sg23
S'H2O2'
p2018
sg25
Nsg26
S'heterogeneous'
p2019
sg28
F93.0
sba(iexpclass
expclass
p2020
(dp2021
g6
S'MMO'
p2022
sg8
S'aqueous'
p2023
sg10
F0.01513561248436208
sg11
S'Dalton'
p2024
sg13
S'10.1042/bj1650395'
p2025
sg15
F-1.82
sg16
S'yes'
p2026
sg18
S'Fe'
p2027
sg20
S'enzyme'
p2028
sg22
I300
sg23
S'O2'
p2029
sg25
Nsg26
S'homogeneous'
p2030
sg28
F99.0
sba(iexpclass
expclass
p2031
(dp2032
g6
S'ZSM-5'
p2033
sg8
S'gas'
p2034
sg10
F0.03630780547701014
sg11
S'Panov'
p2035
sg13
S'10.1016/j.jcat.2014.07.009'
p2036
sg15
F-1.44
sg16
S'yes'
p2037
sg18
S'Fe'
p2038
sg20
S'None'
p2039
sg22
I573
sg23
S'N2O'
p2040
sg25
Nsg26
S'heterogeneous'
p2041
sg28
F1.9
sba(iexpclass
expclass
p2042
(dp2043
g6
S'ZSM-5'
p2044
sg8
S'gas'
p2045
sg10
F0.019054607179632473
sg11
S'Panov'
p2046
sg13
S'10.1016/j.jcat.2014.07.009'
p2047
sg15
F-1.72
sg16
S'yes'
p2048
sg18
S'Fe'
p2049
sg20
S'None'
p2050
sg22
I573
sg23
S'N2O'
p2051
sg25
Nsg26
S'heterogeneous'
p2052
sg28
F9.3
sba(iexpclass
expclass
p2053
(dp2054
g6
S'ZSM-5'
p2055
sg8
S'gas'
p2056
sg10
F0.012882495516931342
sg11
S'Panov'
p2057
sg13
S'10.1016/j.jcat.2014.07.009'
p2058
sg15
F-1.89
sg16
S'yes'
p2059
sg18
S'Fe'
p2060
sg20
S'None'
p2061
sg22
I573
sg23
S'N2O'
p2062
sg25
Nsg26
S'heterogeneous'
p2063
sg28
F19.0
sba(iexpclass
expclass
p2064
(dp2065
g6
S'ZSM-5'
p2066
sg8
S'gas'
p2067
sg10
F0.007585775750291836
sg11
S'Panov'
p2068
sg13
S'10.1016/j.jcat.2014.07.009'
p2069
sg15
F-2.12
sg16
S'yes'
p2070
sg18
S'Fe'
p2071
sg20
S'None'
p2072
sg22
I573
sg23
S'N2O'
p2073
sg25
Nsg26
S'heterogeneous'
p2074
sg28
F42.0
sba(iexpclass
expclass
p2075
(dp2076
g6
S'ZSM-5'
p2077
sg8
S'gas'
p2078
sg10
F0.02187761623949553
sg11
S'Panov'
p2079
sg13
S'10.1016/j.jcat.2014.07.009'
p2080
sg15
F-1.66
sg16
S'yes'
p2081
sg18
S'Fe'
p2082
sg20
S'None'
p2083
sg22
I548
sg23
S'N2O'
p2084
sg25
Nsg26
S'heterogeneous'
p2085
sg28
F2.7
sba(iexpclass
expclass
p2086
(dp2087
g6
S'ZSM-5'
p2088
sg8
S'gas'
p2089
sg10
F0.006456542290346556
sg11
S'Panov'
p2090
sg13
S'10.1016/j.jcat.2014.07.009'
p2091
sg15
F-2.19
sg16
S'yes'
p2092
sg18
S'Fe'
p2093
sg20
S'None'
p2094
sg22
I548
sg23
S'N2O'
p2095
sg25
Nsg26
S'heterogeneous'
p2096
sg28
F31.0
sba(iexpclass
expclass
p2097
(dp2098
g6
S'ZSM-5'
p2099
sg8
S'gas'
p2100
sg10
F0.0026915348039269166
sg11
S'Panov'
p2101
sg13
S'10.1016/j.jcat.2014.07.009'
p2102
sg15
F-2.57
sg16
S'yes'
p2103
sg18
S'Fe'
p2104
sg20
S'None'
p2105
sg22
I548
sg23
S'N2O'
p2106
sg25
Nsg26
S'heterogeneous'
p2107
sg28
F57.0
sba(iexpclass
expclass
p2108
(dp2109
g6
S'ZSM-5'
p2110
sg8
S'gas'
p2111
sg10
F0.0019054607179632462
sg11
S'Panov'
p2112
sg13
S'10.1016/j.jcat.2014.07.009'
p2113
sg15
F-2.72
sg16
S'yes'
p2114
sg18
S'Fe'
p2115
sg20
S'None'
p2116
sg22
I548
sg23
S'N2O'
p2117
sg25
Nsg26
S'heterogeneous'
p2118
sg28
F62.0
sba(iexpclass
expclass
p2119
(dp2120
g6
S'CuCl16Pc'
p2121
sg8
S'aqueous'
p2122
sg10
F0.047863009232263824
sg11
S'Raja'
p2123
sg13
S'10.1016/S0926-860X(97)00105-1'
p2124
sg15
F-1.32
sg16
S'yes'
p2125
sg18
S'Cu'
p2126
sg20
S'None'
p2127
sg22
I273
sg23
S'O2/TBHP'
p2128
sg25
Nsg26
S'homogeneous'
p2129
sg28
F40.2
sba(iexpclass
expclass
p2130
(dp2131
g6
S'CoCl16Pc'
p2132
sg8
S'aqueous'
p2133
sg10
F0.030902954325135904
sg11
S'Raja'
p2134
sg13
S'10.1016/S0926-860X(97)00105-2'
p2135
sg15
F-1.51
sg16
S'yes'
p2136
sg18
S'Co'
p2137
sg20
S'None'
p2138
sg22
I273
sg23
S'O2/TBHP'
p2139
sg25
Nsg26
S'homogeneous'
p2140
sg28
F10.2
sba(iexpclass
expclass
p2141
(dp2142
g6
S'FeCl16Pc'
p2143
sg8
S'aqueous'
p2144
sg10
F0.05248074602497726
sg11
S'Raja'
p2145
sg13
S'10.1016/S0926-860X(97)00105-3'
p2146
sg15
F-1.28
sg16
S'yes'
p2147
sg18
S'Fe'
p2148
sg20
S'None'
p2149
sg22
I273
sg23
S'O2/TBHP'
p2150
sg25
Nsg26
S'homogeneous'
p2151
sg28
F41.2
sba(iexpclass
expclass
p2152
(dp2153
g6
S'CuCl16Pc/FAU-X'
p2154
sg8
S'aqueous'
p2155
sg10
F0.04168693834703355
sg11
S'Raja'
p2156
sg13
S'10.1016/S0926-860X(97)00105-4'
p2157
sg15
F-1.38
sg16
S'yes'
p2158
sg18
S'Cu'
p2159
sg20
S'None'
p2160
sg22
I273
sg23
S'O2/TBHP'
p2161
sg25
Nsg26
S'heterogeneous'
p2162
sg28
F51.5
sba(iexpclass
expclass
p2163
(dp2164
g6
S'CuCl16Pc/FAU-Y'
p2165
sg8
S'aqueous'
p2166
sg10
F0.03890451449942807
sg11
S'Raja'
p2167
sg13
S'10.1016/S0926-860X(97)00105-5'
p2168
sg15
F-1.41
sg16
S'yes'
p2169
sg18
S'Cu'
p2170
sg20
S'None'
p2171
sg22
I273
sg23
S'O2/TBHP'
p2172
sg25
Nsg26
S'heterogeneous'
p2173
sg28
F53.5
sba(iexpclass
expclass
p2174
(dp2175
g6
S'CuCl16Pc/L'
p2176
sg8
S'aqueous'
p2177
sg10
F0.01096478196143185
sg11
S'Raja'
p2178
sg13
S'10.1016/S0926-860X(97)00105-6'
p2179
sg15
F-1.96
sg16
S'yes'
p2180
sg18
S'Cu'
p2181
sg20
S'None'
p2182
sg22
I273
sg23
S'O2/TBHP'
p2183
sg25
Nsg26
S'heterogeneous'
p2184
sg28
F10.7
sba(iexpclass
expclass
p2185
(dp2186
g6
S'CoCl16Pc/FAU-X'
p2187
sg8
S'aqueous'
p2188
sg10
F0.028183829312644536
sg11
S'Raja'
p2189
sg13
S'10.1016/S0926-860X(97)00105-7'
p2190
sg15
F-1.55
sg16
S'yes'
p2191
sg18
S'Co'
p2192
sg20
S'None'
p2193
sg22
I273
sg23
S'O2/TBHP'
p2194
sg25
Nsg26
S'heterogeneous'
p2195
sg28
F12.5
sba(iexpclass
expclass
p2196
(dp2197
g6
S'FeCl16Pc/FAU-X'
p2198
sg8
S'aqueous'
p2199
sg10
F0.04897788193684462
sg11
S'Raja'
p2200
sg13
S'10.1016/S0926-860X(97)00105-8'
p2201
sg15
F-1.31
sg16
S'yes'
p2202
sg18
S'Fe'
p2203
sg20
S'None'
p2204
sg22
I273
sg23
S'O2/TBHP'
p2205
sg25
Nsg26
S'heterogeneous'
p2206
sg28
F52.6
sba(iexpclass
expclass
p2207
(dp2208
g6
S'H4PV1Mo11O40'
p2209
sg8
S'aqueous'
p2210
sg10
F0.046773514128719815
sg11
S'Seki'
p2211
sg13
S'10.1021/jp000406y'
p2212
sg15
F-1.33
sg16
S'yes'
p2213
sg18
S'Mo'
p2214
sg20
S'None'
p2215
sg22
I353
sg23
S'H2O2'
p2216
sg25
Nsg26
S'homogeneous'
p2217
sg28
F1.0
sba(iexpclass
expclass
p2218
(dp2219
g6
S'H4PV1Mo11O40'
p2220
sg8
S'aqueous'
p2221
sg10
F0.0004365158322401661
sg11
S'Seki'
p2222
sg13
S'10.1021/jp000406y'
p2223
sg15
F-3.36
sg16
S'yes'
p2224
sg18
S'Mo'
p2225
sg20
S'None'
p2226
sg22
I353
sg23
S'H2O2'
p2227
sg25
Nsg26
S'homogeneous'
p2228
sg28
F99.11894273
sba(iexpclass
expclass
p2229
(dp2230
g6
S'H4PV1Mo11O40'
p2231
sg8
S'aqueous'
p2232
sg10
F0.009120108393559097
sg11
S'Seki'
p2233
sg13
S'10.1021/jp000406y'
p2234
sg15
F-2.04
sg16
S'yes'
p2235
sg18
S'Mo'
p2236
sg20
S'None'
p2237
sg22
I353
sg23
S'H2O2'
p2238
sg25
Nsg26
S'homogeneous'
p2239
sg28
F44.78707783
sba(iexpclass
expclass
p2240
(dp2241
g6
S'H4PV1Mo11O40'
p2242
sg8
S'aqueous'
p2243
sg10
F0.0162181009735893
sg11
S'Seki'
p2244
sg13
S'10.1021/jp000406y'
p2245
sg15
F-1.79
sg16
S'yes'
p2246
sg18
S'Mo'
p2247
sg20
S'None'
p2248
sg22
I353
sg23
S'H2O2'
p2249
sg25
Nsg26
S'homogeneous'
p2250
sg28
F23.20117474
sba(iexpclass
expclass
p2251
(dp2252
g6
S'H4PV1Mo11O40'
p2253
sg8
S'aqueous'
p2254
sg10
F0.019054607179632473
sg11
S'Seki'
p2255
sg13
S'10.1021/jp000406y'
p2256
sg15
F-1.72
sg16
S'yes'
p2257
sg18
S'Mo'
p2258
sg20
S'None'
p2259
sg22
I353
sg23
S'H2O2'
p2260
sg25
Nsg26
S'homogeneous'
p2261
sg28
F18.20851689
sba(iexpclass
expclass
p2262
(dp2263
g6
S'H4PV1Mo11O40'
p2264
sg8
S'aqueous'
p2265
sg10
F0.02187761623949553
sg11
S'Seki'
p2266
sg13
S'10.1021/jp000406y'
p2267
sg15
F-1.66
sg16
S'yes'
p2268
sg18
S'Mo'
p2269
sg20
S'None'
p2270
sg22
I353
sg23
S'H2O2'
p2271
sg25
Nsg26
S'homogeneous'
p2272
sg28
F14.53744493
sba(iexpclass
expclass
p2273
(dp2274
g6
S'H4PV1Mo11O40'
p2275
sg8
S'aqueous'
p2276
sg10
F0.025703957827688632
sg11
S'Seki'
p2277
sg13
S'10.1021/jp000406y'
p2278
sg15
F-1.59
sg16
S'yes'
p2279
sg18
S'Mo'
p2280
sg20
S'None'
p2281
sg22
I353
sg23
S'H2O2'
p2282
sg25
Nsg26
S'homogeneous'
p2283
sg28
F11.89427313
sba(iexpclass
expclass
p2284
(dp2285
g6
S'APO-5'
p2286
sg8
S'gas'
p2287
sg10
F0.01513561248436208
sg11
S'Wang'
p2288
sg13
S'10.1006/jcat.1995.1208'
p2289
sg15
F-1.82
sg16
S'yes'
p2290
sg18
S'Fe'
p2291
sg20
S'None'
p2292
sg22
I673
sg23
S'O2/H2'
p2293
sg25
Nsg26
S'heterogeneous'
p2294
sg28
F2.5
sba(iexpclass
expclass
p2295
(dp2296
g6
S'PO4'
p2297
sg8
S'gas'
p2298
sg10
F0.0025118864315095794
sg11
S'Wang'
p2299
sg13
S'10.1006/jcat.1995.1208'
p2300
sg15
F-2.6
sg16
S'yes'
p2301
sg18
S'Fe'
p2302
sg20
S'None'
p2303
sg22
I673
sg23
S'O2/H2'
p2304
sg25
Nsg26
S'heterogeneous'
p2305
sg28
F21.0
sba(iexpclass
expclass
p2306
(dp2307
g6
S'PO4'
p2308
sg8
S'gas'
p2309
sg10
F0.006025595860743574
sg11
S'Wang'
p2310
sg13
S'10.1006/jcat.1995.1208'
p2311
sg15
F-2.22
sg16
S'yes'
p2312
sg18
S'Fe'
p2313
sg20
S'None'
p2314
sg22
I673
sg23
S'O2/H2'
p2315
sg25
Nsg26
S'heterogeneous'
p2316
sg28
F24.0
sba(iexpclass
expclass
p2317
(dp2318
g6
S'PO4'
p2319
sg8
S'gas'
p2320
sg10
F0.00015848931924611142
sg11
S'Wang'
p2321
sg13
S'10.1006/jcat.1995.1208'
p2322
sg15
F-3.8
sg16
S'yes'
p2323
sg18
S'Fe'
p2324
sg20
S'None'
p2325
sg22
I633
sg23
S'O2/H2'
p2326
sg25
Nsg26
S'heterogeneous'
p2327
sg28
F77.9201373
sba(iexpclass
expclass
p2328
(dp2329
g6
S'PO4'
p2330
sg8
S'gas'
p2331
sg10
F0.0003467368504525317
sg11
S'Wang'
p2332
sg13
S'10.1006/jcat.1995.1208'
p2333
sg15
F-3.46
sg16
S'yes'
p2334
sg18
S'Fe'
p2335
sg20
S'None'
p2336
sg22
I648
sg23
S'O2/H2'
p2337
sg25
Nsg26
S'heterogeneous'
p2338
sg28
F67.15716589
sba(iexpclass
expclass
p2339
(dp2340
g6
S'PO4'
p2341
sg8
S'gas'
p2342
sg10
F0.0020417379446695297
sg11
S'Wang'
p2343
sg13
S'10.1006/jcat.1995.1208'
p2344
sg15
F-2.69
sg16
S'yes'
p2345
sg18
S'Fe'
p2346
sg20
S'None'
p2347
sg22
I690
sg23
S'O2/H2'
p2348
sg25
Nsg26
S'heterogeneous'
p2349
sg28
F34.85404862
sba(iexpclass
expclass
p2350
(dp2351
g6
S'PO4'
p2352
sg8
S'gas'
p2353
sg10
F0.005370317963702527
sg11
S'Wang'
p2354
sg13
S'10.1006/jcat.1995.1208'
p2355
sg15
F-2.27
sg16
S'yes'
p2356
sg18
S'Fe'
p2357
sg20
S'None'
p2358
sg22
I710
sg23
S'O2/H2'
p2359
sg25
Nsg26
S'heterogeneous'
p2360
sg28
F25.53624003
sba(iexpclass
expclass
p2361
(dp2362
g6
S'PO4'
p2363
sg8
S'gas'
p2364
sg10
F0.008709635899560805
sg11
S'Wang'
p2365
sg13
S'10.1006/jcat.1995.1208'
p2366
sg15
F-2.06
sg16
S'yes'
p2367
sg18
S'Fe'
p2368
sg20
S'None'
p2369
sg22
I717
sg23
S'O2/H2'
p2370
sg25
Nsg26
S'heterogeneous'
p2371
sg28
F20.85603113
sba(iexpclass
expclass
p2372
(dp2373
g6
S'PO4'
p2374
sg8
S'gas'
p2375
sg10
F0.01096478196143185
sg11
S'Wang'
p2376
sg13
S'10.1006/jcat.1995.1208'
p2377
sg15
F-1.96
sg16
S'yes'
p2378
sg18
S'Fe'
p2379
sg20
S'None'
p2380
sg22
I723
sg23
S'O2/H2'
p2381
sg25
Nsg26
S'heterogeneous'
p2382
sg28
F18.60218076
sba(iexpclass
expclass
p2383
(dp2384
g6
S'PO4'
p2385
sg8
S'gas'
p2386
sg10
F0.0007585775750291835
sg11
S'Wang'
p2387
sg13
S'10.1006/jcat.1995.1208'
p2388
sg15
F-3.12
sg16
S'yes'
p2389
sg18
S'Fe'
p2390
sg20
S'None'
p2391
sg22
I666
sg23
S'O2/H2'
p2392
sg25
Nsg26
S'heterogeneous'
p2393
sg28
F49.52671214
sba(iexpclass
expclass
p2394
(dp2395
g6
S'PO4'
p2396
sg8
S'gas'
p2397
sg10
F0.0010232929922807535
sg11
S'Wang'
p2398
sg13
S'10.1039/Ft9959103953'
p2399
sg15
F-2.99
sg16
S'no'
p2400
sg18
S'Fe'
p2401
sg20
S'None'
p2402
sg22
I625
sg23
S'N2O'
p2403
sg25
Nsg26
S'heterogeneous'
p2404
sg28
F80.00958837
sba(iexpclass
expclass
p2405
(dp2406
g6
S'PO4'
p2407
sg8
S'gas'
p2408
sg10
F0.002187761623949552
sg11
S'Wang'
p2409
sg13
S'10.1039/Ft9959103953'
p2410
sg15
F-2.66
sg16
S'no'
p2411
sg18
S'Fe'
p2412
sg20
S'None'
p2413
sg22
I650
sg23
S'N2O'
p2414
sg25
Nsg26
S'heterogeneous'
p2415
sg28
F64.49636404
sba(iexpclass
expclass
p2416
(dp2417
g6
S'PO4'
p2418
sg8
S'gas'
p2419
sg10
F0.007585775750291836
sg11
S'Wang'
p2420
sg13
S'10.1039/Ft9959103953'
p2421
sg15
F-2.12
sg16
S'no'
p2422
sg18
S'Fe'
p2423
sg20
S'None'
p2424
sg22
I674
sg23
S'N2O'
p2425
sg25
Nsg26
S'heterogeneous'
p2426
sg28
F40.02674887
sba(iexpclass
expclass
p2427
(dp2428
g6
S'PO4'
p2429
sg8
S'gas'
p2430
sg10
F0.021379620895022326
sg11
S'Wang'
p2431
sg13
S'10.1039/Ft9959103953'
p2432
sg15
F-1.67
sg16
S'no'
p2433
sg18
S'Fe'
p2434
sg20
S'None'
p2435
sg22
I699
sg23
S'N2O'
p2436
sg25
Nsg26
S'heterogeneous'
p2437
sg28
F25.00302437
sba(iexpclass
expclass
p2438
(dp2439
g6
S'PO4'
p2440
sg8
S'gas'
p2441
sg10
F0.06760829753919818
sg11
S'Wang'
p2442
sg13
S'10.1039/Ft9959103953'
p2443
sg15
F-1.17
sg16
S'yes'
p2444
sg18
S'Fe'
p2445
sg20
S'None'
p2446
sg22
I723
sg23
S'N2O'
p2447
sg25
Nsg26
S'heterogeneous'
p2448
sg28
F16.81930399
sba(iexpclass
expclass
p2449
(dp2450
g6
S'PO4'
p2451
sg8
S'gas'
p2452
sg10
F0.0022908676527677724
sg11
S'Wang'
p2453
sg13
S'10.1039/Ft9959103953'
p2454
sg15
F-2.64
sg16
S'yes'
p2455
sg18
S'Fe'
p2456
sg20
S'None'
p2457
sg22
I648
sg23
S'N2O'
p2458
sg25
Nsg26
S'heterogeneous'
p2459
sg28
F52.08701039
sba(iexpclass
expclass
p2460
(dp2461
g6
S'PO4'
p2462
sg8
S'gas'
p2463
sg10
F0.005011872336272725
sg11
S'Wang'
p2464
sg13
S'10.1039/Ft9959103953'
p2465
sg15
F-2.3
sg16
S'yes'
p2466
sg18
S'Fe'
p2467
sg20
S'None'
p2468
sg22
I648
sg23
S'N2O'
p2469
sg25
Nsg26
S'heterogeneous'
p2470
sg28
F48.74069647
sba(iexpclass
expclass
p2471
(dp2472
g6
S'PO4'
p2473
sg8
S'gas'
p2474
sg10
F0.006918309709189363
sg11
S'Wang'
p2475
sg13
S'10.1039/Ft9959103953'
p2476
sg15
F-2.16
sg16
S'yes'
p2477
sg18
S'Fe'
p2478
sg20
S'None'
p2479
sg22
I648
sg23
S'N2O'
p2480
sg25
Nsg26
S'heterogeneous'
p2481
sg28
F45.39562769
sba(iexpclass
expclass
p2482
(dp2483
g6
S'PO4'
p2484
sg8
S'gas'
p2485
sg10
F0.008511380382023767
sg11
S'Wang'
p2486
sg13
S'10.1039/Ft9959103953'
p2487
sg15
F-2.07
sg16
S'yes'
p2488
sg18
S'Fe'
p2489
sg20
S'None'
p2490
sg22
I648
sg23
S'N2O'
p2491
sg25
Nsg26
S'heterogeneous'
p2492
sg28
F46.87578794
sba(iexpclass
expclass
p2493
(dp2494
g6
S'PO4'
p2495
sg8
S'gas'
p2496
sg10
F0.007413102413009177
sg11
S'Wang'
p2497
sg13
S'10.1039/Ft9959103953'
p2498
sg15
F-2.13
sg16
S'yes'
p2499
sg18
S'Fe'
p2500
sg20
S'None'
p2501
sg22
I648
sg23
S'N2O'
p2502
sg25
Nsg26
S'heterogeneous'
p2503
sg28
F44.36838714
sba(iexpclass
expclass
p2504
(dp2505
g6
S'PO4'
p2506
sg8
S'gas'
p2507
sg10
F0.006025595860743574
sg11
S'Wang'
p2508
sg13
S'10.1039/Ft9959103953'
p2509
sg15
F-2.22
sg16
S'yes'
p2510
sg18
S'Fe'
p2511
sg20
S'None'
p2512
sg22
I648
sg23
S'N2O'
p2513
sg25
Nsg26
S'heterogeneous'
p2514
sg28
F42.76091132
sba(iexpclass
expclass
p2515
(dp2516
g6
S'K7PW9Fe2NiO37'
p2517
sg8
S'gas'
p2518
sg10
F0.04073802778041128
sg11
S'Lyons'
p2519
sg13
S'10.1016/S0167-2991(08)61930-8'
p2520
sg15
F-1.39
sg16
S'yes'
p2521
sg18
S'Fe'
p2522
sg20
S'None'
p2523
sg22
I683
sg23
S'O2'
p2524
sg25
Nsg26
S'heterogeneous'
p2525
sg28
F42.0
sba(iexpclass
expclass
p2526
(dp2527
g6
S'SOD'
p2528
sg8
S'gas'
p2529
sg10
F0.04570881896148749
sg11
S'Lyons'
p2530
sg13
S'10.1016/S0167-2991(08)61930-8'
p2531
sg15
F-1.34
sg16
S'yes'
p2532
sg18
S'Fe'
p2533
sg20
S'None'
p2534
sg22
I680
sg23
S'O2'
p2535
sg25
Nsg26
S'heterogeneous'
p2536
sg28
F64.0
sba(iexpclass
expclass
p2537
(dp2538
g6
S'SOD'
p2539
sg8
S'gas'
p2540
sg10
F0.057543993733715694
sg11
S'Lyons'
p2541
sg13
S'10.1016/S0167-2991(08)61930-8'
p2542
sg15
F-1.24
sg16
S'yes'
p2543
sg18
S'Fe'
p2544
sg20
S'None'
p2545
sg22
I689
sg23
S'O2'
p2546
sg25
Nsg26
S'heterogeneous'
p2547
sg28
F70.0
sba(iexpclass
expclass
p2548
(dp2549
g6
S'SOD'
p2550
sg8
S'gas'
p2551
sg10
F0.05370317963702527
sg11
S'Lyons'
p2552
sg13
S'10.1016/S0167-2991(08)61930-8'
p2553
sg15
F-1.27
sg16
S'yes'
p2554
sg18
S'Fe'
p2555
sg20
S'None'
p2556
sg22
I691
sg23
S'O2'
p2557
sg25
Nsg26
S'heterogeneous'
p2558
sg28
F68.0
sba(iexpclass
expclass
p2559
(dp2560
g6
S'SOD'
p2561
sg8
S'gas'
p2562
sg10
F0.05370317963702527
sg11
S'Lyons'
p2563
sg13
S'10.1016/S0167-2991(08)61930-8'
p2564
sg15
F-1.27
sg16
S'yes'
p2565
sg18
S'Fe'
p2566
sg20
S'None'
p2567
sg22
I695
sg23
S'O2'
p2568
sg25
Nsg26
S'heterogeneous'
p2569
sg28
F65.0
sba(iexpclass
expclass
p2570
(dp2571
g6
S'SOD'
p2572
sg8
S'gas'
p2573
sg10
F0.054954087385762455
sg11
S'Lyons'
p2574
sg13
S'10.1016/S0167-2991(08)61930-8'
p2575
sg15
F-1.26
sg16
S'yes'
p2576
sg18
S'Fe'
p2577
sg20
S'None'
p2578
sg22
I705
sg23
S'O2'
p2579
sg25
Nsg26
S'heterogeneous'
p2580
sg28
F63.0
sba(iexpclass
expclass
p2581
(dp2582
g6
S'SOD'
p2583
sg8
S'gas'
p2584
sg10
F0.06165950018614822
sg11
S'Lyons'
p2585
sg13
S'10.1016/S0167-2991(08)61930-8'
p2586
sg15
F-1.21
sg16
S'yes'
p2587
sg18
S'Fe'
p2588
sg20
S'None'
p2589
sg22
I715
sg23
S'O2'
p2590
sg25
Nsg26
S'heterogeneous'
p2591
sg28
F64.0
sba(iexpclass
expclass
p2592
(dp2593
g6
S'SOD'
p2594
sg8
S'gas'
p2595
sg10
F0.001995262314968879
sg11
S'Lyons'
p2596
sg13
S'10.1016/S0167-2991(08)61930-8'
p2597
sg15
F-2.7
sg16
S'yes'
p2598
sg18
S'Fe'
p2599
sg20
S'None'
p2600
sg22
I693
sg23
S'O2'
p2601
sg25
Nsg26
S'heterogeneous'
p2602
sg28
F27.0
sba(iexpclass
expclass
p2603
(dp2604
g6
S'hydroxysodalite'
p2605
sg8
S'gas'
p2606
sg10
F0.003019951720402016
sg11
S'Lyons'
p2607
sg13
S'10.1016/S0167-2991(08)61930-8'
p2608
sg15
F-2.52
sg16
S'yes'
p2609
sg18
S'Fe'
p2610
sg20
S'None'
p2611
sg22
I703
sg23
S'O2'
p2612
sg25
Nsg26
S'heterogeneous'
p2613
sg28
F9.0
sba(iexpclass
expclass
p2614
(dp2615
g6
S'hydroxysodalite'
p2616
sg8
S'gas'
p2617
sg10
F0.05128613839913648
sg11
S'Lyons'
p2618
sg13
S'10.1016/S0167-2991(08)61930-8'
p2619
sg15
F-1.29
sg16
S'yes'
p2620
sg18
S'Fe'
p2621
sg20
S'None'
p2622
sg22
I718
sg23
S'O2'
p2623
sg25
Nsg26
S'heterogeneous'
p2624
sg28
F24.0
sba(iexpclass
expclass
p2625
(dp2626
g6
S'hydroxysodalite'
p2627
sg8
S'gas'
p2628
sg10
F0.05128613839913648
sg11
S'Lyons'
p2629
sg13
S'10.1016/S0167-2991(08)61930-8'
p2630
sg15
F-1.29
sg16
S'yes'
p2631
sg18
S'Fe'
p2632
sg20
S'None'
p2633
sg22
I704
sg23
S'O2'
p2634
sg25
Nsg26
S'heterogeneous'
p2635
sg28
F26.0
sba(iexpclass
expclass
p2636
(dp2637
g6
S'SiO2'
p2638
sg8
S'gas'
p2639
sg10
F0.005011872336272725
sg11
S'Lyons'
p2640
sg13
S'10.1016/S0167-2991(08)61930-8'
p2641
sg15
F-2.3
sg16
S'no'
p2642
sg18
S'Fe'
p2643
sg20
S'None'
p2644
sg22
I671
sg23
S'O2'
p2645
sg25
Nsg26
S'heterogeneous'
p2646
sg28
F10.0
sba(iexpclass
expclass
p2647
(dp2648
g6
S'SiO2'
p2649
sg8
S'gas'
p2650
sg10
F0.012022644346174132
sg11
S'Lyons'
p2651
sg13
S'10.1016/S0167-2991(08)61930-8'
p2652
sg15
F-1.92
sg16
S'no'
p2653
sg18
S'Fe'
p2654
sg20
S'None'
p2655
sg22
I682
sg23
S'O2'
p2656
sg25
Nsg26
S'heterogeneous'
p2657
sg28
F18.0
sba(iexpclass
expclass
p2658
(dp2659
g6
S'SiO2'
p2660
sg8
S'gas'
p2661
sg10
F0.026915348039269153
sg11
S'Lyons'
p2662
sg13
S'10.1016/S0167-2991(08)61930-8'
p2663
sg15
F-1.57
sg16
S'no'
p2664
sg18
S'Fe'
p2665
sg20
S'None'
p2666
sg22
I693
sg23
S'O2'
p2667
sg25
Nsg26
S'heterogeneous'
p2668
sg28
F20.0
sba(iexpclass
expclass
p2669
(dp2670
g6
S'SiO2'
p2671
sg8
S'gas'
p2672
sg10
F0.03890451449942807
sg11
S'Lyons'
p2673
sg13
S'10.1016/S0167-2991(08)61930-8'
p2674
sg15
F-1.41
sg16
S'no'
p2675
sg18
S'Fe'
p2676
sg20
S'None'
p2677
sg22
I701
sg23
S'O2'
p2678
sg25
Nsg26
S'heterogeneous'
p2679
sg28
F23.0
sba(iexpclass
expclass
p2680
(dp2681
g6
S'ZEOL'
p2682
sg8
S'gas'
p2683
sg10
F0.023988329190194897
sg11
S'Lyons'
p2684
sg13
S'10.1016/S0167-2991(08)61930-8'
p2685
sg15
F-1.62
sg16
S'yes'
p2686
sg18
S'Fe'
p2687
sg20
S'None'
p2688
sg22
I673
sg23
S'O2'
p2689
sg25
Nsg26
S'heterogeneous'
p2690
sg28
F33.0
sba(iexpclass
expclass
p2691
(dp2692
g6
S'ZEOL'
p2693
sg8
S'gas'
p2694
sg10
F0.038018939632056124
sg11
S'Lyons'
p2695
sg13
S'10.1016/S0167-2991(08)61930-8'
p2696
sg15
F-1.42
sg16
S'yes'
p2697
sg18
S'Fe'
p2698
sg20
S'None'
p2699
sg22
I703
sg23
S'O2'
p2700
sg25
Nsg26
S'heterogeneous'
p2701
sg28
F34.0
sba(iexpclass
expclass
p2702
(dp2703
g6
S'MoO3/SiO2'
p2704
sg8
S'gas'
p2705
sg10
F0.0006025595860743575
sg11
S'Khan'
p2706
sg13
S'10.1016/0021-9517(85)90340-9'
p2707
sg15
F-3.22
sg16
S'no'
p2708
sg18
S'Mo'
p2709
sg20
S'None'
p2710
sg22
I753
sg23
S'N2O'
p2711
sg25
Nsg26
S'heterogeneous'
p2712
sg28
F96.0
sba(iexpclass
expclass
p2713
(dp2714
g6
S'MoO3/SiO3'
p2715
sg8
S'gas'
p2716
sg10
F0.001
sg11
S'Khan'
p2717
sg13
S'10.1016/0021-9517(85)90340-9'
p2718
sg15
F-3.0
sg16
S'no'
p2719
sg18
S'Mo'
p2720
sg20
S'None'
p2721
sg22
I763
sg23
S'N2O'
p2722
sg25
Nsg26
S'heterogeneous'
p2723
sg28
F96.0
sba(iexpclass
expclass
p2724
(dp2725
g6
S'MoO3/SiO4'
p2726
sg8
S'gas'
p2727
sg10
F0.0016982436524617442
sg11
S'Khan'
p2728
sg13
S'10.1016/0021-9517(85)90340-9'
p2729
sg15
F-2.77
sg16
S'no'
p2730
sg18
S'Mo'
p2731
sg20
S'None'
p2732
sg22
I773
sg23
S'N2O'
p2733
sg25
Nsg26
S'heterogeneous'
p2734
sg28
F85.0
sba(iexpclass
expclass
p2735
(dp2736
g6
S'MoO3/SiO5'
p2737
sg8
S'gas'
p2738
sg10
F0.002187761623949552
sg11
S'Khan'
p2739
sg13
S'10.1016/0021-9517(85)90340-9'
p2740
sg15
F-2.66
sg16
S'no'
p2741
sg18
S'Mo'
p2742
sg20
S'None'
p2743
sg22
I783
sg23
S'N2O'
p2744
sg25
Nsg26
S'heterogeneous'
p2745
sg28
F72.0
sba(iexpclass
expclass
p2746
(dp2747
g6
S'MoO3/SiO6'
p2748
sg8
S'gas'
p2749
sg10
F0.0025703957827688645
sg11
S'Khan'
p2750
sg13
S'10.1016/0021-9517(85)90340-9'
p2751
sg15
F-2.59
sg16
S'no'
p2752
sg18
S'Mo'
p2753
sg20
S'None'
p2754
sg22
I793
sg23
S'N2O'
p2755
sg25
Nsg26
S'heterogeneous'
p2756
sg28
F66.0
sba(iexpclass
expclass
p2757
(dp2758
g6
S'MoO3/SiO7'
p2759
sg8
S'gas'
p2760
sg10
F0.003090295432513592
sg11
S'Khan'
p2761
sg13
S'10.1016/0021-9517(85)90340-9'
p2762
sg15
F-2.51
sg16
S'no'
p2763
sg18
S'Mo'
p2764
sg20
S'None'
p2765
sg22
I803
sg23
S'N2O'
p2766
sg25
Nsg26
S'heterogeneous'
p2767
sg28
F59.0
sba(iexpclass
expclass
p2768
(dp2769
g6
S'MoO3/SiO8'
p2770
sg8
S'gas'
p2771
sg10
F0.004677351412871981
sg11
S'Khan'
p2772
sg13
S'10.1016/0021-9517(85)90340-9'
p2773
sg15
F-2.33
sg16
S'no'
p2774
sg18
S'Mo'
p2775
sg20
S'None'
p2776
sg22
I813
sg23
S'N2O'
p2777
sg25
Nsg26
S'heterogeneous'
p2778
sg28
F54.0
sba(iexpclass
expclass
p2779
(dp2780
g6
S'MoO3/SiO9'
p2781
sg8
S'gas'
p2782
sg10
F0.00707945784384138
sg11
S'Khan'
p2783
sg13
S'10.1016/0021-9517(85)90340-9'
p2784
sg15
F-2.15
sg16
S'no'
p2785
sg18
S'Mo'
p2786
sg20
S'None'
p2787
sg22
I823
sg23
S'N2O'
p2788
sg25
Nsg26
S'heterogeneous'
p2789
sg28
F46.0
sba(iexpclass
expclass
p2790
(dp2791
g6
S'MoO3/SiO10'
p2792
sg8
S'gas'
p2793
sg10
F0.012022644346174132
sg11
S'Khan'
p2794
sg13
S'10.1016/0021-9517(85)90340-9'
p2795
sg15
F-1.92
sg16
S'no'
p2796
sg18
S'Mo'
p2797
sg20
S'None'
p2798
sg22
I843
sg23
S'N2O'
p2799
sg25
Nsg26
S'heterogeneous'
p2800
sg28
F18.0
sba(iexpclass
expclass
p2801
(dp2802
g6
S'MoO3/SiO11'
p2803
sg8
S'gas'
p2804
sg10
F0.028840315031266057
sg11
S'Khan'
p2805
sg13
S'10.1016/0021-9517(85)90340-9'
p2806
sg15
F-1.54
sg16
S'no'
p2807
sg18
S'Mo'
p2808
sg20
S'None'
p2809
sg22
I843
sg23
S'N2O'
p2810
sg25
Nsg26
S'heterogeneous'
p2811
sg28
F13.8
sba(iexpclass
expclass
p2812
(dp2813
g6
S'MoO3/SiO12'
p2814
sg8
S'gas'
p2815
sg10
F0.025703957827688632
sg11
S'Khan'
p2816
sg13
S'10.1016/0021-9517(85)90340-9'
p2817
sg15
F-1.59
sg16
S'no'
p2818
sg18
S'Mo'
p2819
sg20
S'None'
p2820
sg22
I863
sg23
S'N2O'
p2821
sg25
Nsg26
S'heterogeneous'
p2822
sg28
F16.0
sba(iexpclass
expclass
p2823
(dp2824
g6
S'-'
p2825
sg8
S'gas'
p2826
sg10
F0.013803842646028845
sg11
S'Casey'
p2827
sg13
S'10.1021/ie00029a008'
p2828
sg15
F-1.86
sg16
S'yes'
p2829
sg18
g1362
sg20
S'Radical'
p2830
sg22
I673
sg23
S'O2'
p2831
sg25
Nsg26
S'heterogeneous'
p2832
sg28
F44.06804734
sba(iexpclass
expclass
p2833
(dp2834
g6
g2825
sg8
S'gas'
p2835
sg10
F0.024547089156850298
sg11
S'Casey'
p2836
sg13
S'10.1021/ie00029a008'
p2837
sg15
F-1.61
sg16
S'yes'
p2838
sg18
g1362
sg20
S'Radical'
p2839
sg22
I673
sg23
S'O2'
p2840
sg25
Nsg26
S'heterogeneous'
p2841
sg28
F32.42133347
sba(iexpclass
expclass
p2842
(dp2843
g6
g2825
sg8
S'gas'
p2844
sg10
F0.046773514128719815
sg11
S'Casey'
p2845
sg13
S'10.1021/ie00029a008'
p2846
sg15
F-1.33
sg16
S'yes'
p2847
sg18
g1362
sg20
S'Radical'
p2848
sg22
I673
sg23
S'O2'
p2849
sg25
Nsg26
S'heterogeneous'
p2850
sg28
F22.20076078
sba(iexpclass
expclass
p2851
(dp2852
g6
g2825
sg8
S'gas'
p2853
sg10
F0.0812830516164099
sg11
S'Casey'
p2854
sg13
S'10.1021/ie00029a008'
p2855
sg15
F-1.09
sg16
S'yes'
p2856
sg18
g1362
sg20
S'Radical'
p2857
sg22
I673
sg23
S'O2'
p2858
sg25
Nsg26
S'heterogeneous'
p2859
sg28
F15.04390321
sba(iexpclass
expclass
p2860
(dp2861
g6
g2825
sg8
S'gas'
p2862
sg10
F0.007585775750291836
sg11
S'Chun'
p2863
sg13
S'10.1021/ie00017a004'
p2864
sg15
F-2.12
sg16
S'yes'
p2865
sg18
g1362
sg20
S'Radical'
p2866
sg22
I682
sg23
S'O2'
p2867
sg25
Nsg26
S'heterogeneous'
p2868
sg28
F54.18123451
sba(iexpclass
expclass
p2869
(dp2870
g6
g2825
sg8
S'gas'
p2871
sg10
F0.014791083881682071
sg11
S'Chun'
p2872
sg13
S'10.1021/ie00017a004'
p2873
sg15
F-1.83
sg16
S'yes'
p2874
sg18
g1362
sg20
S'Radical'
p2875
sg22
I691
sg23
S'O2'
p2876
sg25
Nsg26
S'heterogeneous'
p2877
sg28
F51.17300079
sba(iexpclass
expclass
p2878
(dp2879
g6
g2825
sg8
S'gas'
p2880
sg10
F0.019498445997580455
sg11
S'Chun'
p2881
sg13
S'10.1021/ie00017a004'
p2882
sg15
F-1.71
sg16
S'yes'
p2883
sg18
g1362
sg20
S'Radical'
p2884
sg22
I696
sg23
S'O2'
p2885
sg25
Nsg26
S'heterogeneous'
p2886
sg28
F50.90352195
sba(iexpclass
expclass
p2887
(dp2888
g6
g2825
sg8
S'gas'
p2889
sg10
F0.03715352290971726
sg11
S'Chun'
p2890
sg13
S'10.1021/ie00017a004'
p2891
sg15
F-1.43
sg16
S'yes'
p2892
sg18
g1362
sg20
S'Radical'
p2893
sg22
I708
sg23
S'O2'
p2894
sg25
Nsg26
S'heterogeneous'
p2895
sg28
F47.62033987
sba(iexpclass
expclass
p2896
(dp2897
g6
g2825
sg8
S'gas'
p2898
sg10
F0.04073802778041128
sg11
S'Chun'
p2899
sg13
S'10.1021/ie00017a004'
p2900
sg15
F-1.39
sg16
S'yes'
p2901
sg18
g1362
sg20
S'Radical'
p2902
sg22
I714
sg23
S'O2'
p2903
sg25
Nsg26
S'heterogeneous'
p2904
sg28
F38.93559014
sba(iexpclass
expclass
p2905
(dp2906
g6
g2825
sg8
S'gas'
p2907
sg10
F0.04168693834703355
sg11
S'Chun'
p2908
sg13
S'10.1021/ie00017a004'
p2909
sg15
F-1.38
sg16
S'yes'
p2910
sg18
g1362
sg20
S'Radical'
p2911
sg22
I732
sg23
S'O2'
p2912
sg25
Nsg26
S'heterogeneous'
p2913
sg28
F34.31994985
sba(iexpclass
expclass
p2914
(dp2915
g6
g2825
sg8
S'gas'
p2916
sg10
F0.04073802778041128
sg11
S'Chun'
p2917
sg13
S'10.1021/ie00017a004'
p2918
sg15
F-1.39
sg16
S'yes'
p2919
sg18
g1362
sg20
S'Radical'
p2920
sg22
I742
sg23
S'O2'
p2921
sg25
Nsg26
S'heterogeneous'
p2922
sg28
F33.21258325
sba(iexpclass
expclass
p2923
(dp2924
g6
g2825
sg8
S'gas'
p2925
sg10
F0.030902954325135904
sg11
S'Foulds'
p2926
sg13
S'10.1021/ie00017a003'
p2927
sg15
F-1.51
sg16
S'yes'
p2928
sg18
g1362
sg20
S'Radical'
p2929
sg22
I663
sg23
S'O2'
p2930
sg25
Nsg26
S'heterogeneous'
p2931
sg28
F47.0
sba(iexpclass
expclass
p2932
(dp2933
g6
g2825
sg8
S'gas'
p2934
sg10
F0.0446683592150963
sg11
S'Foulds'
p2935
sg13
S'10.1021/ie00017a003'
p2936
sg15
F-1.35
sg16
S'yes'
p2937
sg18
g1362
sg20
S'Radical'
p2938
sg22
I668
sg23
S'O2'
p2939
sg25
Nsg26
S'heterogeneous'
p2940
sg28
F37.7
sba(iexpclass
expclass
p2941
(dp2942
g6
g2825
sg8
S'gas'
p2943
sg10
F0.06456542290346556
sg11
S'Foulds'
p2944
sg13
S'10.1021/ie00017a003'
p2945
sg15
F-1.19
sg16
S'yes'
p2946
sg18
g1362
sg20
S'Radical'
p2947
sg22
I673
sg23
S'O2'
p2948
sg25
Nsg26
S'heterogeneous'
p2949
sg28
F28.1
sba(iexpclass
expclass
p2950
(dp2951
g6
g2825
sg8
S'gas'
p2952
sg10
F0.08511380382023763
sg11
S'Foulds'
p2953
sg13
S'10.1021/ie00017a003'
p2954
sg15
F-1.07
sg16
S'yes'
p2955
sg18
g1362
sg20
S'Radical'
p2956
sg22
I673
sg23
S'O2'
p2957
sg25
Nsg26
S'heterogeneous'
p2958
sg28
F23.0
sba(iexpclass
expclass
p2959
(dp2960
g6
g2825
sg8
S'gas'
p2961
sg10
F0.04073802778041128
sg11
S'Foulds'
p2962
sg13
S'10.1021/ie00017a003'
p2963
sg15
F-1.39
sg16
S'yes'
p2964
sg18
g1362
sg20
S'Radical'
p2965
sg22
I693
sg23
S'O2'
p2966
sg25
Nsg26
S'heterogeneous'
p2967
sg28
F27.2
sba(iexpclass
expclass
p2968
(dp2969
g6
g2825
sg8
S'gas'
p2970
sg10
F0.04570881896148749
sg11
S'Foulds'
p2971
sg13
S'10.1021/ie00017a003'
p2972
sg15
F-1.34
sg16
S'yes'
p2973
sg18
g1362
sg20
S'Radical'
p2974
sg22
I648
sg23
S'O2'
p2975
sg25
Nsg26
S'heterogeneous'
p2976
sg28
F33.7
sba(iexpclass
expclass
p2977
(dp2978
g6
g2825
sg8
S'gas'
p2979
sg10
F0.057543993733715694
sg11
S'Foulds'
p2980
sg13
S'10.1021/ie00017a003'
p2981
sg15
F-1.24
sg16
S'yes'
p2982
sg18
g1362
sg20
S'Radical'
p2983
sg22
I677
sg23
S'O2'
p2984
sg25
Nsg26
S'heterogeneous'
p2985
sg28
F36.3
sba(iexpclass
expclass
p2986
(dp2987
g6
g2825
sg8
S'gas'
p2988
sg10
F0.06456542290346556
sg11
S'Foulds'
p2989
sg13
S'10.1021/ie00017a003'
p2990
sg15
F-1.19
sg16
S'yes'
p2991
sg18
g1362
sg20
S'Radical'
p2992
sg22
I675
sg23
S'O2'
p2993
sg25
Nsg26
S'heterogeneous'
p2994
sg28
F33.3
sba(iexpclass
expclass
p2995
(dp2996
g6
g2825
sg8
S'gas'
p2997
sg10
F0.08912509381337455
sg11
S'Foulds'
p2998
sg13
S'10.1021/ie00017a003'
p2999
sg15
F-1.05
sg16
S'yes'
p3000
sg18
g1362
sg20
S'Radical'
p3001
sg22
I668
sg23
S'O2'
p3002
sg25
Nsg26
S'heterogeneous'
p3003
sg28
F23.5
sba(iexpclass
expclass
p3004
(dp3005
g6
g2825
sg8
S'gas'
p3006
sg10
F0.07762471166286916
sg11
S'Foulds'
p3007
sg13
S'10.1021/ie00017a003'
p3008
sg15
F-1.11
sg16
S'yes'
p3009
sg18
g1362
sg20
S'Radical'
p3010
sg22
I678
sg23
S'O2'
p3011
sg25
Nsg26
S'heterogeneous'
p3012
sg28
F17.9
sba(iexpclass
expclass
p3013
(dp3014
g6
g2825
sg8
S'gas'
p3015
sg10
F0.06760829753919818
sg11
S'Foulds'
p3016
sg13
S'10.1021/ie00017a003'
p3017
sg15
F-1.17
sg16
S'yes'
p3018
sg18
g1362
sg20
S'Radical'
p3019
sg22
I658
sg23
S'O2'
p3020
sg25
Nsg26
S'heterogeneous'
p3021
sg28
F23.6
sba(iexpclass
expclass
p3022
(dp3023
g6
S'Ceria-Zirconia'
p3024
sg8
S'gas'
p3025
sg10
F0.15135612484362082
sg11
S'Okolie'
p3026
sg13
S'10.1002/anie.201704704'
p3027
sg15
F-0.82
sg16
S'no'
p3028
sg18
S'Ni'
p3029
sg20
S'None'
p3030
sg22
I723
sg23
S'O2'
p3031
sg25
Nsg26
S'heterogeneous'
p3032
sg28
F43.0
sba(iexpclass
expclass
p3033
(dp3034
g6
S'Zirconia'
p3035
sg8
S'aqueous'
p3036
sg10
F1.3803842646028839e-05
sg11
S'Kwon'
p3037
sg13
S'10.1021/jacs.7b11010'
p3038
sg15
F-4.86
sg16
S'yes'
p3039
sg18
S'Rh'
p3040
sg20
S'None'
p3041
sg22
I343
sg23
S'H2O2'
p3042
sg25
Nsg26
S'heterogeneous'
p3043
sg28
F71.0
sba(iexpclass
expclass
p3044
(dp3045
g6
g2825
sg8
S'aqueous'
p3046
sg10
F0.0001412537544622754
sg11
S'Hutchings'
p3047
sg13
S'10.1126/science.aan6515'
p3048
sg15
F-3.85
sg16
S'yes'
p3049
sg18
S'Au-Pd'
p3050
sg20
S'Radical'
p3051
sg22
I323
sg23
S'H2O2/O2'
p3052
sg25
Nsg26
S'heterogeneous'
p3053
sg28
F100.0
sba(iexpclass
expclass
p3054
(dp3055
g6
g2825
sg8
S'aqueous'
p3056
sg10
F0.0003235936569296281
sg11
S'Hutchings'
p3057
sg13
S'10.1126/science.aan6515'
p3058
sg15
F-3.49
sg16
S'yes'
p3059
sg18
S'Au-Pd'
p3060
sg20
S'Radical'
p3061
sg22
I323
sg23
S'H2O2/O2'
p3062
sg25
Nsg26
S'heterogeneous'
p3063
sg28
F97.10144928
sba(iexpclass
expclass
p3064
(dp3065
g6
g2825
sg8
S'aqueous'
p3066
sg10
F0.0004365158322401661
sg11
S'Hutchings'
p3067
sg13
S'10.1126/science.aan6515'
p3068
sg15
F-3.36
sg16
S'yes'
p3069
sg18
S'Au-Pd'
p3070
sg20
S'Radical'
p3071
sg22
I323
sg23
S'H2O2/O2'
p3072
sg25
Nsg26
S'heterogeneous'
p3073
sg28
F95.18716578
sba(iexpclass
expclass
p3074
(dp3075
g6
g2825
sg8
S'aqueous'
p3076
sg10
F0.0005754399373371566
sg11
S'Hutchings'
p3077
sg13
S'10.1126/science.aan6515'
p3078
sg15
F-3.24
sg16
S'yes'
p3079
sg18
S'Au-Pd'
p3080
sg20
S'Radical'
p3081
sg22
I323
sg23
S'H2O2/O2'
p3082
sg25
Nsg26
S'heterogeneous'
p3083
sg28
F92.33870968
sba(iexpclass
expclass
p3084
(dp3085
g6
g2825
sg8
S'aqueous'
p3086
sg10
F0.0006606934480075957
sg11
S'Hutchings'
p3087
sg13
S'10.1126/science.aan6515'
p3088
sg15
F-3.18
sg16
S'yes'
p3089
sg18
S'Au-Pd'
p3090
sg20
S'Radical'
p3091
sg22
I323
sg23
S'H2O2/O2'
p3092
sg25
Nsg26
S'heterogeneous'
p3093
sg28
F91.57894737
sba(iexpclass
expclass
p3094
(dp3095
g6
g2825
sg8
S'aqueous'
p3096
sg10
F0.0006606934480075957
sg11
S'Hutchings'
p3097
sg13
S'10.1126/science.aan6515'
p3098
sg15
F-3.18
sg16
S'yes'
p3099
sg18
S'Au-Pd'
p3100
sg20
S'Radical'
p3101
sg22
I323
sg23
S'H2O2/O2'
p3102
sg25
Nsg26
S'heterogeneous'
p3103
sg28
F81.75438596
sba(iexpclass
expclass
p3104
(dp3105
g6
g2825
sg8
S'aqueous'
p3106
sg10
F0.0007943282347242813
sg11
S'Hutchings'
p3107
sg13
S'10.1126/science.aan6515'
p3108
sg15
F-3.1
sg16
S'yes'
p3109
sg18
S'Au-Pd'
p3110
sg20
S'Radical'
p3111
sg22
I323
sg23
S'H2O2/O2'
p3112
sg25
Nsg26
S'heterogeneous'
p3113
sg28
F86.39053254
sba(iexpclass
expclass
p3114
(dp3115
g6
g2825
sg8
S'aqueous'
p3116
sg10
F0.0008912509381337459
sg11
S'Hutchings'
p3117
sg13
S'10.1126/science.aan6515'
p3118
sg15
F-3.05
sg16
S'yes'
p3119
sg18
S'Au-Pd'
p3120
sg20
S'Radical'
p3121
sg22
I323
sg23
S'H2O2/O2'
p3122
sg25
Nsg26
S'heterogeneous'
p3123
sg28
F84.375
sba(iexpclass
expclass
p3124
(dp3125
g6
g2825
sg8
S'aqueous'
p3126
sg10
F0.001
sg11
S'Hutchings'
p3127
sg13
S'10.1126/science.aan6515'
p3128
sg15
F-3.0
sg16
S'yes'
p3129
sg18
S'Au-Pd'
p3130
sg20
S'Radical'
p3131
sg22
I323
sg23
S'H2O2/O2'
p3132
sg25
Nsg26
S'heterogeneous'
p3133
sg28
F79.86111111
sba(iexpclass
expclass
p3134
(dp3135
g6
g2825
sg8
S'aqueous'
p3136
sg10
F0.001174897554939529
sg11
S'Hutchings'
p3137
sg13
S'10.1126/science.aan6515'
p3138
sg15
F-2.93
sg16
S'yes'
p3139
sg18
S'Au-Pd'
p3140
sg20
S'Radical'
p3141
sg22
I323
sg23
S'H2O2/O2'
p3142
sg25
Nsg26
S'heterogeneous'
p3143
sg28
F77.55905512
sba(iexpclass
expclass
p3144
(dp3145
g6
S'MMO'
p3146
sg8
S'aqueous'
p3147
sg10
F0.3409090912470263
sg11
S'Mountfort'
p3148
sg13
S'10.1016/0141-0229(90)90162-J'
p3149
sg15
F-0.467361417
sg16
S'yes'
p3150
sg18
S'Fe'
p3151
sg20
S'MMO'
p3152
sg22
I303
sg23
S'O2'
p3153
sg25
Nsg26
S'homogeneous'
p3154
sg28
F0.0
sba(iexpclass
expclass
p3155
(dp3156
g6
S'MMO'
p3157
sg8
S'aqueous'
p3158
sg10
F0.0874999999955044
sg11
S'Mountfort'
p3159
sg13
S'10.1016/0141-0229(90)90162-J'
p3160
sg15
F-1.057991947
sg16
S'yes'
p3161
sg18
S'Fe'
p3162
sg20
S'MMO'
p3163
sg22
I303
sg23
S'O2'
p3164
sg25
Nsg26
S'homogeneous'
p3165
sg28
F36.36363636
sba(iexpclass
expclass
p3166
(dp3167
g6
S'MMO'
p3168
sg8
S'aqueous'
p3169
sg10
F0.08295454546022085
sg11
S'Mountfort'
p3170
sg13
S'10.1016/0141-0229(90)90162-J'
p3171
sg15
F-1.081159812
sg16
S'yes'
p3172
sg18
S'Fe'
p3173
sg20
S'MMO'
p3174
sg22
I303
sg23
S'O2'
p3175
sg25
Nsg26
S'homogeneous'
p3176
sg28
F61.36986301
sba(iexpclass
expclass
p3177
(dp3178
g6
S'MMO'
p3179
sg8
S'aqueous'
p3180
sg10
F0.09159090916368459
sg11
S'Mountfort'
p3181
sg13
S'10.1016/0141-0229(90)90162-J'
p3182
sg15
F-1.03814763
sg16
S'yes'
p3183
sg18
S'Fe'
p3184
sg20
S'MMO'
p3185
sg22
I303
sg23
S'O2'
p3186
sg25
Nsg26
S'homogeneous'
p3187
sg28
F15.38461538
sba(iexpclass
expclass
p3188
(dp3189
g6
S'MMO'
p3190
sg8
S'aqueous'
p3191
sg10
F0.33772727277519976
sg11
S'Mountfort'
p3192
sg13
S'10.1016/0141-0229(90)90162-J'
p3193
sg15
F-0.471433867
sg16
S'yes'
p3194
sg18
S'Fe'
p3195
sg20
S'MMO'
p3196
sg22
I303
sg23
S'O2'
p3197
sg25
Nsg26
S'homogeneous'
p3198
sg28
F0.0
sba(iexpclass
expclass
p3199
(dp3200
g6
S'ZSM-5'
p3201
sg8
S'aqueous'
p3202
sg10
F0.003999999996979355
sg11
S'Shan'
p3203
sg13
S'10.1038/nature24640'
p3204
sg15
F-2.397940009
sg16
S'yes'
p3205
sg18
S'Rh'
p3206
sg20
S'None'
p3207
sg22
I423
sg23
S'O2/CO'
p3208
sg25
Nsg26
S'heterogeneous'
p3209
sg28
F71.42857143
sba(iexpclass
expclass
p3210
(dp3211
g6
S'ZSM-5'
p3212
sg8
S'aqueous'
p3213
sg10
F0.00499999999613144
sg11
S'Shan'
p3214
sg13
S'10.1038/nature24640'
p3215
sg15
F-2.301029996
sg16
S'yes'
p3216
sg18
S'Rh'
p3217
sg20
S'None'
p3218
sg22
I423
sg23
S'O2/CO'
p3219
sg25
Nsg26
S'heterogeneous'
p3220
sg28
F71.09375
sba(iexpclass
expclass
p3221
(dp3222
g6
S'ZSM-5'
p3223
sg8
S'aqueous'
p3224
sg10
F0.014000000010372377
sg11
S'Shan'
p3225
sg13
S'10.1038/nature24640'
p3226
sg15
F-1.853871964
sg16
S'yes'
p3227
sg18
S'Rh'
p3228
sg20
S'None'
p3229
sg22
I423
sg23
S'O2/CO'
p3230
sg25
Nsg26
S'heterogeneous'
p3231
sg28
F73.06397306
sba(iexpclass
expclass
p3232
(dp3233
g6
S'ZSM-5'
p3234
sg8
S'aqueous'
p3235
sg10
F0.039999999969793545
sg11
S'Shan'
p3236
sg13
S'10.1038/nature24640'
p3237
sg15
F-1.397940009
sg16
S'yes'
p3238
sg18
S'Rh'
p3239
sg20
S'None'
p3240
sg22
I423
sg23
S'O2/CO'
p3241
sg25
Nsg26
S'heterogeneous'
p3242
sg28
F63.69346734
sbasb.